

Microchip MPLAB XC8 Assembler V3.00 build 20241204225717 
                                                                                               Wed Jan 14 11:52:56 2026

Microchip MPLAB XC8 C Compiler v3.00 (Free license) build 20241204225717 Og1 
     1                           	processor	18F4550
     2                           	fnconf	rparam,??,?,0
     3                           	pagewidth 120
     4                           	opt	flic
     5                           	psect	mediumconst,global,reloc=2,class=MEDIUMCONST,space=0,delta=1,noexec
     6                           	psect	cinit,global,reloc=2,class=CODE,space=0,delta=1
     7                           	psect	bssCOMRAM,global,class=COMRAM,space=1,delta=1,lowdata,noexec
     8                           	psect	bssBANK0,global,class=BANK0,space=1,delta=1,lowdata,noexec
     9                           	psect	bssBANK1,global,class=BANK1,space=1,delta=1,lowdata,noexec
    10                           	psect	cstackBANK1,global,class=BANK1,space=1,delta=1,lowdata,noexec
    11                           	psect	cstackBANK0,global,class=BANK0,space=1,delta=1,lowdata,noexec
    12                           	psect	cstackCOMRAM,global,class=COMRAM,space=1,delta=1,lowdata,noexec
    13                           	psect	text0,global,reloc=2,class=CODE,space=0,delta=1
    14                           	psect	text1,global,reloc=2,class=CODE,space=0,delta=1,group=3
    15                           	psect	text2,global,reloc=2,class=CODE,space=0,delta=1,group=3
    16                           	psect	text3,global,reloc=2,class=CODE,space=0,delta=1,group=3
    17                           	psect	text4,global,reloc=2,class=CODE,space=0,delta=1,group=1
    18                           	psect	text5,global,reloc=2,class=CODE,space=0,delta=1,group=1
    19                           	psect	text6,global,reloc=2,class=CODE,space=0,delta=1,group=3
    20                           	psect	text7,global,reloc=2,class=CODE,space=0,delta=1,group=3
    21                           	psect	text8,global,reloc=2,class=CODE,space=0,delta=1,group=3
    22                           	psect	text9,global,reloc=2,class=CODE,space=0,delta=1,group=2
    23                           	psect	text10,global,reloc=2,class=CODE,space=0,delta=1
    24                           	psect	text11,global,reloc=2,class=CODE,space=0,delta=1
    25                           	psect	text12,global,reloc=2,class=CODE,space=0,delta=1
    26                           	psect	text13,global,reloc=2,class=CODE,space=0,delta=1
    27                           	psect	text14,global,reloc=2,class=CODE,space=0,delta=1
    28                           	psect	text15,global,reloc=2,class=CODE,space=0,delta=1
    29                           	psect	text16,global,reloc=2,class=CODE,space=0,delta=1
    30                           	psect	text17,global,reloc=2,class=CODE,space=0,delta=1
    31                           	psect	text18,global,reloc=2,class=CODE,space=0,delta=1,group=2
    32                           	psect	text19,global,reloc=2,class=CODE,space=0,delta=1
    33                           	psect	text20,global,reloc=2,class=CODE,space=0,delta=1
    34                           	psect	text21,global,reloc=2,class=CODE,space=0,delta=1
    35                           	psect	text22,global,reloc=2,class=CODE,space=0,delta=1
    36                           	psect	text23,global,reloc=2,class=CODE,space=0,delta=1
    37                           	psect	text24,global,reloc=2,class=CODE,space=0,delta=1
    38                           	psect	text25,global,reloc=2,class=CODE,space=0,delta=1
    39                           	psect	text26,global,reloc=2,class=CODE,space=0,delta=1
    40                           	psect	text27,global,reloc=2,class=CODE,space=0,delta=1
    41                           	psect	text28,global,reloc=2,class=CODE,space=0,delta=1
    42                           	psect	text29,global,reloc=2,class=CODE,space=0,delta=1
    43                           	psect	text30,global,reloc=2,class=CODE,space=0,delta=1
    44                           	psect	text31,global,reloc=2,class=CODE,space=0,delta=1,group=2
    45                           	psect	text32,global,reloc=2,class=CODE,space=0,delta=1
    46                           	psect	text33,global,reloc=2,class=CODE,space=0,delta=1,group=3
    47                           	psect	text34,global,reloc=2,class=CODE,space=0,delta=1,group=3
    48                           	psect	text35,global,reloc=2,class=CODE,space=0,delta=1,group=3
    49                           	psect	text36,global,reloc=2,class=CODE,space=0,delta=1,group=2
    50                           	psect	text37,global,reloc=2,class=CODE,space=0,delta=1,group=2
    51                           	psect	text38,global,reloc=2,class=CODE,space=0,delta=1,group=3
    52                           	psect	text39,global,reloc=2,class=CODE,space=0,delta=1,group=2
    53                           	psect	text40,global,reloc=2,class=CODE,space=0,delta=1,group=2
    54                           	psect	text41,global,reloc=2,class=CODE,space=0,delta=1,group=2
    55                           	psect	text42,global,reloc=2,class=CODE,space=0,delta=1,group=2
    56                           	psect	text43,global,reloc=2,class=CODE,space=0,delta=1,group=2
    57                           	psect	text44,global,reloc=2,class=CODE,space=0,delta=1
    58                           	psect	intcode,global,reloc=2,class=CODE,space=0,delta=1
    59                           	psect	intcode_body,global,reloc=2,class=CODE,space=0,delta=1
    60                           	psect	text46,global,reloc=2,class=CODE,space=0,delta=1
    61                           	psect	text47,global,reloc=2,class=CODE,space=0,delta=1
    62                           	psect	text48,global,reloc=2,class=CODE,space=0,delta=1
    63                           	psect	text49,global,reloc=2,class=CODE,space=0,delta=1
    64                           	psect	text50,global,reloc=2,class=CODE,space=0,delta=1
    65                           	psect	text51,global,reloc=2,class=CODE,space=0,delta=1
    66                           	psect	text52,global,reloc=2,class=CODE,space=0,delta=1
    67                           	psect	text53,global,reloc=2,class=CODE,space=0,delta=1
    68                           	psect	text54,global,reloc=2,class=CODE,space=0,delta=1
    69                           	psect	text55,global,reloc=2,class=CODE,space=0,delta=1
    70                           	psect	text56,global,reloc=2,class=CODE,space=0,delta=1
    71                           	psect	text57,global,reloc=2,class=CODE,space=0,delta=1
    72                           	psect	intsave_regs,global,class=BIGRAM,space=1,delta=1,noexec
    73                           	psect	rparam,global,class=COMRAM,space=1,delta=1,noexec
    74                           	psect	temp,global,ovrld,common,class=COMRAM,space=1,delta=1,lowdata
    75                           	psect	config,global,abs,ovrld,class=CONFIG,space=4,delta=1,noexec
    76   000000                     
    77                           ; Generated 17/10/2023 GMT
    78                           ; 
    79                           ; Copyright © 2023, Microchip Technology Inc. and its subsidiaries ("Microchip")
    80                           ; All rights reserved.
    81                           ; 
    82                           ; This software is developed by Microchip Technology Inc. and its subsidiaries ("Microch
      +                          ip").
    83                           ; 
    84                           ; Redistribution and use in source and binary forms, with or without modification, are
    85                           ; permitted provided that the following conditions are met:
    86                           ; 
    87                           ;     1. Redistributions of source code must retain the above copyright notice, this lis
      +                          t of
    88                           ;        conditions and the following disclaimer.
    89                           ; 
    90                           ;     2. Redistributions in binary form must reproduce the above copyright notice, this 
      +                          list
    91                           ;        of conditions and the following disclaimer in the documentation and/or other
    92                           ;        materials provided with the distribution. Publication is not required when
    93                           ;        this file is used in an embedded application.
    94                           ; 
    95                           ;     3. Microchip's name may not be used to endorse or promote products derived from th
      +                          is
    96                           ;        software without specific prior written permission.
    97                           ; 
    98                           ; THIS SOFTWARE IS PROVIDED BY MICROCHIP "AS IS" AND ANY EXPRESS OR IMPLIED WARRANTIES,
    99                           ; INCLUDING, BUT NOT LIMITED TO, THE IMPLIED WARRANTIES OF MERCHANTABILITY AND FITNESS F
      +                          OR
   100                           ; PURPOSE ARE DISCLAIMED.  IN NO EVENT SHALL MICROCHIP BE LIABLE FOR ANY DIRECT, INDIREC
      +                          T,
   101                           ; INCIDENTAL, SPECIAL, EXEMPLARY, OR CONSEQUENTIAL DAMAGES (INCLUDING BUT NOT LIMITED TO
   102                           ; PROCUREMENT OF SUBSTITUTE GOODS OR SERVICES; LOSS OF USE, DATA OR PROFITS; OR BUSINESS
   103                           ; INTERRUPTION) HOWSOEVER CAUSED AND ON ANY THEORY OF LIABILITY, WHETHER IN CONTRACT, ST
      +                          RICT
   104                           ; LIABILITY, OR TORT (INCLUDING NEGLIGENCE OR OTHERWISE) ARISING IN ANY WAY OUT OF THE U
      +                          SE OF
   105                           ; THIS SOFTWARE, EVEN IF ADVISED OF THE POSSIBILITY OF SUCH DAMAGE.
   106                           ; 
   107                           ; 
   108                           ; Code-generator required, PIC18F4550 Definitions
   109                           ; 
   110                           ; SFR Addresses
   111   000FE0                     bsr             equ	4064
   112   000FE9                     fsr0            equ	4073
   113   000FEA                     fsr0h           equ	4074
   114   000FE9                     fsr0l           equ	4073
   115   000FE1                     fsr1            equ	4065
   116   000FE2                     fsr1h           equ	4066
   117   000FE1                     fsr1l           equ	4065
   118   000FD9                     fsr2            equ	4057
   119   000FDA                     fsr2h           equ	4058
   120   000FD9                     fsr2l           equ	4057
   121   000FEF                     indf0           equ	4079
   122   000FE7                     indf1           equ	4071
   123   000FDF                     indf2           equ	4063
   124   000FF2                     intcon          equ	4082
   125   000000                     nvmcon          equ	0
   126   000FF9                     pcl             equ	4089
   127   000FFA                     pclath          equ	4090
   128   000FFB                     pclatu          equ	4091
   129   000FEB                     plusw0          equ	4075
   130   000FE3                     plusw1          equ	4067
   131   000FDB                     plusw2          equ	4059
   132   000FED                     postdec0        equ	4077
   133   000FE5                     postdec1        equ	4069
   134   000FDD                     postdec2        equ	4061
   135   000FEE                     postinc0        equ	4078
   136   000FE6                     postinc1        equ	4070
   137   000FDE                     postinc2        equ	4062
   138   000FEC                     preinc0         equ	4076
   139   000FE4                     preinc1         equ	4068
   140   000FDC                     preinc2         equ	4060
   141   000FF3                     prod            equ	4083
   142   000FF4                     prodh           equ	4084
   143   000FF3                     prodl           equ	4083
   144   000FD8                     status          equ	4056
   145   000FF5                     tablat          equ	4085
   146   000FF6                     tblptr          equ	4086
   147   000FF7                     tblptrh         equ	4087
   148   000FF6                     tblptrl         equ	4086
   149   000FF8                     tblptru         equ	4088
   150   000FFD                     tosl            equ	4093
   151   000FE8                     wreg            equ	4072
   152   000F62                     SPPDATA         equ	3938	;# 
   153   000F63                     SPPCFG          equ	3939	;# 
   154   000F64                     SPPEPS          equ	3940	;# 
   155   000F65                     SPPCON          equ	3941	;# 
   156   000F66                     UFRM            equ	3942	;# 
   157   000F66                     UFRML           equ	3942	;# 
   158   000F67                     UFRMH           equ	3943	;# 
   159   000F68                     UIR             equ	3944	;# 
   160   000F69                     UIE             equ	3945	;# 
   161   000F6A                     UEIR            equ	3946	;# 
   162   000F6B                     UEIE            equ	3947	;# 
   163   000F6C                     USTAT           equ	3948	;# 
   164   000F6D                     UCON            equ	3949	;# 
   165   000F6E                     UADDR           equ	3950	;# 
   166   000F6F                     UCFG            equ	3951	;# 
   167   000F70                     UEP0            equ	3952	;# 
   168   000F71                     UEP1            equ	3953	;# 
   169   000F72                     UEP2            equ	3954	;# 
   170   000F73                     UEP3            equ	3955	;# 
   171   000F74                     UEP4            equ	3956	;# 
   172   000F75                     UEP5            equ	3957	;# 
   173   000F76                     UEP6            equ	3958	;# 
   174   000F77                     UEP7            equ	3959	;# 
   175   000F78                     UEP8            equ	3960	;# 
   176   000F79                     UEP9            equ	3961	;# 
   177   000F7A                     UEP10           equ	3962	;# 
   178   000F7B                     UEP11           equ	3963	;# 
   179   000F7C                     UEP12           equ	3964	;# 
   180   000F7D                     UEP13           equ	3965	;# 
   181   000F7E                     UEP14           equ	3966	;# 
   182   000F7F                     UEP15           equ	3967	;# 
   183   000F80                     PORTA           equ	3968	;# 
   184   000F81                     PORTB           equ	3969	;# 
   185   000F82                     PORTC           equ	3970	;# 
   186   000F83                     PORTD           equ	3971	;# 
   187   000F84                     PORTE           equ	3972	;# 
   188   000F89                     LATA            equ	3977	;# 
   189   000F8A                     LATB            equ	3978	;# 
   190   000F8B                     LATC            equ	3979	;# 
   191   000F8C                     LATD            equ	3980	;# 
   192   000F8D                     LATE            equ	3981	;# 
   193   000F92                     TRISA           equ	3986	;# 
   194   000F92                     DDRA            equ	3986	;# 
   195   000F93                     TRISB           equ	3987	;# 
   196   000F93                     DDRB            equ	3987	;# 
   197   000F94                     TRISC           equ	3988	;# 
   198   000F94                     DDRC            equ	3988	;# 
   199   000F95                     TRISD           equ	3989	;# 
   200   000F95                     DDRD            equ	3989	;# 
   201   000F96                     TRISE           equ	3990	;# 
   202   000F96                     DDRE            equ	3990	;# 
   203   000F9B                     OSCTUNE         equ	3995	;# 
   204   000F9D                     PIE1            equ	3997	;# 
   205   000F9E                     PIR1            equ	3998	;# 
   206   000F9F                     IPR1            equ	3999	;# 
   207   000FA0                     PIE2            equ	4000	;# 
   208   000FA1                     PIR2            equ	4001	;# 
   209   000FA2                     IPR2            equ	4002	;# 
   210   000FA6                     EECON1          equ	4006	;# 
   211   000FA7                     EECON2          equ	4007	;# 
   212   000FA8                     EEDATA          equ	4008	;# 
   213   000FA9                     EEADR           equ	4009	;# 
   214   000FAB                     RCSTA           equ	4011	;# 
   215   000FAB                     RCSTA1          equ	4011	;# 
   216   000FAC                     TXSTA           equ	4012	;# 
   217   000FAC                     TXSTA1          equ	4012	;# 
   218   000FAD                     TXREG           equ	4013	;# 
   219   000FAD                     TXREG1          equ	4013	;# 
   220   000FAE                     RCREG           equ	4014	;# 
   221   000FAE                     RCREG1          equ	4014	;# 
   222   000FAF                     SPBRG           equ	4015	;# 
   223   000FAF                     SPBRG1          equ	4015	;# 
   224   000FB0                     SPBRGH          equ	4016	;# 
   225   000FB1                     T3CON           equ	4017	;# 
   226   000FB2                     TMR3            equ	4018	;# 
   227   000FB2                     TMR3L           equ	4018	;# 
   228   000FB3                     TMR3H           equ	4019	;# 
   229   000FB4                     CMCON           equ	4020	;# 
   230   000FB5                     CVRCON          equ	4021	;# 
   231   000FB6                     ECCP1AS         equ	4022	;# 
   232   000FB6                     CCP1AS          equ	4022	;# 
   233   000FB7                     ECCP1DEL        equ	4023	;# 
   234   000FB7                     CCP1DEL         equ	4023	;# 
   235   000FB8                     BAUDCON         equ	4024	;# 
   236   000FB8                     BAUDCTL         equ	4024	;# 
   237   000FBA                     CCP2CON         equ	4026	;# 
   238   000FBB                     CCPR2           equ	4027	;# 
   239   000FBB                     CCPR2L          equ	4027	;# 
   240   000FBC                     CCPR2H          equ	4028	;# 
   241   000FBD                     CCP1CON         equ	4029	;# 
   242   000FBD                     ECCP1CON        equ	4029	;# 
   243   000FBE                     CCPR1           equ	4030	;# 
   244   000FBE                     CCPR1L          equ	4030	;# 
   245   000FBF                     CCPR1H          equ	4031	;# 
   246   000FC0                     ADCON2          equ	4032	;# 
   247   000FC1                     ADCON1          equ	4033	;# 
   248   000FC2                     ADCON0          equ	4034	;# 
   249   000FC3                     ADRES           equ	4035	;# 
   250   000FC3                     ADRESL          equ	4035	;# 
   251   000FC4                     ADRESH          equ	4036	;# 
   252   000FC5                     SSPCON2         equ	4037	;# 
   253   000FC6                     SSPCON1         equ	4038	;# 
   254   000FC7                     SSPSTAT         equ	4039	;# 
   255   000FC8                     SSPADD          equ	4040	;# 
   256   000FC9                     SSPBUF          equ	4041	;# 
   257   000FCA                     T2CON           equ	4042	;# 
   258   000FCB                     PR2             equ	4043	;# 
   259   000FCB                     MEMCON          equ	4043	;# 
   260   000FCC                     TMR2            equ	4044	;# 
   261   000FCD                     T1CON           equ	4045	;# 
   262   000FCE                     TMR1            equ	4046	;# 
   263   000FCE                     TMR1L           equ	4046	;# 
   264   000FCF                     TMR1H           equ	4047	;# 
   265   000FD0                     RCON            equ	4048	;# 
   266   000FD1                     WDTCON          equ	4049	;# 
   267   000FD2                     HLVDCON         equ	4050	;# 
   268   000FD2                     LVDCON          equ	4050	;# 
   269   000FD3                     OSCCON          equ	4051	;# 
   270   000FD5                     T0CON           equ	4053	;# 
   271   000FD6                     TMR0            equ	4054	;# 
   272   000FD6                     TMR0L           equ	4054	;# 
   273   000FD7                     TMR0H           equ	4055	;# 
   274   000FD8                     STATUS          equ	4056	;# 
   275   000FD9                     FSR2            equ	4057	;# 
   276   000FD9                     FSR2L           equ	4057	;# 
   277   000FDA                     FSR2H           equ	4058	;# 
   278   000FDB                     PLUSW2          equ	4059	;# 
   279   000FDC                     PREINC2         equ	4060	;# 
   280   000FDD                     POSTDEC2        equ	4061	;# 
   281   000FDE                     POSTINC2        equ	4062	;# 
   282   000FDF                     INDF2           equ	4063	;# 
   283   000FE0                     BSR             equ	4064	;# 
   284   000FE1                     FSR1            equ	4065	;# 
   285   000FE1                     FSR1L           equ	4065	;# 
   286   000FE2                     FSR1H           equ	4066	;# 
   287   000FE3                     PLUSW1          equ	4067	;# 
   288   000FE4                     PREINC1         equ	4068	;# 
   289   000FE5                     POSTDEC1        equ	4069	;# 
   290   000FE6                     POSTINC1        equ	4070	;# 
   291   000FE7                     INDF1           equ	4071	;# 
   292   000FE8                     WREG            equ	4072	;# 
   293   000FE9                     FSR0            equ	4073	;# 
   294   000FE9                     FSR0L           equ	4073	;# 
   295   000FEA                     FSR0H           equ	4074	;# 
   296   000FEB                     PLUSW0          equ	4075	;# 
   297   000FEC                     PREINC0         equ	4076	;# 
   298   000FED                     POSTDEC0        equ	4077	;# 
   299   000FEE                     POSTINC0        equ	4078	;# 
   300   000FEF                     INDF0           equ	4079	;# 
   301   000FF0                     INTCON3         equ	4080	;# 
   302   000FF1                     INTCON2         equ	4081	;# 
   303   000FF2                     INTCON          equ	4082	;# 
   304   000FF3                     PROD            equ	4083	;# 
   305   000FF3                     PRODL           equ	4083	;# 
   306   000FF4                     PRODH           equ	4084	;# 
   307   000FF5                     TABLAT          equ	4085	;# 
   308   000FF6                     TBLPTR          equ	4086	;# 
   309   000FF6                     TBLPTRL         equ	4086	;# 
   310   000FF7                     TBLPTRH         equ	4087	;# 
   311   000FF8                     TBLPTRU         equ	4088	;# 
   312   000FF9                     PCLAT           equ	4089	;# 
   313   000FF9                     PC              equ	4089	;# 
   314   000FF9                     PCL             equ	4089	;# 
   315   000FFA                     PCLATH          equ	4090	;# 
   316   000FFB                     PCLATU          equ	4091	;# 
   317   000FFC                     STKPTR          equ	4092	;# 
   318   000FFD                     TOS             equ	4093	;# 
   319   000FFD                     TOSL            equ	4093	;# 
   320   000FFE                     TOSH            equ	4094	;# 
   321   000FFF                     TOSU            equ	4095	;# 
   322                           
   323                           	psect	mediumconst
   324   007E76                     __pmediumconst:
   325                           	callstack 0
   326   007E76  00                 	db	0
   327   007E77                     _font5x7:
   328                           	callstack 0
   329   007E77  00                 	db	0
   330   007E78  00                 	db	0
   331   007E79  00                 	db	0
   332   007E7A  00                 	db	0
   333   007E7B  00                 	db	0
   334   007E7C  3E                 	db	62
   335   007E7D  51                 	db	81
   336   007E7E  49                 	db	73
   337   007E7F  45                 	db	69
   338   007E80  3E                 	db	62
   339   007E81  00                 	db	0
   340   007E82  42                 	db	66
   341   007E83  7F                 	db	127
   342   007E84  40                 	db	64
   343   007E85  00                 	db	0
   344   007E86  62                 	db	98
   345   007E87  51                 	db	81
   346   007E88  49                 	db	73
   347   007E89  49                 	db	73
   348   007E8A  46                 	db	70
   349   007E8B  22                 	db	34
   350   007E8C  41                 	db	65
   351   007E8D  49                 	db	73
   352   007E8E  49                 	db	73
   353   007E8F  36                 	db	54
   354   007E90  18                 	db	24
   355   007E91  14                 	db	20
   356   007E92  12                 	db	18
   357   007E93  7F                 	db	127
   358   007E94  10                 	db	16
   359   007E95  2F                 	db	47
   360   007E96  49                 	db	73
   361   007E97  49                 	db	73
   362   007E98  49                 	db	73
   363   007E99  31                 	db	49
   364   007E9A  3C                 	db	60
   365   007E9B  4A                 	db	74
   366   007E9C  49                 	db	73
   367   007E9D  49                 	db	73
   368   007E9E  30                 	db	48
   369   007E9F  01                 	db	1
   370   007EA0  71                 	db	113
   371   007EA1  09                 	db	9
   372   007EA2  05                 	db	5
   373   007EA3  03                 	db	3
   374   007EA4  36                 	db	54
   375   007EA5  49                 	db	73
   376   007EA6  49                 	db	73
   377   007EA7  49                 	db	73
   378   007EA8  36                 	db	54
   379   007EA9  06                 	db	6
   380   007EAA  49                 	db	73
   381   007EAB  49                 	db	73
   382   007EAC  29                 	db	41
   383   007EAD  1E                 	db	30
   384   007EAE  06                 	db	6
   385   007EAF  09                 	db	9
   386   007EB0  09                 	db	9
   387   007EB1  06                 	db	6
   388   007EB2  00                 	db	0
   389   007EB3  08                 	db	8
   390   007EB4  08                 	db	8
   391   007EB5  08                 	db	8
   392   007EB6  08                 	db	8
   393   007EB7  08                 	db	8
   394   007EB8  7E                 	db	126
   395   007EB9  11                 	db	17
   396   007EBA  11                 	db	17
   397   007EBB  11                 	db	17
   398   007EBC  7E                 	db	126
   399   007EBD  7F                 	db	127
   400   007EBE  49                 	db	73
   401   007EBF  49                 	db	73
   402   007EC0  49                 	db	73
   403   007EC1  36                 	db	54
   404   007EC2  3E                 	db	62
   405   007EC3  41                 	db	65
   406   007EC4  41                 	db	65
   407   007EC5  41                 	db	65
   408   007EC6  22                 	db	34
   409   007EC7  7F                 	db	127
   410   007EC8  41                 	db	65
   411   007EC9  41                 	db	65
   412   007ECA  41                 	db	65
   413   007ECB  3E                 	db	62
   414   007ECC  7F                 	db	127
   415   007ECD  49                 	db	73
   416   007ECE  49                 	db	73
   417   007ECF  49                 	db	73
   418   007ED0  41                 	db	65
   419   007ED1  7F                 	db	127
   420   007ED2  09                 	db	9
   421   007ED3  09                 	db	9
   422   007ED4  09                 	db	9
   423   007ED5  01                 	db	1
   424   007ED6  3E                 	db	62
   425   007ED7  41                 	db	65
   426   007ED8  49                 	db	73
   427   007ED9  49                 	db	73
   428   007EDA  7A                 	db	122
   429   007EDB  7F                 	db	127
   430   007EDC  08                 	db	8
   431   007EDD  08                 	db	8
   432   007EDE  08                 	db	8
   433   007EDF  7F                 	db	127
   434   007EE0  00                 	db	0
   435   007EE1  41                 	db	65
   436   007EE2  7F                 	db	127
   437   007EE3  41                 	db	65
   438   007EE4  00                 	db	0
   439   007EE5  30                 	db	48
   440   007EE6  40                 	db	64
   441   007EE7  40                 	db	64
   442   007EE8  40                 	db	64
   443   007EE9  3F                 	db	63
   444   007EEA  7F                 	db	127
   445   007EEB  08                 	db	8
   446   007EEC  14                 	db	20
   447   007EED  22                 	db	34
   448   007EEE  41                 	db	65
   449   007EEF  7F                 	db	127
   450   007EF0  40                 	db	64
   451   007EF1  40                 	db	64
   452   007EF2  40                 	db	64
   453   007EF3  40                 	db	64
   454   007EF4  7F                 	db	127
   455   007EF5  02                 	db	2
   456   007EF6  04                 	db	4
   457   007EF7  02                 	db	2
   458   007EF8  7F                 	db	127
   459   007EF9  7F                 	db	127
   460   007EFA  04                 	db	4
   461   007EFB  08                 	db	8
   462   007EFC  10                 	db	16
   463   007EFD  7F                 	db	127
   464   007EFE  3E                 	db	62
   465   007EFF  41                 	db	65
   466   007F00  41                 	db	65
   467   007F01  41                 	db	65
   468   007F02  3E                 	db	62
   469   007F03  7F                 	db	127
   470   007F04  09                 	db	9
   471   007F05  09                 	db	9
   472   007F06  09                 	db	9
   473   007F07  06                 	db	6
   474   007F08  3E                 	db	62
   475   007F09  41                 	db	65
   476   007F0A  51                 	db	81
   477   007F0B  21                 	db	33
   478   007F0C  5E                 	db	94
   479   007F0D  7F                 	db	127
   480   007F0E  09                 	db	9
   481   007F0F  19                 	db	25
   482   007F10  29                 	db	41
   483   007F11  46                 	db	70
   484   007F12  46                 	db	70
   485   007F13  49                 	db	73
   486   007F14  49                 	db	73
   487   007F15  49                 	db	73
   488   007F16  31                 	db	49
   489   007F17  01                 	db	1
   490   007F18  01                 	db	1
   491   007F19  7F                 	db	127
   492   007F1A  01                 	db	1
   493   007F1B  01                 	db	1
   494   007F1C  3F                 	db	63
   495   007F1D  40                 	db	64
   496   007F1E  40                 	db	64
   497   007F1F  40                 	db	64
   498   007F20  3F                 	db	63
   499   007F21  1F                 	db	31
   500   007F22  20                 	db	32
   501   007F23  40                 	db	64
   502   007F24  20                 	db	32
   503   007F25  1F                 	db	31
   504   007F26  3F                 	db	63
   505   007F27  40                 	db	64
   506   007F28  38                 	db	56
   507   007F29  40                 	db	64
   508   007F2A  3F                 	db	63
   509   007F2B  63                 	db	99
   510   007F2C  14                 	db	20
   511   007F2D  08                 	db	8
   512   007F2E  14                 	db	20
   513   007F2F  63                 	db	99
   514   007F30  03                 	db	3
   515   007F31  04                 	db	4
   516   007F32  78                 	db	120
   517   007F33  04                 	db	4
   518   007F34  03                 	db	3
   519   007F35  47                 	db	71
   520   007F36  49                 	db	73
   521   007F37  51                 	db	81
   522   007F38  61                 	db	97
   523   007F39  41                 	db	65
   524   007F3A                     __end_of_font5x7:
   525                           	callstack 0
   526   007F3A  E5AE               	dw	58798
   527   007F3C  BF34               	dw	48948
   528   007F3E                     __end_of_qS1:
   529                           	callstack 0
   530   007F3E  D36B               	dw	54123
   531   007F40  BC0D               	dw	48141
   532   007F42                     __end_of_pS2:
   533                           	callstack 0
   534   007F42  13BA               	dw	5050
   535   007F44  BD2F               	dw	48431
   536   007F46                     __end_of_pS1:
   537                           	callstack 0
   538   007F46  AA75               	dw	43637
   539   007F48  3E2A               	dw	15914
   540   007F4A                     __end_of_pS0:
   541                           	callstack 0
   542   007F4A  0FDB               	dw	4059
   543   007F4C  3FC9               	dw	16329
   544   007F4E                     __end_of_pio2:
   545                           	callstack 0
   546   007C1A                     _RD2            set	31770
   547   007C19                     _RD1            set	31769
   548   007C18                     _RD0            set	31768
   549   007C1C                     _RD4            set	31772
   550   007C1F                     _RD7            set	31775
   551   007C1E                     _RD6            set	31774
   552   007C1D                     _RD5            set	31773
   553   007F81                     _INT2IF         set	32641
   554   007F84                     _INT2IE         set	32644
   555   007F80                     _INT1IF         set	32640
   556   007F83                     _INT1IE         set	32643
   557   007F97                     _GIE            set	32663
   558   007E11                     _GO_DONE        set	32273
   559   007E12                     _CHS0           set	32274
   560   007E13                     _CHS1           set	32275
   561   007E14                     _CHS2           set	32276
   562   007E15                     _CHS3           set	32277
   563   007E10                     _ADON           set	32272
   564   007E00                     _ADCS0          set	32256
   565   007E01                     _ADCS1          set	32257
   566   007E02                     _ADCS2          set	32258
   567   007E07                     _ADFM           set	32263
   568   007E08                     _PCFG0          set	32264
   569   007E09                     _PCFG1          set	32265
   570   007E0A                     _PCFG2          set	32266
   571   007E0B                     _PCFG3          set	32267
   572   007D61                     _TRMT           set	32097
   573   007D5C                     _CREN           set	32092
   574   007D5F                     _SPEN           set	32095
   575   007D65                     _TXEN           set	32101
   576   007D64                     _SYNC           set	32100
   577   007D62                     _BRGH           set	32098
   578   007F8C                     _INTEDG2        set	32652
   579   007F8D                     _INTEDG1        set	32653
   580   007CA9                     _TRISD1         set	31913
   581   007CA8                     _TRISD0         set	31912
   582   007C9D                     _TRISB5         set	31901
   583   007C9C                     _TRISB4         set	31900
   584   007C9B                     _TRISB3         set	31899
   585   007C9A                     _TRISB2         set	31898
   586   007CAF                     _TRISD7         set	31919
   587   007CAE                     _TRISD6         set	31918
   588   007CAD                     _TRISD5         set	31917
   589   007CAC                     _TRISD4         set	31916
   590   007C93                     _TRISA3         set	31891
   591   007C92                     _TRISA2         set	31890
   592   007C91                     _TRISA1         set	31889
   593   007C90                     _TRISA0         set	31888
   594   007C99                     _TRISB1         set	31897
   595   007C98                     _TRISB0         set	31896
   596   007CA7                     _TRISC7         set	31911
   597   007CA6                     _TRISC6         set	31910
   598   000FC3                     _ADRESL         set	4035
   599   000FC4                     _ADRESH         set	4036
   600   000FC9                     _SSPBUF         set	4041
   601   000FC5                     _SSPCON2bits    set	4037
   602   000FC7                     _SSPSTATbits    set	4039
   603   000FC7                     _SSPSTAT        set	4039
   604   000FC8                     _SSPADD         set	4040
   605   000FC5                     _SSPCON2        set	4037
   606   000FC6                     _SSPCON1        set	4038
   607   000FAD                     _TXREG          set	4013
   608   000FAF                     _SPBRG          set	4015
   609   007F4E                     STR_1:
   610   007F4E  0D                 	db	13
   611   007F4F  0A                 	db	10
   612   007F50  21                 	db	33
   613   007F51  21                 	db	33
   614   007F52  21                 	db	33
   615   007F53  20                 	db	32
   616   007F54  45                 	db	69	;'E'
   617   007F55  4D                 	db	77	;'M'
   618   007F56  45                 	db	69	;'E'
   619   007F57  52                 	db	82	;'R'
   620   007F58  47                 	db	71	;'G'
   621   007F59  45                 	db	69	;'E'
   622   007F5A  4E                 	db	78	;'N'
   623   007F5B  43                 	db	67	;'C'
   624   007F5C  59                 	db	89	;'Y'
   625   007F5D  20                 	db	32
   626   007F5E  53                 	db	83	;'S'
   627   007F5F  54                 	db	84	;'T'
   628   007F60  4F                 	db	79	;'O'
   629   007F61  50                 	db	80	;'P'
   630   007F62  20                 	db	32
   631   007F63  41                 	db	65	;'A'
   632   007F64  43                 	db	67	;'C'
   633   007F65  54                 	db	84	;'T'
   634   007F66  49                 	db	73	;'I'
   635   007F67  56                 	db	86	;'V'
   636   007F68  41                 	db	65	;'A'
   637   007F69  54                 	db	84	;'T'
   638   007F6A  45                 	db	69	;'E'
   639   007F6B  44                 	db	68	;'D'
   640   007F6C  20                 	db	32
   641   007F6D  21                 	db	33
   642   007F6E  21                 	db	33
   643   007F6F  21                 	db	33
   644   007F70  0D                 	db	13
   645   007F71  0A                 	db	10
   646   007F72  00                 	db	0
   647   007F73                     STR_4:
   648   007F73  0D                 	db	13
   649   007F74  0A                 	db	10
   650   007F75  21                 	db	33
   651   007F76  21                 	db	33
   652   007F77  21                 	db	33
   653   007F78  20                 	db	32
   654   007F79  53                 	db	83	;'S'
   655   007F7A  59                 	db	89	;'Y'
   656   007F7B  53                 	db	83	;'S'
   657   007F7C  54                 	db	84	;'T'
   658   007F7D  45                 	db	69	;'E'
   659   007F7E  4D                 	db	77	;'M'
   660   007F7F  20                 	db	32
   661   007F80  52                 	db	82	;'R'
   662   007F81  45                 	db	69	;'E'
   663   007F82  42                 	db	66	;'B'
   664   007F83  4F                 	db	79	;'O'
   665   007F84  4F                 	db	79	;'O'
   666   007F85  54                 	db	84	;'T'
   667   007F86  49                 	db	73	;'I'
   668   007F87  4E                 	db	78	;'N'
   669   007F88  47                 	db	71	;'G'
   670   007F89  20                 	db	32
   671   007F8A  21                 	db	33
   672   007F8B  21                 	db	33
   673   007F8C  21                 	db	33
   674   007F8D  0D                 	db	13
   675   007F8E  0A                 	db	10
   676   007F8F  00                 	db	0
   677   007F90                     STR_8:
   678   007F90  57                 	db	87	;'W'
   679   007F91  65                 	db	101	;'e'
   680   007F92  6C                 	db	108	;'l'
   681   007F93  63                 	db	99	;'c'
   682   007F94  6F                 	db	111	;'o'
   683   007F95  6D                 	db	109	;'m'
   684   007F96  65                 	db	101	;'e'
   685   007F97  20                 	db	32
   686   007F98  44                 	db	68	;'D'
   687   007F99  61                 	db	97	;'a'
   688   007F9A  66                 	db	102	;'f'
   689   007F9B  6E                 	db	110	;'n'
   690   007F9C  65                 	db	101	;'e'
   691   007F9D  21                 	db	33
   692   007F9E  0D                 	db	13
   693   007F9F  0A                 	db	10
   694   007FA0  00                 	db	0
   695   007FA1                     STR_10:
   696   007FA1  53                 	db	83	;'S'
   697   007FA2  79                 	db	121	;'y'
   698   007FA3  73                 	db	115	;'s'
   699   007FA4  74                 	db	116	;'t'
   700   007FA5  65                 	db	101	;'e'
   701   007FA6  6D                 	db	109	;'m'
   702   007FA7  20                 	db	32
   703   007FA8  73                 	db	115	;'s'
   704   007FA9  74                 	db	116	;'t'
   705   007FAA  61                 	db	97	;'a'
   706   007FAB  72                 	db	114	;'r'
   707   007FAC  74                 	db	116	;'t'
   708   007FAD  65                 	db	101	;'e'
   709   007FAE  64                 	db	100	;'d'
   710   007FAF  0D                 	db	13
   711   007FB0  0A                 	db	10
   712   007FB1  00                 	db	0
   713   007FB2                     STR_12:
   714   007FB2  42                 	db	66	;'B'
   715   007FB3  54                 	db	84	;'T'
   716   007FB4  20                 	db	32
   717   007FB5  41                 	db	65	;'A'
   718   007FB6  43                 	db	67	;'C'
   719   007FB7  54                 	db	84	;'T'
   720   007FB8  49                 	db	73	;'I'
   721   007FB9  56                 	db	86	;'V'
   722   007FBA  45                 	db	69	;'E'
   723   007FBB  00                 	db	0
   724   007FBC                     STR_5:
   725   007FBC  52                 	db	82	;'R'
   726   007FBD  45                 	db	69	;'E'
   727   007FBE  42                 	db	66	;'B'
   728   007FBF  4F                 	db	79	;'O'
   729   007FC0  4F                 	db	79	;'O'
   730   007FC1  54                 	db	84	;'T'
   731   007FC2  49                 	db	73	;'I'
   732   007FC3  4E                 	db	78	;'N'
   733   007FC4  47                 	db	71	;'G'
   734   007FC5  00                 	db	0
   735   007FC6                     STR_2:
   736   007FC6  45                 	db	69	;'E'
   737   007FC7  4D                 	db	77	;'M'
   738   007FC8  45                 	db	69	;'E'
   739   007FC9  52                 	db	82	;'R'
   740   007FCA  47                 	db	71	;'G'
   741   007FCB  45                 	db	69	;'E'
   742   007FCC  4E                 	db	78	;'N'
   743   007FCD  43                 	db	67	;'C'
   744   007FCE  59                 	db	89	;'Y'
   745   007FCF  00                 	db	0
   746   007FD0                     STR_11:
   747   007FD0  25                 	db	37
   748   007FD1  64                 	db	100	;'d'
   749   007FD2  2C                 	db	44
   750   007FD3  25                 	db	37
   751   007FD4  64                 	db	100	;'d'
   752   007FD5  0D                 	db	13
   753   007FD6  0A                 	db	10
   754   007FD7  00                 	db	0
   755   007FD8                     STR_6:
   756   007FD8  57                 	db	87	;'W'
   757   007FD9  45                 	db	69	;'E'
   758   007FDA  4C                 	db	76	;'L'
   759   007FDB  43                 	db	67	;'C'
   760   007FDC  4F                 	db	79	;'O'
   761   007FDD  4D                 	db	77	;'M'
   762   007FDE  45                 	db	69	;'E'
   763   007FDF  00                 	db	0
   764   007FE0                     STR_7:
   765   007FE0  44                 	db	68	;'D'
   766   007FE1  41                 	db	65	;'A'
   767   007FE2  46                 	db	70	;'F'
   768   007FE3  4E                 	db	78	;'N'
   769   007FE4  45                 	db	69	;'E'
   770   007FE5  00                 	db	0
   771   007FE6                     STR_3:
   772   007FE6  53                 	db	83	;'S'
   773   007FE7  54                 	db	84	;'T'
   774   007FE8  4F                 	db	79	;'O'
   775   007FE9  50                 	db	80	;'P'
   776   007FEA  00                 	db	0
   777   007FEB                     STR_15:
   778   007FEB  25                 	db	37
   779   007FEC  64                 	db	100	;'d'
   780   007FED  25                 	db	37
   781   007FEE  63                 	db	99	;'c'
   782   007FEF  00                 	db	0
   783   007FF0                     STR_14:
   784   007FF0  42                 	db	66	;'B'
   785   007FF1  54                 	db	84	;'T'
   786   007FF2  00                 	db	0
   787   007FF3                     STR_9:
   788   007FF3  2D                 	db	45
   789   007FF4  00                 	db	0
   790   007FF5                     STR_17:
   791   007FF5  42                 	db	66	;'B'
   792   007FF6  00                 	db	0
   793   007FF7                     STR_16:
   794   007FF7  46                 	db	70	;'F'
   795   007FF8  00                 	db	0
   796   007FF9                     STR_20:
   797   007FF9  4C                 	db	76	;'L'
   798   007FFA  00                 	db	0
   799   007FFB                     STR_19:
   800   007FFB  52                 	db	82	;'R'
   801   007FFC  00                 	db	0
   802   007FFD                     STR_18:
   803   007FFD  58                 	db	88	;'X'
   804   007FFE  00                 	db	0
   805   007FFD                     STR_21          equ	STR_18
   806   007F72                     STR_13          equ	STR_1+36
   807   007FFF  00                 	db	0	; dummy byte at the end
   808   007E76                     __smallconst    set	__pmediumconst
   809   007E76                     __mediumconst   set	__pmediumconst
   810   000002                     __activetblptr  equ	2
   811                           
   812                           ; #config settings
   813                           
   814                           	psect	cinit
   815   00354A                     __pcinit:
   816                           	callstack 0
   817   00354A                     start_initialization:
   818                           	callstack 0
   819   00354A                     __initialization:
   820                           	callstack 0
   821                           
   822                           ; Clear objects allocated to BANK1 (74 bytes)
   823   00354A  EE01  F05E         	lfsr	0,__pbssBANK1
   824   00354E  0E4A               	movlw	74
   825   003550                     clear_0:
   826   003550  6AEE               	clrf	postinc0,c
   827   003552  06E8               	decf	wreg,f,c
   828   003554  E1FD               	bnz	clear_0
   829                           
   830                           ; Clear objects allocated to BANK0 (1 bytes)
   831   003556  0100               	movlb	0
   832   003558  6BFF               	clrf	__pbssBANK0& (0+255),b
   833                           
   834                           ; Clear objects allocated to COMRAM (33 bytes)
   835   00355A  EE00  F035         	lfsr	0,__pbssCOMRAM
   836   00355E  0E21               	movlw	33
   837   003560                     clear_1:
   838   003560  6AEE               	clrf	postinc0,c
   839   003562  06E8               	decf	wreg,f,c
   840   003564  E1FD               	bnz	clear_1
   841   003566                     end_of_initialization:
   842                           	callstack 0
   843   003566                     __end_of__initialization:
   844                           	callstack 0
   845   003566  9056               	bcf	int$flags,0,c	;clear compiler interrupt flag (level 1)
   846   003568  9256               	bcf	int$flags,1,c	;clear compiler interrupt flag (level 2)
   847   00356A  0E00               	movlw	low (__Lmediumconst shr (0+16))
   848   00356C  6EF8               	movwf	tblptru,c
   849   00356E  0100               	movlb	0
   850   003570  EF79  F004         	goto	_main	;jump to C main() function
   851                           
   852                           	psect	bssCOMRAM
   853   000035                     __pbssCOMRAM:
   854                           	callstack 0
   855   000035                     _lastCycles:
   856                           	callstack 0
   857   000035                     	ds	20
   858   000049                     fabsf@F465:
   859                           	callstack 0
   860   000049                     	ds	4
   861   00004D                     OLED_DrawScaledChar@F4166:
   862                           	callstack 0
   863   00004D                     	ds	3
   864   000050                     _width:
   865                           	callstack 0
   866   000050                     	ds	2
   867   000052                     _prec:
   868                           	callstack 0
   869   000052                     	ds	2
   870   000054                     _errno:
   871                           	callstack 0
   872   000054                     	ds	2
   873                           
   874                           	psect	bssBANK0
   875   0000FF                     __pbssBANK0:
   876                           	callstack 0
   877   0000FF                     _flags:
   878                           	callstack 0
   879   0000FF                     	ds	1
   880                           
   881                           	psect	bssBANK1
   882   00015E                     __pbssBANK1:
   883                           	callstack 0
   884   00015E                     _dbuf:
   885                           	callstack 0
   886   00015E                     	ds	32
   887   00017E                     _emergency_stop_active:
   888                           	callstack 0
   889   00017E                     	ds	2
   890   000180                     _lastAngle:
   891                           	callstack 0
   892   000180                     	ds	20
   893   000194                     _lastBT:
   894                           	callstack 0
   895   000194                     	ds	20
   896                           
   897                           	psect	cstackBANK1
   898   000100                     __pcstackBANK1:
   899                           	callstack 0
   900   000100                     GY_ADC@rawy:
   901                           	callstack 0
   902                           
   903                           ; 4 bytes @ 0x0
   904   000100                     	ds	4
   905   000104                     GY_ADC@voltage:
   906                           	callstack 0
   907                           
   908                           ; 4 bytes @ 0x4
   909   000104                     	ds	4
   910   000108                     GY_ADC@angle:
   911                           	callstack 0
   912                           
   913                           ; 4 bytes @ 0x8
   914   000108                     	ds	4
   915   00010C                     _GY_ADC$1291:
   916                           	callstack 0
   917                           
   918                           ; 4 bytes @ 0xC
   919   00010C                     	ds	4
   920   000110                     GY_ADC@gAcc:
   921                           	callstack 0
   922                           
   923                           ; 4 bytes @ 0x10
   924   000110                     	ds	4
   925   000114                     main@buffer:
   926                           	callstack 0
   927                           
   928                           ; 30 bytes @ 0x14
   929   000114                     	ds	30
   930   000132                     main@btMsg:
   931                           	callstack 0
   932                           
   933                           ; 20 bytes @ 0x32
   934   000132                     	ds	20
   935   000146                     main@angleStr:
   936                           	callstack 0
   937                           
   938                           ; 20 bytes @ 0x46
   939   000146                     	ds	20
   940   00015A                     main@joystick:
   941                           	callstack 0
   942                           
   943                           ; 2 bytes @ 0x5A
   944   00015A                     	ds	2
   945   00015C                     main@angle:
   946                           	callstack 0
   947                           
   948                           ; 2 bytes @ 0x5C
   949   00015C                     	ds	2
   950                           
   951                           	psect	cstackBANK0
   952   000060                     __pcstackBANK0:
   953                           	callstack 0
   954   000060                     ?_strcmp:
   955                           	callstack 0
   956   000060                     ?___awdiv:
   957                           	callstack 0
   958   000060                     ?___awmod:
   959                           	callstack 0
   960   000060                     ?_fabsf:
   961                           	callstack 0
   962   000060                     ?_sqrtf:
   963                           	callstack 0
   964   000060                     ?___flneg:
   965                           	callstack 0
   966   000060                     ?___xxtofl:
   967                           	callstack 0
   968   000060                     UART_WriteChar@c:
   969                           	callstack 0
   970   000060                     ___awdiv@dividend:
   971                           	callstack 0
   972   000060                     ___awmod@dividend:
   973                           	callstack 0
   974   000060                     fputc@c:
   975                           	callstack 0
   976   000060                     strcmp@l:
   977                           	callstack 0
   978   000060                     strcpy@dest:
   979                           	callstack 0
   980   000060                     ___flge@ff1:
   981                           	callstack 0
   982   000060                     ___flneg@f1:
   983                           	callstack 0
   984   000060                     ___xxtofl@val:
   985                           	callstack 0
   986   000060                     fabsf@x:
   987                           	callstack 0
   988   000060                     sqrtf@x:
   989                           	callstack 0
   990   000060                     ??_I2C_Wait:
   991   000060                     ??_Config_ADC:
   992   000060                     
   993                           ; 1 bytes @ 0x0
   994   000060                     	ds	1
   995   000061                     I2C_Write@data:
   996                           	callstack 0
   997   000061                     UART_WriteString@s:
   998                           	callstack 0
   999   000061                     
  1000                           ; 1 bytes @ 0x1
  1001   000061                     	ds	1
  1002   000062                     OLED_Command@cmd:
  1003                           	callstack 0
  1004   000062                     fputc@fp:
  1005                           	callstack 0
  1006   000062                     ___awdiv@divisor:
  1007                           	callstack 0
  1008   000062                     ___awmod@divisor:
  1009                           	callstack 0
  1010   000062                     strcmp@r:
  1011                           	callstack 0
  1012   000062                     strcpy@src:
  1013                           	callstack 0
  1014   000062                     
  1015                           ; 1 bytes @ 0x2
  1016   000062                     	ds	1
  1017   000063                     OLED_ClearArea@endPage:
  1018                           	callstack 0
  1019   000063                     OLED_SetCursor@col:
  1020                           	callstack 0
  1021   000063                     ??_fputc:
  1022   000063                     ??_OLED_Init:
  1023                           
  1024                           ; 1 bytes @ 0x3
  1025   000063                     	ds	1
  1026   000064                     OLED_ClearArea@startCol:
  1027                           	callstack 0
  1028   000064                     OLED_SetCursor@page:
  1029                           	callstack 0
  1030   000064                     ___awdiv@counter:
  1031                           	callstack 0
  1032   000064                     ___awmod@counter:
  1033                           	callstack 0
  1034   000064                     strcpy@d:
  1035                           	callstack 0
  1036   000064                     ___flge@ff2:
  1037                           	callstack 0
  1038   000064                     fabsf@u:
  1039                           	callstack 0
  1040   000064                     ??_strcmp:
  1041   000064                     ??_sqrtf:
  1042   000064                     ??___xxtofl:
  1043                           
  1044                           ; 1 bytes @ 0x4
  1045   000064                     	ds	1
  1046   000065                     OLED_ClearArea@endCol:
  1047                           	callstack 0
  1048   000065                     OLED_DrawChar@start_page:
  1049                           	callstack 0
  1050   000065                     ___awdiv@sign:
  1051                           	callstack 0
  1052   000065                     ___awmod@sign:
  1053                           	callstack 0
  1054                           
  1055                           ; 1 bytes @ 0x5
  1056   000065                     	ds	1
  1057   000066                     ?_abs:
  1058                           	callstack 0
  1059   000066                     OLED_ClearArea@startPage:
  1060                           	callstack 0
  1061   000066                     OLED_DrawChar@start_col:
  1062                           	callstack 0
  1063   000066                     ___awdiv@quotient:
  1064                           	callstack 0
  1065   000066                     abs@a:
  1066                           	callstack 0
  1067   000066                     
  1068                           ; 1 bytes @ 0x6
  1069   000066                     	ds	1
  1070   000067                     OLED_ClearArea@col:
  1071                           	callstack 0
  1072   000067                     ??_OLED_DrawChar:
  1073                           
  1074                           ; 1 bytes @ 0x7
  1075   000067                     	ds	1
  1076   000068                     OLED_ClearArea@page:
  1077                           	callstack 0
  1078   000068                     OLED_DrawScaledChar@scale:
  1079                           	callstack 0
  1080   000068                     ___xxtofl@sign:
  1081                           	callstack 0
  1082   000068                     ??_abs:
  1083   000068                     ??___flge:
  1084                           
  1085                           ; 1 bytes @ 0x8
  1086   000068                     	ds	1
  1087   000069                     OLED_DrawScaledChar@start_page:
  1088                           	callstack 0
  1089   000069                     OLED_DrawChar@colData:
  1090                           	callstack 0
  1091   000069                     ___xxtofl@exp:
  1092                           	callstack 0
  1093   000069                     sqrtf@s:
  1094                           	callstack 0
  1095                           
  1096                           ; 4 bytes @ 0x9
  1097   000069                     	ds	1
  1098   00006A                     OLED_DrawScaledChar@start_col:
  1099                           	callstack 0
  1100   00006A                     OLED_DrawChar@idx:
  1101                           	callstack 0
  1102   00006A                     vfpfcnvrt@fp:
  1103                           	callstack 0
  1104   00006A                     ___xxtofl@arg:
  1105                           	callstack 0
  1106                           
  1107                           ; 4 bytes @ 0xA
  1108   00006A                     	ds	1
  1109   00006B                     OLED_DrawChar@col:
  1110                           	callstack 0
  1111   00006B                     vfpfcnvrt@fmt:
  1112                           	callstack 0
  1113   00006B                     ??_OLED_DrawScaledChar:
  1114                           
  1115                           ; 1 bytes @ 0xB
  1116   00006B                     	ds	1
  1117   00006C                     OLED_DrawChar@c:
  1118                           	callstack 0
  1119   00006C                     vfpfcnvrt@ap:
  1120                           	callstack 0
  1121                           
  1122                           ; 1 bytes @ 0xC
  1123   00006C                     	ds	1
  1124   00006D                     OLED_Print@str:
  1125                           	callstack 0
  1126   00006D                     OLED_DrawScaledChar@scaled_col:
  1127                           	callstack 0
  1128   00006D                     sqrtf@i:
  1129                           	callstack 0
  1130   00006D                     ??_vfpfcnvrt:
  1131                           
  1132                           ; 1 bytes @ 0xD
  1133   00006D                     	ds	1
  1134   00006E                     ?___flmul:
  1135                           	callstack 0
  1136   00006E                     ___flmul@b:
  1137                           	callstack 0
  1138                           
  1139                           ; 4 bytes @ 0xE
  1140   00006E                     	ds	1
  1141   00006F                     OLED_Print@page:
  1142                           	callstack 0
  1143   00006F                     vfpfcnvrt@done:
  1144                           	callstack 0
  1145                           
  1146                           ; 1 bytes @ 0xF
  1147   00006F                     	ds	1
  1148   000070                     OLED_DrawScaledChar@colData:
  1149                           	callstack 0
  1150   000070                     OLED_Print@col:
  1151                           	callstack 0
  1152   000070                     vfpfcnvrt@cp:
  1153                           	callstack 0
  1154                           
  1155                           ; 2 bytes @ 0x10
  1156   000070                     	ds	1
  1157   000071                     OLED_DrawScaledChar@pixel:
  1158                           	callstack 0
  1159   000071                     sqrtf@q:
  1160                           	callstack 0
  1161   000071                     
  1162                           ; 1 bytes @ 0x11
  1163   000071                     	ds	1
  1164   000072                     OLED_DrawScaledChar@outPage:
  1165                           	callstack 0
  1166   000072                     ___flmul@a:
  1167                           	callstack 0
  1168   000072                     vfpfcnvrt@convarg:
  1169                           	callstack 0
  1170                           
  1171                           ; 4 bytes @ 0x12
  1172   000072                     	ds	1
  1173   000073                     OLED_DrawScaledChar@outBit:
  1174                           	callstack 0
  1175                           
  1176                           ; 1 bytes @ 0x13
  1177   000073                     	ds	1
  1178   000074                     OLED_DrawScaledChar@v:
  1179                           	callstack 0
  1180                           
  1181                           ; 1 bytes @ 0x14
  1182   000074                     	ds	1
  1183   000075                     OLED_DrawScaledChar@idx:
  1184                           	callstack 0
  1185   000075                     sqrtf@t:
  1186                           	callstack 0
  1187                           
  1188                           ; 4 bytes @ 0x15
  1189   000075                     	ds	1
  1190   000076                     OLED_DrawScaledChar@rowOut:
  1191                           	callstack 0
  1192   000076                     vfpfcnvrt@c:
  1193                           	callstack 0
  1194   000076                     ??___flmul:
  1195                           
  1196                           ; 1 bytes @ 0x16
  1197   000076                     	ds	1
  1198   000077                     ?_vfprintf:
  1199                           	callstack 0
  1200   000077                     OLED_DrawScaledChar@x:
  1201                           	callstack 0
  1202   000077                     vfprintf@fp:
  1203                           	callstack 0
  1204                           
  1205                           ; 1 bytes @ 0x17
  1206   000077                     	ds	1
  1207   000078                     OLED_DrawScaledChar@bit:
  1208                           	callstack 0
  1209   000078                     vfprintf@fmt:
  1210                           	callstack 0
  1211                           
  1212                           ; 2 bytes @ 0x18
  1213   000078                     	ds	1
  1214   000079                     OLED_DrawScaledChar@p:
  1215                           	callstack 0
  1216   000079                     sqrtf@m:
  1217                           	callstack 0
  1218                           
  1219                           ; 4 bytes @ 0x19
  1220   000079                     	ds	1
  1221   00007A                     OLED_DrawScaledChar@col:
  1222                           	callstack 0
  1223   00007A                     ___flmul@sign:
  1224                           	callstack 0
  1225   00007A                     vfprintf@ap:
  1226                           	callstack 0
  1227                           
  1228                           ; 1 bytes @ 0x1A
  1229   00007A                     	ds	1
  1230   00007B                     OLED_DrawScaledChar@c:
  1231                           	callstack 0
  1232   00007B                     vfprintf@cfmt:
  1233                           	callstack 0
  1234   00007B                     ___flmul@grs:
  1235                           	callstack 0
  1236   00007B                     
  1237                           ; 1 bytes @ 0x1B
  1238   00007B                     	ds	1
  1239   00007C                     OLED_DrawCentered2x_AtPage@str:
  1240                           	callstack 0
  1241                           
  1242                           ; 2 bytes @ 0x1C
  1243   00007C                     	ds	1
  1244   00007D                     ?_sprintf:
  1245                           	callstack 0
  1246   00007D                     sprintf@s:
  1247                           	callstack 0
  1248   00007D                     sqrtf@r:
  1249                           	callstack 0
  1250                           
  1251                           ; 4 bytes @ 0x1D
  1252   00007D                     	ds	1
  1253   00007E                     OLED_DrawCentered2x_AtPage@page:
  1254                           	callstack 0
  1255                           
  1256                           ; 1 bytes @ 0x1E
  1257   00007E                     	ds	1
  1258   00007F                     ___flmul@aexp:
  1259                           	callstack 0
  1260   00007F                     sprintf@fmt:
  1261                           	callstack 0
  1262   00007F                     ??_OLED_DrawCentered2x_AtPage:
  1263                           
  1264                           ; 1 bytes @ 0x1F
  1265   00007F                     	ds	1
  1266   000080                     ___flmul@bexp:
  1267                           	callstack 0
  1268                           
  1269                           ; 1 bytes @ 0x20
  1270   000080                     	ds	1
  1271   000081                     OLED_DrawCentered2x_AtPage@tmp:
  1272                           	callstack 0
  1273   000081                     ___flmul@prod:
  1274                           	callstack 0
  1275   000081                     sqrtf@ix:
  1276                           	callstack 0
  1277                           
  1278                           ; 4 bytes @ 0x21
  1279   000081                     	ds	2
  1280   000083                     OLED_DrawCentered2x_AtPage@totalWidth:
  1281                           	callstack 0
  1282                           
  1283                           ; 1 bytes @ 0x23
  1284   000083                     	ds	1
  1285   000084                     OLED_DrawCentered2x_AtPage@startCol:
  1286                           	callstack 0
  1287                           
  1288                           ; 1 bytes @ 0x24
  1289   000084                     	ds	1
  1290   000085                     OLED_DrawCentered2x_AtPage@charWidth:
  1291                           	callstack 0
  1292   000085                     sprintf@ap:
  1293                           	callstack 0
  1294   000085                     ___flmul@temp:
  1295                           	callstack 0
  1296   000085                     
  1297                           ; 1 bytes @ 0x25
  1298   000085                     	ds	1
  1299   000086                     OLED_DrawCentered2x_AtPage@len:
  1300                           	callstack 0
  1301   000086                     sprintf@f:
  1302                           	callstack 0
  1303                           
  1304                           ; 11 bytes @ 0x26
  1305   000086                     	ds	1
  1306   000087                     ?___fladd:
  1307                           	callstack 0
  1308   000087                     OLED_DrawCentered2x_AtPage@i:
  1309                           	callstack 0
  1310   000087                     ___fladd@b:
  1311                           	callstack 0
  1312                           
  1313                           ; 4 bytes @ 0x27
  1314   000087                     	ds	4
  1315   00008B                     ___fladd@a:
  1316                           	callstack 0
  1317                           
  1318                           ; 4 bytes @ 0x2B
  1319   00008B                     	ds	4
  1320   00008F                     ??___fladd:
  1321                           
  1322                           ; 1 bytes @ 0x2F
  1323   00008F                     	ds	4
  1324   000093                     ___fladd@signs:
  1325                           	callstack 0
  1326                           
  1327                           ; 1 bytes @ 0x33
  1328   000093                     	ds	1
  1329   000094                     ___fladd@aexp:
  1330                           	callstack 0
  1331                           
  1332                           ; 1 bytes @ 0x34
  1333   000094                     	ds	1
  1334   000095                     ___fladd@bexp:
  1335                           	callstack 0
  1336                           
  1337                           ; 1 bytes @ 0x35
  1338   000095                     	ds	1
  1339   000096                     ___fladd@grs:
  1340                           	callstack 0
  1341                           
  1342                           ; 1 bytes @ 0x36
  1343   000096                     	ds	1
  1344   000097                     ?___fldiv:
  1345                           	callstack 0
  1346   000097                     ?_Joystick_ADC:
  1347                           	callstack 0
  1348   000097                     ___fldiv@b:
  1349                           	callstack 0
  1350                           
  1351                           ; 4 bytes @ 0x37
  1352   000097                     	ds	4
  1353   00009B                     Joystick_ADC@value:
  1354                           	callstack 0
  1355   00009B                     ___fldiv@a:
  1356                           	callstack 0
  1357   00009B                     
  1358                           ; 1 bytes @ 0x3B
  1359   00009B                     	ds	4
  1360   00009F                     ??___fldiv:
  1361                           
  1362                           ; 1 bytes @ 0x3F
  1363   00009F                     	ds	4
  1364   0000A3                     ___fldiv@rem:
  1365                           	callstack 0
  1366                           
  1367                           ; 4 bytes @ 0x43
  1368   0000A3                     	ds	4
  1369   0000A7                     ___fldiv@sign:
  1370                           	callstack 0
  1371                           
  1372                           ; 1 bytes @ 0x47
  1373   0000A7                     	ds	1
  1374   0000A8                     ___fldiv@new_exp:
  1375                           	callstack 0
  1376                           
  1377                           ; 2 bytes @ 0x48
  1378   0000A8                     	ds	2
  1379   0000AA                     ___fldiv@grs:
  1380                           	callstack 0
  1381                           
  1382                           ; 4 bytes @ 0x4A
  1383   0000AA                     	ds	4
  1384   0000AE                     ___fldiv@bexp:
  1385                           	callstack 0
  1386                           
  1387                           ; 1 bytes @ 0x4E
  1388   0000AE                     	ds	1
  1389   0000AF                     ___fldiv@aexp:
  1390                           	callstack 0
  1391                           
  1392                           ; 1 bytes @ 0x4F
  1393   0000AF                     	ds	1
  1394   0000B0                     ?_R:
  1395                           	callstack 0
  1396   0000B0                     R@z:
  1397                           	callstack 0
  1398                           
  1399                           ; 4 bytes @ 0x50
  1400   0000B0                     	ds	4
  1401   0000B4                     R@p:
  1402                           	callstack 0
  1403   0000B4                     
  1404                           ; 1 bytes @ 0x54
  1405   0000B4                     	ds	4
  1406   0000B8                     R@q:
  1407                           	callstack 0
  1408                           
  1409                           ; 4 bytes @ 0x58
  1410   0000B8                     	ds	4
  1411   0000BC                     _R$1292:
  1412                           	callstack 0
  1413                           
  1414                           ; 4 bytes @ 0x5C
  1415   0000BC                     	ds	4
  1416   0000C0                     _R$1293:
  1417                           	callstack 0
  1418                           
  1419                           ; 4 bytes @ 0x60
  1420   0000C0                     	ds	4
  1421   0000C4                     ?___flsub:
  1422                           	callstack 0
  1423   0000C4                     ___flsub@b:
  1424                           	callstack 0
  1425                           
  1426                           ; 4 bytes @ 0x64
  1427   0000C4                     	ds	4
  1428   0000C8                     ___flsub@a:
  1429                           	callstack 0
  1430                           
  1431                           ; 4 bytes @ 0x68
  1432   0000C8                     	ds	4
  1433   0000CC                     ?_asinf:
  1434                           	callstack 0
  1435   0000CC                     asinf@x:
  1436                           	callstack 0
  1437   0000CC                     
  1438                           ; 1 bytes @ 0x6C
  1439   0000CC                     	ds	4
  1440   0000D0                     _asinf$1294:
  1441                           	callstack 0
  1442   0000D0                     
  1443                           ; 1 bytes @ 0x70
  1444   0000D0                     	ds	4
  1445   0000D4                     _asinf$1295:
  1446                           	callstack 0
  1447                           
  1448                           ; 4 bytes @ 0x74
  1449   0000D4                     	ds	4
  1450   0000D8                     _asinf$1296:
  1451                           	callstack 0
  1452                           
  1453                           ; 4 bytes @ 0x78
  1454   0000D8                     	ds	4
  1455   0000DC                     _asinf$1297:
  1456                           	callstack 0
  1457                           
  1458                           ; 4 bytes @ 0x7C
  1459   0000DC                     	ds	4
  1460   0000E0                     asinf@sign:
  1461                           	callstack 0
  1462                           
  1463                           ; 1 bytes @ 0x80
  1464   0000E0                     	ds	1
  1465   0000E1                     asinf@s:
  1466                           	callstack 0
  1467                           
  1468                           ; 4 bytes @ 0x81
  1469   0000E1                     	ds	4
  1470   0000E5                     asinf@z:
  1471                           	callstack 0
  1472                           
  1473                           ; 4 bytes @ 0x85
  1474   0000E5                     	ds	4
  1475   0000E9                     asinf@ix:
  1476                           	callstack 0
  1477                           
  1478                           ; 4 bytes @ 0x89
  1479   0000E9                     	ds	4
  1480   0000ED                     ?_GY_ADC:
  1481                           	callstack 0
  1482                           
  1483                           ; 4 bytes @ 0x8D
  1484   0000ED                     	ds	4
  1485   0000F1                     ?___fltol:
  1486                           	callstack 0
  1487   0000F1                     ___fltol@f1:
  1488                           	callstack 0
  1489   0000F1                     
  1490                           ; 1 bytes @ 0x91
  1491   0000F1                     	ds	4
  1492   0000F5                     ??___fltol:
  1493                           
  1494                           ; 1 bytes @ 0x95
  1495   0000F5                     	ds	4
  1496   0000F9                     ___fltol@sign1:
  1497                           	callstack 0
  1498                           
  1499                           ; 1 bytes @ 0x99
  1500   0000F9                     	ds	1
  1501   0000FA                     ___fltol@exp1:
  1502                           	callstack 0
  1503                           
  1504                           ; 1 bytes @ 0x9A
  1505   0000FA                     	ds	1
  1506   0000FB                     Demux_control@angleCondition:
  1507                           	callstack 0
  1508   0000FB                     
  1509                           ; 1 bytes @ 0x9B
  1510   0000FB                     	ds	2
  1511   0000FD                     ??_main:
  1512                           
  1513                           ; 1 bytes @ 0x9D
  1514   0000FD                     	ds	2
  1515                           
  1516                           	psect	cstackCOMRAM
  1517   000001                     __pcstackCOMRAM:
  1518                           	callstack 0
  1519   000001                     ?i2___awdiv:
  1520                           	callstack 0
  1521   000001                     i2UART_WriteChar@c:
  1522                           	callstack 0
  1523   000001                     i2___awdiv@dividend:
  1524                           	callstack 0
  1525   000001                     ??i2_I2C_Wait:
  1526                           
  1527                           ; 1 bytes @ 0x0
  1528   000001                     	ds	1
  1529   000002                     i2I2C_Write@data:
  1530                           	callstack 0
  1531   000002                     i2UART_WriteString@s:
  1532                           	callstack 0
  1533   000002                     
  1534                           ; 1 bytes @ 0x1
  1535   000002                     	ds	1
  1536   000003                     i2OLED_Command@cmd:
  1537                           	callstack 0
  1538   000003                     i2___awdiv@divisor:
  1539                           	callstack 0
  1540   000003                     
  1541                           ; 1 bytes @ 0x2
  1542   000003                     	ds	1
  1543   000004                     i2OLED_ClearArea@endPage:
  1544                           	callstack 0
  1545   000004                     i2OLED_SetCursor@col:
  1546                           	callstack 0
  1547   000004                     
  1548                           ; 1 bytes @ 0x3
  1549   000004                     	ds	1
  1550   000005                     i2OLED_ClearArea@startCol:
  1551                           	callstack 0
  1552   000005                     i2OLED_SetCursor@page:
  1553                           	callstack 0
  1554   000005                     i2___awdiv@counter:
  1555                           	callstack 0
  1556   000005                     
  1557                           ; 1 bytes @ 0x4
  1558   000005                     	ds	1
  1559   000006                     i2OLED_ClearArea@endCol:
  1560                           	callstack 0
  1561   000006                     i2___awdiv@sign:
  1562                           	callstack 0
  1563                           
  1564                           ; 1 bytes @ 0x5
  1565   000006                     	ds	1
  1566   000007                     i2OLED_ClearArea@startPage:
  1567                           	callstack 0
  1568   000007                     i2___awdiv@quotient:
  1569                           	callstack 0
  1570   000007                     
  1571                           ; 1 bytes @ 0x6
  1572   000007                     	ds	1
  1573   000008                     i2OLED_ClearArea@col:
  1574                           	callstack 0
  1575                           
  1576                           ; 1 bytes @ 0x7
  1577   000008                     	ds	1
  1578   000009                     i2OLED_ClearArea@page:
  1579                           	callstack 0
  1580   000009                     i2OLED_DrawScaledChar@scale:
  1581                           	callstack 0
  1582                           
  1583                           ; 1 bytes @ 0x8
  1584   000009                     	ds	1
  1585   00000A                     i2OLED_DrawScaledChar@start_page:
  1586                           	callstack 0
  1587                           
  1588                           ; 1 bytes @ 0x9
  1589   00000A                     	ds	1
  1590   00000B                     i2OLED_DrawScaledChar@start_col:
  1591                           	callstack 0
  1592                           
  1593                           ; 1 bytes @ 0xA
  1594   00000B                     	ds	1
  1595   00000C                     ??i2_OLED_DrawScaledChar:
  1596                           
  1597                           ; 1 bytes @ 0xB
  1598   00000C                     	ds	2
  1599   00000E                     i2OLED_DrawScaledChar@scaled_col:
  1600                           	callstack 0
  1601                           
  1602                           ; 3 bytes @ 0xD
  1603   00000E                     	ds	3
  1604   000011                     i2OLED_DrawScaledChar@colData:
  1605                           	callstack 0
  1606                           
  1607                           ; 1 bytes @ 0x10
  1608   000011                     	ds	1
  1609   000012                     i2OLED_DrawScaledChar@pixel:
  1610                           	callstack 0
  1611                           
  1612                           ; 1 bytes @ 0x11
  1613   000012                     	ds	1
  1614   000013                     i2OLED_DrawScaledChar@outPage:
  1615                           	callstack 0
  1616                           
  1617                           ; 1 bytes @ 0x12
  1618   000013                     	ds	1
  1619   000014                     i2OLED_DrawScaledChar@outBit:
  1620                           	callstack 0
  1621                           
  1622                           ; 1 bytes @ 0x13
  1623   000014                     	ds	1
  1624   000015                     i2OLED_DrawScaledChar@v:
  1625                           	callstack 0
  1626                           
  1627                           ; 1 bytes @ 0x14
  1628   000015                     	ds	1
  1629   000016                     i2OLED_DrawScaledChar@idx:
  1630                           	callstack 0
  1631                           
  1632                           ; 1 bytes @ 0x15
  1633   000016                     	ds	1
  1634   000017                     i2OLED_DrawScaledChar@rowOut:
  1635                           	callstack 0
  1636                           
  1637                           ; 1 bytes @ 0x16
  1638   000017                     	ds	1
  1639   000018                     i2OLED_DrawScaledChar@x:
  1640                           	callstack 0
  1641                           
  1642                           ; 1 bytes @ 0x17
  1643   000018                     	ds	1
  1644   000019                     i2OLED_DrawScaledChar@bit:
  1645                           	callstack 0
  1646                           
  1647                           ; 1 bytes @ 0x18
  1648   000019                     	ds	1
  1649   00001A                     i2OLED_DrawScaledChar@p:
  1650                           	callstack 0
  1651                           
  1652                           ; 1 bytes @ 0x19
  1653   00001A                     	ds	1
  1654   00001B                     i2OLED_DrawScaledChar@col:
  1655                           	callstack 0
  1656                           
  1657                           ; 1 bytes @ 0x1A
  1658   00001B                     	ds	1
  1659   00001C                     i2OLED_DrawScaledChar@c:
  1660                           	callstack 0
  1661                           
  1662                           ; 1 bytes @ 0x1B
  1663   00001C                     	ds	1
  1664   00001D                     i2OLED_DrawCentered2x_AtPage@str:
  1665                           	callstack 0
  1666                           
  1667                           ; 2 bytes @ 0x1C
  1668   00001D                     	ds	2
  1669   00001F                     i2OLED_DrawCentered2x_AtPage@page:
  1670                           	callstack 0
  1671                           
  1672                           ; 1 bytes @ 0x1E
  1673   00001F                     	ds	1
  1674   000020                     ??i2_OLED_DrawCentered2x_AtPage:
  1675                           
  1676                           ; 1 bytes @ 0x1F
  1677   000020                     	ds	2
  1678   000022                     i2OLED_DrawCentered2x_AtPage@tmp:
  1679                           	callstack 0
  1680                           
  1681                           ; 2 bytes @ 0x21
  1682   000022                     	ds	2
  1683   000024                     i2OLED_DrawCentered2x_AtPage@totalWidth:
  1684                           	callstack 0
  1685                           
  1686                           ; 1 bytes @ 0x23
  1687   000024                     	ds	1
  1688   000025                     i2OLED_DrawCentered2x_AtPage@startCol:
  1689                           	callstack 0
  1690                           
  1691                           ; 1 bytes @ 0x24
  1692   000025                     	ds	1
  1693   000026                     i2OLED_DrawCentered2x_AtPage@charWidth:
  1694                           	callstack 0
  1695                           
  1696                           ; 1 bytes @ 0x25
  1697   000026                     	ds	1
  1698   000027                     i2OLED_DrawCentered2x_AtPage@len:
  1699                           	callstack 0
  1700                           
  1701                           ; 1 bytes @ 0x26
  1702   000027                     	ds	1
  1703   000028                     i2OLED_DrawCentered2x_AtPage@i:
  1704                           	callstack 0
  1705                           
  1706                           ; 1 bytes @ 0x27
  1707   000028                     	ds	1
  1708   000029                     ??_ISR:
  1709                           
  1710                           ; 1 bytes @ 0x28
  1711   000029                     	ds	12
  1712                           
  1713 ;;
  1714 ;;Main: autosize = 0, tempsize = 2, incstack = 0, save=0
  1715 ;;
  1716 ;; *************** function _main *****************
  1717 ;; Defined at:
  1718 ;;		line 513 in file "main.c"
  1719 ;; Parameters:    Size  Location     Type
  1720 ;;		None
  1721 ;; Auto vars:     Size  Location     Type
  1722 ;;  angleStr       20   70[BANK1 ] unsigned char [20]
  1723 ;;  btMsg          20   50[BANK1 ] unsigned char [20]
  1724 ;;  buffer         30   20[BANK1 ] unsigned char [30]
  1725 ;;  angle           2   92[BANK1 ] int 
  1726 ;;  joystick        2   90[BANK1 ] int 
  1727 ;; Return value:  Size  Location     Type
  1728 ;;                  1    wreg      void 
  1729 ;; Registers used:
  1730 ;;		wreg, fsr1l, fsr1h, fsr2l, fsr2h, status,2, status,0, tblptrl, tblptrh, tblptru, prodl, prodh, cstack
  1731 ;; Tracked objects:
  1732 ;;		On entry : 0/0
  1733 ;;		On exit  : 0/0
  1734 ;;		Unchanged: 0/0
  1735 ;; Data sizes:     COMRAM   BANK0   BANK1   BANK2   BANK3   BANK4   BANK5   BANK6   BANK7
  1736 ;;      Params:         0       0       0       0       0       0       0       0       0
  1737 ;;      Locals:         0       0      74       0       0       0       0       0       0
  1738 ;;      Temps:          0       2       0       0       0       0       0       0       0
  1739 ;;      Totals:         0       2      74       0       0       0       0       0       0
  1740 ;;Total ram usage:       76 bytes
  1741 ;; Hardware stack levels required when called: 13
  1742 ;; This function calls:
  1743 ;;		_Config_ADC
  1744 ;;		_Demux_control
  1745 ;;		_Enable_Interrupts
  1746 ;;		_GY_ADC
  1747 ;;		_I2C_Init
  1748 ;;		_Init_ports
  1749 ;;		_Joystick_ADC
  1750 ;;		_OLED_ClearArea
  1751 ;;		_OLED_DrawCentered2x_AtPage
  1752 ;;		_OLED_Init
  1753 ;;		_OLED_Print
  1754 ;;		_UART_Init
  1755 ;;		_UART_WriteString
  1756 ;;		___fltol
  1757 ;;		_sprintf
  1758 ;;		_strcmp
  1759 ;;		_strcpy
  1760 ;; This function is called by:
  1761 ;;		Startup code after reset
  1762 ;; This function uses a non-reentrant model
  1763 ;;
  1764                           
  1765                           	psect	text0
  1766   0008F2                     __ptext0:
  1767                           	callstack 0
  1768   0008F2                     _main:
  1769                           	callstack 18
  1770   0008F2                     
  1771                           ;main.c: 514:     Init_ports();
  1772   0008F2  ECBA  F01A         	call	_Init_ports	;wreg free
  1773   0008F6                     
  1774                           ;main.c: 515:     UART_Init();
  1775   0008F6  EC98  F01B         	call	_UART_Init	;wreg free
  1776   0008FA                     
  1777                           ;main.c: 516:     I2C_Init();
  1778   0008FA  ECA0  F01B         	call	_I2C_Init	;wreg free
  1779   0008FE                     
  1780                           ;main.c: 517:     OLED_Init();
  1781   0008FE  ECD6  F017         	call	_OLED_Init	;wreg free
  1782   000902                     
  1783                           ;main.c: 518:     Config_ADC();
  1784   000902  EC8F  F01A         	call	_Config_ADC	;wreg free
  1785   000906                     
  1786                           ;main.c: 519:     Enable_Interrupts();
  1787   000906  ECA7  F01B         	call	_Enable_Interrupts	;wreg free
  1788   00090A                     
  1789                           ;main.c: 520:     OLED_ClearArea(0, 7, 0, 127);
  1790   00090A  0E07               	movlw	7
  1791   00090C  0100               	movlb	0	; () banked
  1792   00090E  6F63               	movwf	OLED_ClearArea@endPage& (0+255),b
  1793   000910  0E00               	movlw	0
  1794   000912  6F64               	movwf	OLED_ClearArea@startCol& (0+255),b
  1795   000914  0E7F               	movlw	127
  1796   000916  6F65               	movwf	OLED_ClearArea@endCol& (0+255),b
  1797   000918  0E00               	movlw	0
  1798   00091A  EC85  F018         	call	_OLED_ClearArea
  1799   00091E                     
  1800                           ;main.c: 522:     _delay((unsigned long)((200)*(16000000/4000.0)));
  1801   00091E  0E05               	movlw	5
  1802   000920  0100               	movlb	0	; () banked
  1803   000922  6FFE               	movwf	(??_main+1)& (0+255),b
  1804   000924  0E0F               	movlw	15
  1805   000926  6FFD               	movwf	??_main& (0+255),b
  1806   000928  0EF1               	movlw	241
  1807   00092A                     u5437:
  1808   00092A  2EE8               	decfsz	wreg,f,c
  1809   00092C  D7FE               	bra	u5437
  1810   00092E  2FFD               	decfsz	??_main& (0+255),f,b
  1811   000930  D7FC               	bra	u5437
  1812   000932  2FFE               	decfsz	(??_main+1)& (0+255),f,b
  1813   000934  D7FA               	bra	u5437
  1814   000936                     
  1815                           ;main.c: 523:     OLED_DrawCentered2x_AtPage("WELCOME", 2);
  1816   000936  0ED8               	movlw	low STR_6
  1817   000938  0100               	movlb	0	; () banked
  1818   00093A  6F7C               	movwf	OLED_DrawCentered2x_AtPage@str& (0+255),b
  1819   00093C  0E7F               	movlw	high STR_6
  1820   00093E  6F7D               	movwf	(OLED_DrawCentered2x_AtPage@str+1)& (0+255),b
  1821   000940  0E02               	movlw	2
  1822   000942  6F7E               	movwf	OLED_DrawCentered2x_AtPage@page& (0+255),b
  1823   000944  EC80  F015         	call	_OLED_DrawCentered2x_AtPage	;wreg free
  1824   000948                     
  1825                           ;main.c: 524:     _delay((unsigned long)((50)*(16000000/4000.0)));
  1826   000948  0E02               	movlw	2
  1827   00094A  0100               	movlb	0	; () banked
  1828   00094C  6FFE               	movwf	(??_main+1)& (0+255),b
  1829   00094E  0E04               	movlw	4
  1830   000950  6FFD               	movwf	??_main& (0+255),b
  1831   000952  0EBA               	movlw	186
  1832   000954                     u5447:
  1833   000954  2EE8               	decfsz	wreg,f,c
  1834   000956  D7FE               	bra	u5447
  1835   000958  2FFD               	decfsz	??_main& (0+255),f,b
  1836   00095A  D7FC               	bra	u5447
  1837   00095C  2FFE               	decfsz	(??_main+1)& (0+255),f,b
  1838   00095E  D7FA               	bra	u5447
  1839   000960  0000               	nop	
  1840   000962                     
  1841                           ;main.c: 525:     OLED_DrawCentered2x_AtPage("DAFNE", 4);
  1842   000962  0EE0               	movlw	low STR_7
  1843   000964  0100               	movlb	0	; () banked
  1844   000966  6F7C               	movwf	OLED_DrawCentered2x_AtPage@str& (0+255),b
  1845   000968  0E7F               	movlw	high STR_7
  1846   00096A  6F7D               	movwf	(OLED_DrawCentered2x_AtPage@str+1)& (0+255),b
  1847   00096C  0E04               	movlw	4
  1848   00096E  6F7E               	movwf	OLED_DrawCentered2x_AtPage@page& (0+255),b
  1849   000970  EC80  F015         	call	_OLED_DrawCentered2x_AtPage	;wreg free
  1850   000974                     
  1851                           ;main.c: 526:     UART_WriteString("Welcome Dafne!\r\n");
  1852   000974  0E90               	movlw	low STR_8
  1853   000976  0100               	movlb	0	; () banked
  1854   000978  6F61               	movwf	UART_WriteString@s& (0+255),b
  1855   00097A  0E7F               	movlw	high STR_8
  1856   00097C  6F62               	movwf	(UART_WriteString@s+1)& (0+255),b
  1857   00097E  EC36  F019         	call	_UART_WriteString	;wreg free
  1858   000982                     
  1859                           ;main.c: 527:     _delay((unsigned long)((2000)*(16000000/4000.0)));
  1860   000982  0E29               	movlw	41
  1861   000984  0100               	movlb	0	; () banked
  1862   000986  6FFE               	movwf	(??_main+1)& (0+255),b
  1863   000988  0E96               	movlw	150
  1864   00098A  6FFD               	movwf	??_main& (0+255),b
  1865   00098C  0E7F               	movlw	127
  1866   00098E                     u5457:
  1867   00098E  2EE8               	decfsz	wreg,f,c
  1868   000990  D7FE               	bra	u5457
  1869   000992  2FFD               	decfsz	??_main& (0+255),f,b
  1870   000994  D7FC               	bra	u5457
  1871   000996  2FFE               	decfsz	(??_main+1)& (0+255),f,b
  1872   000998  D7FA               	bra	u5457
  1873   00099A                     
  1874                           ;main.c: 528:     OLED_ClearArea(0, 7, 0, 127);
  1875   00099A  0E07               	movlw	7
  1876   00099C  0100               	movlb	0	; () banked
  1877   00099E  6F63               	movwf	OLED_ClearArea@endPage& (0+255),b
  1878   0009A0  0E00               	movlw	0
  1879   0009A2  6F64               	movwf	OLED_ClearArea@startCol& (0+255),b
  1880   0009A4  0E7F               	movlw	127
  1881   0009A6  6F65               	movwf	OLED_ClearArea@endCol& (0+255),b
  1882   0009A8  0E00               	movlw	0
  1883   0009AA  EC85  F018         	call	_OLED_ClearArea
  1884   0009AE                     
  1885                           ;main.c: 529:     OLED_Print("-", 0, 114);
  1886   0009AE  0EF3               	movlw	low STR_9
  1887   0009B0  0100               	movlb	0	; () banked
  1888   0009B2  6F6D               	movwf	OLED_Print@str& (0+255),b
  1889   0009B4  0E7F               	movlw	high STR_9
  1890   0009B6  6F6E               	movwf	(OLED_Print@str+1)& (0+255),b
  1891   0009B8  0E00               	movlw	0
  1892   0009BA  6F6F               	movwf	OLED_Print@page& (0+255),b
  1893   0009BC  0E72               	movlw	114
  1894   0009BE  6F70               	movwf	OLED_Print@col& (0+255),b
  1895   0009C0  ECFE  F019         	call	_OLED_Print	;wreg free
  1896   0009C4                     
  1897                           ;main.c: 530:     char buffer[30];;main.c: 531:     int joystick;;main.c: 532:     int a
      +                          ngle;;main.c: 533:     UART_WriteString("System started\r\n");
  1898   0009C4  0EA1               	movlw	low STR_10
  1899   0009C6  0100               	movlb	0	; () banked
  1900   0009C8  6F61               	movwf	UART_WriteString@s& (0+255),b
  1901   0009CA  0E7F               	movlw	high STR_10
  1902   0009CC  6F62               	movwf	(UART_WriteString@s+1)& (0+255),b
  1903   0009CE  EC36  F019         	call	_UART_WriteString	;wreg free
  1904   0009D2                     l4399:
  1905                           
  1906                           ;main.c: 536:         if (RD0 == 1 && RD1 == 1 && emergency_stop_active == 0) {
  1907   0009D2  A083               	btfss	3971,0,c	;volatile
  1908   0009D4  EFEE  F004         	goto	u5321
  1909   0009D8  EFF0  F004         	goto	u5320
  1910   0009DC                     u5321:
  1911   0009DC  EF03  F005         	goto	l4407
  1912   0009E0                     u5320:
  1913   0009E0  A283               	btfss	3971,1,c	;volatile
  1914   0009E2  EFF5  F004         	goto	u5331
  1915   0009E6  EFF7  F004         	goto	u5330
  1916   0009EA                     u5331:
  1917   0009EA  EF03  F005         	goto	l4407
  1918   0009EE                     u5330:
  1919   0009EE  0101               	movlb	1	; () banked
  1920   0009F0  517E               	movf	_emergency_stop_active& (0+255),w,b	;volatile
  1921   0009F2  117F               	iorwf	(_emergency_stop_active+1)& (0+255),w,b	;volatile
  1922   0009F4  A4D8               	btfss	status,2,c
  1923   0009F6  EFFF  F004         	goto	u5341
  1924   0009FA  EF01  F005         	goto	u5340
  1925   0009FE                     u5341:
  1926   0009FE  EF03  F005         	goto	l4407
  1927   000A02                     u5340:
  1928   000A02                     
  1929                           ; BSR set to: 1
  1930                           ;main.c: 538:             INT1IF = 1;
  1931   000A02  80F0               	bsf	4080,0,c	;volatile
  1932                           
  1933                           ;main.c: 539:             INT2IF = 1;
  1934   000A04  82F0               	bsf	4080,1,c	;volatile
  1935   000A06                     l4407:
  1936                           
  1937                           ;main.c: 541:         Demux_control();
  1938   000A06  EC3F  F00E         	call	_Demux_control	;wreg free
  1939                           
  1940                           ;main.c: 542:         joystick = (int) Joystick_ADC();
  1941   000A0A  EC2E  F018         	call	_Joystick_ADC	;wreg free
  1942   000A0E  C097  F0F1         	movff	?_Joystick_ADC,___fltol@f1
  1943   000A12  C098  F0F2         	movff	?_Joystick_ADC+1,___fltol@f1+1
  1944   000A16  C099  F0F3         	movff	?_Joystick_ADC+2,___fltol@f1+2
  1945   000A1A  C09A  F0F4         	movff	?_Joystick_ADC+3,___fltol@f1+3
  1946   000A1E  EC79  F014         	call	___fltol	;wreg free
  1947   000A22  C0F1  F15A         	movff	?___fltol,main@joystick
  1948   000A26  C0F2  F15B         	movff	?___fltol+1,main@joystick+1
  1949                           
  1950                           ;main.c: 543:         angle = GY_ADC();
  1951   000A2A  ECFD  F00B         	call	_GY_ADC	;wreg free
  1952   000A2E  C0ED  F0F1         	movff	?_GY_ADC,___fltol@f1
  1953   000A32  C0EE  F0F2         	movff	?_GY_ADC+1,___fltol@f1+1
  1954   000A36  C0EF  F0F3         	movff	?_GY_ADC+2,___fltol@f1+2
  1955   000A3A  C0F0  F0F4         	movff	?_GY_ADC+3,___fltol@f1+3
  1956   000A3E  EC79  F014         	call	___fltol	;wreg free
  1957   000A42  C0F1  F15C         	movff	?___fltol,main@angle
  1958   000A46  C0F2  F15D         	movff	?___fltol+1,main@angle+1
  1959   000A4A                     
  1960                           ;main.c: 544:         sprintf(buffer, "%d,%d\r\n", joystick, angle);
  1961   000A4A  0E14               	movlw	low main@buffer
  1962   000A4C  0100               	movlb	0	; () banked
  1963   000A4E  6F7D               	movwf	sprintf@s& (0+255),b
  1964   000A50  0E01               	movlw	high main@buffer
  1965   000A52  6F7E               	movwf	(sprintf@s+1)& (0+255),b
  1966   000A54  0ED0               	movlw	low STR_11
  1967   000A56  6F7F               	movwf	sprintf@fmt& (0+255),b
  1968   000A58  0E7F               	movlw	high STR_11
  1969   000A5A  6F80               	movwf	(sprintf@fmt+1)& (0+255),b
  1970   000A5C  C15A  F081         	movff	main@joystick,?_sprintf+4
  1971   000A60  C15B  F082         	movff	main@joystick+1,?_sprintf+5
  1972   000A64  C15C  F083         	movff	main@angle,?_sprintf+6
  1973   000A68  C15D  F084         	movff	main@angle+1,?_sprintf+7
  1974   000A6C  ECDC  F019         	call	_sprintf	;wreg free
  1975   000A70                     
  1976                           ;main.c: 545:         UART_WriteString(buffer);
  1977   000A70  0E14               	movlw	low main@buffer
  1978   000A72  0100               	movlb	0	; () banked
  1979   000A74  6F61               	movwf	UART_WriteString@s& (0+255),b
  1980   000A76  0E01               	movlw	high main@buffer
  1981   000A78  6F62               	movwf	(UART_WriteString@s+1)& (0+255),b
  1982   000A7A  EC36  F019         	call	_UART_WriteString	;wreg free
  1983   000A7E                     
  1984                           ;main.c: 547:         char btMsg[20];;main.c: 548:         if (RD2 == 1) sprintf(btMsg, 
      +                          "BT ACTIVE");
  1985   000A7E  A483               	btfss	3971,2,c	;volatile
  1986   000A80  EF44  F005         	goto	u5351
  1987   000A84  EF46  F005         	goto	u5350
  1988   000A88                     u5351:
  1989   000A88  EF53  F005         	goto	l4417
  1990   000A8C                     u5350:
  1991   000A8C  0E32               	movlw	low main@btMsg
  1992   000A8E  0100               	movlb	0	; () banked
  1993   000A90  6F7D               	movwf	sprintf@s& (0+255),b
  1994   000A92  0E01               	movlw	high main@btMsg
  1995   000A94  6F7E               	movwf	(sprintf@s+1)& (0+255),b
  1996   000A96  0EB2               	movlw	low STR_12
  1997   000A98  6F7F               	movwf	sprintf@fmt& (0+255),b
  1998   000A9A  0E7F               	movlw	high STR_12
  1999   000A9C  6F80               	movwf	(sprintf@fmt+1)& (0+255),b
  2000   000A9E  ECDC  F019         	call	_sprintf	;wreg free
  2001   000AA2  EF5E  F005         	goto	l4419
  2002   000AA6                     l4417:
  2003   000AA6  0E32               	movlw	low main@btMsg
  2004   000AA8  0100               	movlb	0	; () banked
  2005   000AAA  6F7D               	movwf	sprintf@s& (0+255),b
  2006   000AAC  0E01               	movlw	high main@btMsg
  2007   000AAE  6F7E               	movwf	(sprintf@s+1)& (0+255),b
  2008   000AB0  0E72               	movlw	low (STR_1+36)
  2009   000AB2  6F7F               	movwf	sprintf@fmt& (0+255),b
  2010   000AB4  0E7F               	movlw	high (STR_1+36)
  2011   000AB6  6F80               	movwf	(sprintf@fmt+1)& (0+255),b
  2012   000AB8  ECDC  F019         	call	_sprintf	;wreg free
  2013   000ABC                     l4419:
  2014                           
  2015                           ;main.c: 550:         if (strcmp(btMsg, lastBT) != 0) {
  2016   000ABC  0E32               	movlw	low main@btMsg
  2017   000ABE  0100               	movlb	0	; () banked
  2018   000AC0  6F60               	movwf	strcmp@l& (0+255),b
  2019   000AC2  0E01               	movlw	high main@btMsg
  2020   000AC4  6F61               	movwf	(strcmp@l+1)& (0+255),b
  2021   000AC6  0E94               	movlw	low _lastBT
  2022   000AC8  6F62               	movwf	strcmp@r& (0+255),b
  2023   000ACA  0E01               	movlw	high _lastBT
  2024   000ACC  6F63               	movwf	(strcmp@r+1)& (0+255),b
  2025   000ACE  ECFE  F018         	call	_strcmp	;wreg free
  2026   000AD2  0100               	movlb	0	; () banked
  2027   000AD4  5160               	movf	?_strcmp& (0+255),w,b
  2028   000AD6  1161               	iorwf	(?_strcmp+1)& (0+255),w,b
  2029   000AD8  B4D8               	btfsc	status,2,c
  2030   000ADA  EF71  F005         	goto	u5361
  2031   000ADE  EF73  F005         	goto	u5360
  2032   000AE2                     u5361:
  2033   000AE2  EF99  F005         	goto	l4429
  2034   000AE6                     u5360:
  2035   000AE6                     
  2036                           ; BSR set to: 0
  2037                           ;main.c: 551:             strcpy(lastBT, btMsg);
  2038   000AE6  0E94               	movlw	low _lastBT
  2039   000AE8  6F60               	movwf	strcpy@dest& (0+255),b
  2040   000AEA  0E01               	movlw	high _lastBT
  2041   000AEC  6F61               	movwf	(strcpy@dest+1)& (0+255),b
  2042   000AEE  0E32               	movlw	low main@btMsg
  2043   000AF0  6F62               	movwf	strcpy@src& (0+255),b
  2044   000AF2  0E01               	movlw	high main@btMsg
  2045   000AF4  6F63               	movwf	(strcpy@src+1)& (0+255),b
  2046   000AF6  EC3D  F01A         	call	_strcpy	;wreg free
  2047   000AFA                     
  2048                           ;main.c: 552:             OLED_ClearArea(0, 1, 0, 127);
  2049   000AFA  0E01               	movlw	1
  2050   000AFC  0100               	movlb	0	; () banked
  2051   000AFE  6F63               	movwf	OLED_ClearArea@endPage& (0+255),b
  2052   000B00  0E00               	movlw	0
  2053   000B02  6F64               	movwf	OLED_ClearArea@startCol& (0+255),b
  2054   000B04  0E7F               	movlw	127
  2055   000B06  6F65               	movwf	OLED_ClearArea@endCol& (0+255),b
  2056   000B08  0E00               	movlw	0
  2057   000B0A  EC85  F018         	call	_OLED_ClearArea
  2058   000B0E                     
  2059                           ;main.c: 553:             if (RD2 == 1) OLED_Print("BT", 0, 0);
  2060   000B0E  A483               	btfss	3971,2,c	;volatile
  2061   000B10  EF8C  F005         	goto	u5371
  2062   000B14  EF8E  F005         	goto	u5370
  2063   000B18                     u5371:
  2064   000B18  EF99  F005         	goto	l4429
  2065   000B1C                     u5370:
  2066   000B1C  0EF0               	movlw	low STR_14
  2067   000B1E  0100               	movlb	0	; () banked
  2068   000B20  6F6D               	movwf	OLED_Print@str& (0+255),b
  2069   000B22  0E7F               	movlw	high STR_14
  2070   000B24  6F6E               	movwf	(OLED_Print@str+1)& (0+255),b
  2071   000B26  0E00               	movlw	0
  2072   000B28  6F6F               	movwf	OLED_Print@page& (0+255),b
  2073   000B2A  0E00               	movlw	0
  2074   000B2C  6F70               	movwf	OLED_Print@col& (0+255),b
  2075   000B2E  ECFE  F019         	call	_OLED_Print	;wreg free
  2076   000B32                     l4429:
  2077                           
  2078                           ;main.c: 556:         char angleStr[20];;main.c: 557:         sprintf(angleStr, "%d%c", 
      +                          angle, 248);
  2079   000B32  0E46               	movlw	low main@angleStr
  2080   000B34  0100               	movlb	0	; () banked
  2081   000B36  6F7D               	movwf	sprintf@s& (0+255),b
  2082   000B38  0E01               	movlw	high main@angleStr
  2083   000B3A  6F7E               	movwf	(sprintf@s+1)& (0+255),b
  2084   000B3C  0EEB               	movlw	low STR_15
  2085   000B3E  6F7F               	movwf	sprintf@fmt& (0+255),b
  2086   000B40  0E7F               	movlw	high STR_15
  2087   000B42  6F80               	movwf	(sprintf@fmt+1)& (0+255),b
  2088   000B44  C15C  F081         	movff	main@angle,?_sprintf+4
  2089   000B48  C15D  F082         	movff	main@angle+1,?_sprintf+5
  2090   000B4C  0E00               	movlw	0
  2091   000B4E  6F84               	movwf	(?_sprintf+7)& (0+255),b
  2092   000B50  0EF8               	movlw	248
  2093   000B52  6F83               	movwf	(?_sprintf+6)& (0+255),b
  2094   000B54  ECDC  F019         	call	_sprintf	;wreg free
  2095   000B58                     
  2096                           ;main.c: 558:         if (strcmp(angleStr, lastAngle) != 0) {
  2097   000B58  0E46               	movlw	low main@angleStr
  2098   000B5A  0100               	movlb	0	; () banked
  2099   000B5C  6F60               	movwf	strcmp@l& (0+255),b
  2100   000B5E  0E01               	movlw	high main@angleStr
  2101   000B60  6F61               	movwf	(strcmp@l+1)& (0+255),b
  2102   000B62  0E80               	movlw	low _lastAngle
  2103   000B64  6F62               	movwf	strcmp@r& (0+255),b
  2104   000B66  0E01               	movlw	high _lastAngle
  2105   000B68  6F63               	movwf	(strcmp@r+1)& (0+255),b
  2106   000B6A  ECFE  F018         	call	_strcmp	;wreg free
  2107   000B6E  0100               	movlb	0	; () banked
  2108   000B70  5160               	movf	?_strcmp& (0+255),w,b
  2109   000B72  1161               	iorwf	(?_strcmp+1)& (0+255),w,b
  2110   000B74  B4D8               	btfsc	status,2,c
  2111   000B76  EFBF  F005         	goto	u5381
  2112   000B7A  EFC1  F005         	goto	u5380
  2113   000B7E                     u5381:
  2114   000B7E  EFDE  F005         	goto	l4439
  2115   000B82                     u5380:
  2116   000B82                     
  2117                           ; BSR set to: 0
  2118                           ;main.c: 559:             strcpy(lastAngle, angleStr);
  2119   000B82  0E80               	movlw	low _lastAngle
  2120   000B84  6F60               	movwf	strcpy@dest& (0+255),b
  2121   000B86  0E01               	movlw	high _lastAngle
  2122   000B88  6F61               	movwf	(strcpy@dest+1)& (0+255),b
  2123   000B8A  0E46               	movlw	low main@angleStr
  2124   000B8C  6F62               	movwf	strcpy@src& (0+255),b
  2125   000B8E  0E01               	movlw	high main@angleStr
  2126   000B90  6F63               	movwf	(strcpy@src+1)& (0+255),b
  2127   000B92  EC3D  F01A         	call	_strcpy	;wreg free
  2128   000B96                     
  2129                           ;main.c: 560:             OLED_ClearArea(1, 2, 0, 127);
  2130   000B96  0E02               	movlw	2
  2131   000B98  0100               	movlb	0	; () banked
  2132   000B9A  6F63               	movwf	OLED_ClearArea@endPage& (0+255),b
  2133   000B9C  0E00               	movlw	0
  2134   000B9E  6F64               	movwf	OLED_ClearArea@startCol& (0+255),b
  2135   000BA0  0E7F               	movlw	127
  2136   000BA2  6F65               	movwf	OLED_ClearArea@endCol& (0+255),b
  2137   000BA4  0E01               	movlw	1
  2138   000BA6  EC85  F018         	call	_OLED_ClearArea
  2139   000BAA                     
  2140                           ;main.c: 561:             OLED_DrawCentered2x_AtPage(angleStr, 3);
  2141   000BAA  0E46               	movlw	low main@angleStr
  2142   000BAC  0100               	movlb	0	; () banked
  2143   000BAE  6F7C               	movwf	OLED_DrawCentered2x_AtPage@str& (0+255),b
  2144   000BB0  0E01               	movlw	high main@angleStr
  2145   000BB2  6F7D               	movwf	(OLED_DrawCentered2x_AtPage@str+1)& (0+255),b
  2146   000BB4  0E03               	movlw	3
  2147   000BB6  6F7E               	movwf	OLED_DrawCentered2x_AtPage@page& (0+255),b
  2148   000BB8  EC80  F015         	call	_OLED_DrawCentered2x_AtPage	;wreg free
  2149   000BBC                     l4439:
  2150                           
  2151                           ;main.c: 563:         if (joystick < 495) OLED_Print("F", 0, 106);
  2152   000BBC  0101               	movlb	1	; () banked
  2153   000BBE  BF5B               	btfsc	(main@joystick+1)& (0+255),7,b
  2154   000BC0  EFED  F005         	goto	u5390
  2155   000BC4  0EEF               	movlw	239
  2156   000BC6  5D5A               	subwf	main@joystick& (0+255),w,b
  2157   000BC8  0E01               	movlw	1
  2158   000BCA  595B               	subwfb	(main@joystick+1)& (0+255),w,b
  2159   000BCC  B0D8               	btfsc	status,0,c
  2160   000BCE  EFEB  F005         	goto	u5391
  2161   000BD2  EFED  F005         	goto	u5390
  2162   000BD6                     u5391:
  2163   000BD6  EFFA  F005         	goto	l4443
  2164   000BDA                     u5390:
  2165   000BDA                     
  2166                           ; BSR set to: 1
  2167   000BDA  0EF7               	movlw	low STR_16
  2168   000BDC  0100               	movlb	0	; () banked
  2169   000BDE  6F6D               	movwf	OLED_Print@str& (0+255),b
  2170   000BE0  0E7F               	movlw	high STR_16
  2171   000BE2  6F6E               	movwf	(OLED_Print@str+1)& (0+255),b
  2172   000BE4  0E00               	movlw	0
  2173   000BE6  6F6F               	movwf	OLED_Print@page& (0+255),b
  2174   000BE8  0E6A               	movlw	106
  2175   000BEA  6F70               	movwf	OLED_Print@col& (0+255),b
  2176   000BEC  ECFE  F019         	call	_OLED_Print	;wreg free
  2177   000BF0  EF20  F006         	goto	l4449
  2178   000BF4                     l4443:
  2179                           
  2180                           ; BSR set to: 1
  2181   000BF4  BF5B               	btfsc	(main@joystick+1)& (0+255),7,b
  2182   000BF6  EF06  F006         	goto	u5401
  2183   000BFA  0E18               	movlw	24
  2184   000BFC  5D5A               	subwf	main@joystick& (0+255),w,b
  2185   000BFE  0E02               	movlw	2
  2186   000C00  595B               	subwfb	(main@joystick+1)& (0+255),w,b
  2187   000C02  A0D8               	btfss	status,0,c
  2188   000C04  EF06  F006         	goto	u5401
  2189   000C08  EF08  F006         	goto	u5400
  2190   000C0C                     u5401:
  2191   000C0C  EF15  F006         	goto	l4447
  2192   000C10                     u5400:
  2193   000C10                     
  2194                           ; BSR set to: 1
  2195   000C10  0EF5               	movlw	low STR_17
  2196   000C12  0100               	movlb	0	; () banked
  2197   000C14  6F6D               	movwf	OLED_Print@str& (0+255),b
  2198   000C16  0E7F               	movlw	high STR_17
  2199   000C18  6F6E               	movwf	(OLED_Print@str+1)& (0+255),b
  2200   000C1A  0E00               	movlw	0
  2201   000C1C  6F6F               	movwf	OLED_Print@page& (0+255),b
  2202   000C1E  0E6A               	movlw	106
  2203   000C20  6F70               	movwf	OLED_Print@col& (0+255),b
  2204   000C22  ECFE  F019         	call	_OLED_Print	;wreg free
  2205   000C26  EF20  F006         	goto	l4449
  2206   000C2A                     l4447:
  2207                           
  2208                           ; BSR set to: 1
  2209   000C2A  0EFD               	movlw	low STR_18
  2210   000C2C  0100               	movlb	0	; () banked
  2211   000C2E  6F6D               	movwf	OLED_Print@str& (0+255),b
  2212   000C30  0E7F               	movlw	high STR_18
  2213   000C32  6F6E               	movwf	(OLED_Print@str+1)& (0+255),b
  2214   000C34  0E00               	movlw	0
  2215   000C36  6F6F               	movwf	OLED_Print@page& (0+255),b
  2216   000C38  0E6A               	movlw	106
  2217   000C3A  6F70               	movwf	OLED_Print@col& (0+255),b
  2218   000C3C  ECFE  F019         	call	_OLED_Print	;wreg free
  2219   000C40                     l4449:
  2220                           
  2221                           ;main.c: 566:         if (angle > 8) OLED_Print("R", 0, 122);
  2222   000C40  0101               	movlb	1	; () banked
  2223   000C42  BF5D               	btfsc	(main@angle+1)& (0+255),7,b
  2224   000C44  EF2D  F006         	goto	u5411
  2225   000C48  515D               	movf	(main@angle+1)& (0+255),w,b
  2226   000C4A  E109               	bnz	u5410
  2227   000C4C  0E09               	movlw	9
  2228   000C4E  5D5C               	subwf	main@angle& (0+255),w,b
  2229   000C50  A0D8               	btfss	status,0,c
  2230   000C52  EF2D  F006         	goto	u5411
  2231   000C56  EF2F  F006         	goto	u5410
  2232   000C5A                     u5411:
  2233   000C5A  EF3C  F006         	goto	l4453
  2234   000C5E                     u5410:
  2235   000C5E                     
  2236                           ; BSR set to: 1
  2237   000C5E  0EFB               	movlw	low STR_19
  2238   000C60  0100               	movlb	0	; () banked
  2239   000C62  6F6D               	movwf	OLED_Print@str& (0+255),b
  2240   000C64  0E7F               	movlw	high STR_19
  2241   000C66  6F6E               	movwf	(OLED_Print@str+1)& (0+255),b
  2242   000C68  0E00               	movlw	0
  2243   000C6A  6F6F               	movwf	OLED_Print@page& (0+255),b
  2244   000C6C  0E7A               	movlw	122
  2245   000C6E  6F70               	movwf	OLED_Print@col& (0+255),b
  2246   000C70  ECFE  F019         	call	_OLED_Print	;wreg free
  2247   000C74  EF62  F006         	goto	l4459
  2248   000C78                     l4453:
  2249                           
  2250                           ; BSR set to: 1
  2251   000C78  AF5D               	btfss	(main@angle+1)& (0+255),7,b
  2252   000C7A  EF48  F006         	goto	u5421
  2253   000C7E  0EF8               	movlw	248
  2254   000C80  5D5C               	subwf	main@angle& (0+255),w,b
  2255   000C82  0EFF               	movlw	255
  2256   000C84  595D               	subwfb	(main@angle+1)& (0+255),w,b
  2257   000C86  B0D8               	btfsc	status,0,c
  2258   000C88  EF48  F006         	goto	u5421
  2259   000C8C  EF4A  F006         	goto	u5420
  2260   000C90                     u5421:
  2261   000C90  EF57  F006         	goto	l4457
  2262   000C94                     u5420:
  2263   000C94                     
  2264                           ; BSR set to: 1
  2265   000C94  0EF9               	movlw	low STR_20
  2266   000C96  0100               	movlb	0	; () banked
  2267   000C98  6F6D               	movwf	OLED_Print@str& (0+255),b
  2268   000C9A  0E7F               	movlw	high STR_20
  2269   000C9C  6F6E               	movwf	(OLED_Print@str+1)& (0+255),b
  2270   000C9E  0E00               	movlw	0
  2271   000CA0  6F6F               	movwf	OLED_Print@page& (0+255),b
  2272   000CA2  0E7A               	movlw	122
  2273   000CA4  6F70               	movwf	OLED_Print@col& (0+255),b
  2274   000CA6  ECFE  F019         	call	_OLED_Print	;wreg free
  2275   000CAA  EF62  F006         	goto	l4459
  2276   000CAE                     l4457:
  2277                           
  2278                           ; BSR set to: 1
  2279   000CAE  0EFD               	movlw	low STR_18
  2280   000CB0  0100               	movlb	0	; () banked
  2281   000CB2  6F6D               	movwf	OLED_Print@str& (0+255),b
  2282   000CB4  0E7F               	movlw	high STR_18
  2283   000CB6  6F6E               	movwf	(OLED_Print@str+1)& (0+255),b
  2284   000CB8  0E00               	movlw	0
  2285   000CBA  6F6F               	movwf	OLED_Print@page& (0+255),b
  2286   000CBC  0E7A               	movlw	122
  2287   000CBE  6F70               	movwf	OLED_Print@col& (0+255),b
  2288   000CC0  ECFE  F019         	call	_OLED_Print	;wreg free
  2289   000CC4                     l4459:
  2290                           
  2291                           ;main.c: 569:         _delay((unsigned long)((70)*(16000000/4000.0)));
  2292   000CC4  0E02               	movlw	2
  2293   000CC6  0100               	movlb	0	; () banked
  2294   000CC8  6FFE               	movwf	(??_main+1)& (0+255),b
  2295   000CCA  0E6C               	movlw	108
  2296   000CCC  6FFD               	movwf	??_main& (0+255),b
  2297   000CCE  0E9F               	movlw	159
  2298   000CD0                     u5467:
  2299   000CD0  2EE8               	decfsz	wreg,f,c
  2300   000CD2  D7FE               	bra	u5467
  2301   000CD4  2FFD               	decfsz	??_main& (0+255),f,b
  2302   000CD6  D7FC               	bra	u5467
  2303   000CD8  2FFE               	decfsz	(??_main+1)& (0+255),f,b
  2304   000CDA  D7FA               	bra	u5467
  2305   000CDC  D000               	nop2	
  2306   000CDE  EFE9  F004         	goto	l4399
  2307   000CE2  EF07  F000         	goto	start
  2308   000CE6                     __end_of_main:
  2309                           	callstack 0
  2310                           
  2311 ;; *************** function _strcpy *****************
  2312 ;; Defined at:
  2313 ;;		line 3 in file "C:\Program Files\Microchip\xc8\v3.00\pic\sources\c99\common\strcpy.c"
  2314 ;; Parameters:    Size  Location     Type
  2315 ;;  dest            2    0[BANK0 ] PTR unsigned char 
  2316 ;;		 -> lastAngle(20), lastBT(20), 
  2317 ;;  src             2    2[BANK0 ] PTR const unsigned char 
  2318 ;;		 -> main@angleStr(20), main@btMsg(20), 
  2319 ;; Auto vars:     Size  Location     Type
  2320 ;;  d               2    4[BANK0 ] PTR unsigned char 
  2321 ;;		 -> lastAngle(20), lastBT(20), 
  2322 ;; Return value:  Size  Location     Type
  2323 ;;                  2    0[BANK0 ] PTR unsigned char 
  2324 ;; Registers used:
  2325 ;;		wreg, fsr1l, fsr1h, fsr2l, fsr2h, status,2, status,0
  2326 ;; Tracked objects:
  2327 ;;		On entry : 0/0
  2328 ;;		On exit  : 0/0
  2329 ;;		Unchanged: 0/0
  2330 ;; Data sizes:     COMRAM   BANK0   BANK1   BANK2   BANK3   BANK4   BANK5   BANK6   BANK7
  2331 ;;      Params:         0       4       0       0       0       0       0       0       0
  2332 ;;      Locals:         0       2       0       0       0       0       0       0       0
  2333 ;;      Temps:          0       0       0       0       0       0       0       0       0
  2334 ;;      Totals:         0       6       0       0       0       0       0       0       0
  2335 ;;Total ram usage:        6 bytes
  2336 ;; Hardware stack levels used: 1
  2337 ;; Hardware stack levels required when called: 7
  2338 ;; This function calls:
  2339 ;;		Nothing
  2340 ;; This function is called by:
  2341 ;;		_main
  2342 ;; This function uses a non-reentrant model
  2343 ;;
  2344                           
  2345                           	psect	text1
  2346   00347A                     __ptext1:
  2347                           	callstack 0
  2348   00347A                     _strcpy:
  2349                           	callstack 23
  2350   00347A  C060  F064         	movff	strcpy@dest,strcpy@d
  2351   00347E  C061  F065         	movff	strcpy@dest+1,strcpy@d+1
  2352   003482                     l4259:
  2353   003482  C062  FFD9         	movff	strcpy@src,fsr2l
  2354   003486  C063  FFDA         	movff	strcpy@src+1,fsr2h
  2355   00348A  0100               	movlb	0	; () banked
  2356   00348C  4B62               	infsnz	strcpy@src& (0+255),f,b
  2357   00348E  2B63               	incf	(strcpy@src+1)& (0+255),f,b
  2358   003490  C064  FFE1         	movff	strcpy@d,fsr1l
  2359   003494  C065  FFE2         	movff	strcpy@d+1,fsr1h
  2360   003498  4B64               	infsnz	strcpy@d& (0+255),f,b
  2361   00349A  2B65               	incf	(strcpy@d+1)& (0+255),f,b
  2362   00349C  CFDF FFE7          	movff	indf2,indf1
  2363   0034A0  50E7               	movf	indf1,w,c
  2364   0034A2  A4D8               	btfss	status,2,c
  2365   0034A4  EF56  F01A         	goto	u5141
  2366   0034A8  EF58  F01A         	goto	u5140
  2367   0034AC                     u5141:
  2368   0034AC  EF41  F01A         	goto	l4259
  2369   0034B0                     u5140:
  2370   0034B0                     
  2371                           ; BSR set to: 0
  2372   0034B0  0012               	return		;funcret
  2373   0034B2                     __end_of_strcpy:
  2374                           	callstack 0
  2375                           
  2376 ;; *************** function _strcmp *****************
  2377 ;; Defined at:
  2378 ;;		line 3 in file "C:\Program Files\Microchip\xc8\v3.00\pic\sources\c99\common\strcmp.c"
  2379 ;; Parameters:    Size  Location     Type
  2380 ;;  l               2    0[BANK0 ] PTR const unsigned char 
  2381 ;;		 -> main@angleStr(20), main@btMsg(20), 
  2382 ;;  r               2    2[BANK0 ] PTR const unsigned char 
  2383 ;;		 -> lastAngle(20), lastBT(20), 
  2384 ;; Auto vars:     Size  Location     Type
  2385 ;;		None
  2386 ;; Return value:  Size  Location     Type
  2387 ;;                  2    0[BANK0 ] int 
  2388 ;; Registers used:
  2389 ;;		wreg, fsr1l, fsr1h, fsr2l, fsr2h, status,2, status,0
  2390 ;; Tracked objects:
  2391 ;;		On entry : 0/0
  2392 ;;		On exit  : 0/0
  2393 ;;		Unchanged: 0/0
  2394 ;; Data sizes:     COMRAM   BANK0   BANK1   BANK2   BANK3   BANK4   BANK5   BANK6   BANK7
  2395 ;;      Params:         0       4       0       0       0       0       0       0       0
  2396 ;;      Locals:         0       0       0       0       0       0       0       0       0
  2397 ;;      Temps:          0       2       0       0       0       0       0       0       0
  2398 ;;      Totals:         0       6       0       0       0       0       0       0       0
  2399 ;;Total ram usage:        6 bytes
  2400 ;; Hardware stack levels used: 1
  2401 ;; Hardware stack levels required when called: 7
  2402 ;; This function calls:
  2403 ;;		Nothing
  2404 ;; This function is called by:
  2405 ;;		_main
  2406 ;; This function uses a non-reentrant model
  2407 ;;
  2408                           
  2409                           	psect	text2
  2410   0031FC                     __ptext2:
  2411                           	callstack 0
  2412   0031FC                     _strcmp:
  2413                           	callstack 23
  2414   0031FC  EF05  F019         	goto	l4249
  2415   003200                     l4247:
  2416   003200  0100               	movlb	0	; () banked
  2417   003202  4B60               	infsnz	strcmp@l& (0+255),f,b
  2418   003204  2B61               	incf	(strcmp@l+1)& (0+255),f,b
  2419   003206  4B62               	infsnz	strcmp@r& (0+255),f,b
  2420   003208  2B63               	incf	(strcmp@r+1)& (0+255),f,b
  2421   00320A                     l4249:
  2422   00320A  C062  FFD9         	movff	strcmp@r,fsr2l
  2423   00320E  C063  FFDA         	movff	strcmp@r+1,fsr2h
  2424   003212  C060  FFE1         	movff	strcmp@l,fsr1l
  2425   003216  C061  FFE2         	movff	strcmp@l+1,fsr1h
  2426   00321A  50DE               	movf	postinc2,w,c
  2427   00321C  18E6               	xorwf	postinc1,w,c
  2428   00321E  A4D8               	btfss	status,2,c
  2429   003220  EF14  F019         	goto	u5121
  2430   003224  EF16  F019         	goto	u5120
  2431   003228                     u5121:
  2432   003228  EF22  F019         	goto	l4253
  2433   00322C                     u5120:
  2434   00322C  C060  FFD9         	movff	strcmp@l,fsr2l
  2435   003230  C061  FFDA         	movff	strcmp@l+1,fsr2h
  2436   003234  50DF               	movf	indf2,w,c
  2437   003236  A4D8               	btfss	status,2,c
  2438   003238  EF20  F019         	goto	u5131
  2439   00323C  EF22  F019         	goto	u5130
  2440   003240                     u5131:
  2441   003240  EF00  F019         	goto	l4247
  2442   003244                     u5130:
  2443   003244                     l4253:
  2444   003244  C060  FFD9         	movff	strcmp@l,fsr2l
  2445   003248  C061  FFDA         	movff	strcmp@l+1,fsr2h
  2446   00324C  50DF               	movf	indf2,w,c
  2447   00324E  0100               	movlb	0	; () banked
  2448   003250  6F64               	movwf	??_strcmp& (0+255),b
  2449   003252  C062  FFD9         	movff	strcmp@r,fsr2l
  2450   003256  C063  FFDA         	movff	strcmp@r+1,fsr2h
  2451   00325A  50DF               	movf	indf2,w,c
  2452   00325C  6F65               	movwf	(??_strcmp+1)& (0+255),b
  2453   00325E  5165               	movf	(??_strcmp+1)& (0+255),w,b
  2454   003260  5D64               	subwf	??_strcmp& (0+255),w,b
  2455   003262  6F60               	movwf	?_strcmp& (0+255),b
  2456   003264  6B61               	clrf	(?_strcmp+1)& (0+255),b
  2457   003266  A0D8               	btfss	status,0,c
  2458   003268  0761               	decf	(?_strcmp+1)& (0+255),f,b
  2459   00326A                     
  2460                           ; BSR set to: 0
  2461   00326A  0012               	return		;funcret
  2462   00326C                     __end_of_strcmp:
  2463                           	callstack 0
  2464                           
  2465 ;; *************** function _sprintf *****************
  2466 ;; Defined at:
  2467 ;;		line 9 in file "C:\Program Files\Microchip\xc8\v3.00\pic\sources\c99\common\nf_sprintf.c"
  2468 ;; Parameters:    Size  Location     Type
  2469 ;;  s               2   29[BANK0 ] PTR unsigned char 
  2470 ;;		 -> main@angleStr(20), main@btMsg(20), main@buffer(30), 
  2471 ;;  fmt             2   31[BANK0 ] PTR const unsigned char 
  2472 ;;		 -> STR_15(5), STR_13(1), STR_12(10), STR_11(8), 
  2473 ;; Auto vars:     Size  Location     Type
  2474 ;;  f              11   38[BANK0 ] struct _IO_FILE
  2475 ;;  ret             2    0        int 
  2476 ;;  ap              1   37[BANK0 ] PTR void [1]
  2477 ;;		 -> ?_sprintf(2), 
  2478 ;; Return value:  Size  Location     Type
  2479 ;;                  2   29[BANK0 ] int 
  2480 ;; Registers used:
  2481 ;;		wreg, fsr1l, fsr1h, fsr2l, fsr2h, status,2, status,0, tblptrl, tblptrh, tblptru, cstack
  2482 ;; Tracked objects:
  2483 ;;		On entry : 0/0
  2484 ;;		On exit  : 0/0
  2485 ;;		Unchanged: 0/0
  2486 ;; Data sizes:     COMRAM   BANK0   BANK1   BANK2   BANK3   BANK4   BANK5   BANK6   BANK7
  2487 ;;      Params:         0       8       0       0       0       0       0       0       0
  2488 ;;      Locals:         0      12       0       0       0       0       0       0       0
  2489 ;;      Temps:          0       0       0       0       0       0       0       0       0
  2490 ;;      Totals:         0      20       0       0       0       0       0       0       0
  2491 ;;Total ram usage:       20 bytes
  2492 ;; Hardware stack levels used: 1
  2493 ;; Hardware stack levels required when called: 11
  2494 ;; This function calls:
  2495 ;;		_vfprintf
  2496 ;; This function is called by:
  2497 ;;		_main
  2498 ;; This function uses a non-reentrant model
  2499 ;;
  2500                           
  2501                           	psect	text3
  2502   0033B8                     __ptext3:
  2503                           	callstack 0
  2504   0033B8                     _sprintf:
  2505                           	callstack 19
  2506   0033B8  0E81               	movlw	low (?_sprintf+4)
  2507   0033BA  0100               	movlb	0	; () banked
  2508   0033BC  6F85               	movwf	sprintf@ap& (0+255),b
  2509   0033BE  C07D  F086         	movff	sprintf@s,sprintf@f
  2510   0033C2  C07E  F087         	movff	sprintf@s+1,sprintf@f+1
  2511   0033C6                     
  2512                           ; BSR set to: 0
  2513   0033C6  0E00               	movlw	0
  2514   0033C8  6F89               	movwf	(sprintf@f+3)& (0+255),b
  2515   0033CA  0E00               	movlw	0
  2516   0033CC  6F88               	movwf	(sprintf@f+2)& (0+255),b
  2517   0033CE                     
  2518                           ; BSR set to: 0
  2519   0033CE  0E00               	movlw	0
  2520   0033D0  6F90               	movwf	(sprintf@f+10)& (0+255),b
  2521   0033D2  0E00               	movlw	0
  2522   0033D4  6F8F               	movwf	(sprintf@f+9)& (0+255),b
  2523   0033D6                     
  2524                           ; BSR set to: 0
  2525   0033D6  0E86               	movlw	low sprintf@f
  2526   0033D8  6F77               	movwf	vfprintf@fp& (0+255),b
  2527   0033DA  C07F  F078         	movff	sprintf@fmt,vfprintf@fmt
  2528   0033DE  C080  F079         	movff	sprintf@fmt+1,vfprintf@fmt+1
  2529   0033E2  0E85               	movlw	low sprintf@ap
  2530   0033E4  6F7A               	movwf	vfprintf@ap& (0+255),b
  2531   0033E6  ECB9  F019         	call	_vfprintf	;wreg free
  2532   0033EA  0100               	movlb	0	; () banked
  2533   0033EC  5188               	movf	(sprintf@f+2)& (0+255),w,b
  2534   0033EE  257D               	addwf	sprintf@s& (0+255),w,b
  2535   0033F0  6ED9               	movwf	fsr2l,c
  2536   0033F2  5189               	movf	(sprintf@f+3)& (0+255),w,b
  2537   0033F4  217E               	addwfc	(sprintf@s+1)& (0+255),w,b
  2538   0033F6  6EDA               	movwf	fsr2h,c
  2539   0033F8  6ADF               	clrf	indf2,c
  2540   0033FA                     
  2541                           ; BSR set to: 0
  2542   0033FA  0012               	return		;funcret
  2543   0033FC                     __end_of_sprintf:
  2544                           	callstack 0
  2545                           
  2546 ;; *************** function _vfprintf *****************
  2547 ;; Defined at:
  2548 ;;		line 1817 in file "C:\Program Files\Microchip\xc8\v3.00\pic\sources\c99\common\doprnt.c"
  2549 ;; Parameters:    Size  Location     Type
  2550 ;;  fp              1   23[BANK0 ] PTR struct _IO_FILE
  2551 ;;		 -> sprintf@f(11), 
  2552 ;;  fmt             2   24[BANK0 ] PTR const unsigned char 
  2553 ;;		 -> STR_15(5), STR_13(1), STR_12(10), STR_11(8), 
  2554 ;;  ap              1   26[BANK0 ] PTR PTR void 
  2555 ;;		 -> sprintf@ap(1), 
  2556 ;; Auto vars:     Size  Location     Type
  2557 ;;  cfmt            2   27[BANK0 ] PTR unsigned char 
  2558 ;;		 -> STR_15(5), STR_13(1), STR_12(10), STR_11(8), 
  2559 ;; Return value:  Size  Location     Type
  2560 ;;                  2   23[BANK0 ] int 
  2561 ;; Registers used:
  2562 ;;		wreg, fsr1l, fsr1h, fsr2l, fsr2h, status,2, status,0, tblptrl, tblptrh, tblptru, cstack
  2563 ;; Tracked objects:
  2564 ;;		On entry : 0/0
  2565 ;;		On exit  : 0/0
  2566 ;;		Unchanged: 0/0
  2567 ;; Data sizes:     COMRAM   BANK0   BANK1   BANK2   BANK3   BANK4   BANK5   BANK6   BANK7
  2568 ;;      Params:         0       4       0       0       0       0       0       0       0
  2569 ;;      Locals:         0       2       0       0       0       0       0       0       0
  2570 ;;      Temps:          0       0       0       0       0       0       0       0       0
  2571 ;;      Totals:         0       6       0       0       0       0       0       0       0
  2572 ;;Total ram usage:        6 bytes
  2573 ;; Hardware stack levels used: 1
  2574 ;; Hardware stack levels required when called: 10
  2575 ;; This function calls:
  2576 ;;		_vfpfcnvrt
  2577 ;; This function is called by:
  2578 ;;		_sprintf
  2579 ;; This function uses a non-reentrant model
  2580 ;;
  2581                           
  2582                           	psect	text4
  2583   003372                     __ptext4:
  2584                           	callstack 0
  2585   003372                     _vfprintf:
  2586                           	callstack 19
  2587   003372                     
  2588                           ;C:\Program Files\Microchip\xc8\v3.00\pic\sources\c99\common\doprnt.c: 1817: int vfprint
      +                          f(FILE *fp, const char *fmt, va_list ap);C:\Program Files\Microchip\xc8\v3.00\pic\source
      +                          s\c99\common\doprnt.c: 1818: {;C:\Program Files\Microchip\xc8\v3.00\pic\sources\c99\comm
      +                          on\doprnt.c: 1820:     char *cfmt;;C:\Program Files\Microchip\xc8\v3.00\pic\sources\c99\
      +                          common\doprnt.c: 1822:     cfmt = (char *)fmt;
  2589   003372  C078  F07B         	movff	vfprintf@fmt,vfprintf@cfmt
  2590   003376  C079  F07C         	movff	vfprintf@fmt+1,vfprintf@cfmt+1
  2591                           
  2592                           ;C:\Program Files\Microchip\xc8\v3.00\pic\sources\c99\common\doprnt.c: 1826:     while (
      +                          *cfmt) {
  2593   00337A  EFC8  F019         	goto	l3939
  2594   00337E                     l3937:
  2595                           
  2596                           ;C:\Program Files\Microchip\xc8\v3.00\pic\sources\c99\common\doprnt.c: 1830:    vfpfcnvr
      +                          t(fp, &cfmt, ap);
  2597   00337E  C077  F06A         	movff	vfprintf@fp,vfpfcnvrt@fp
  2598   003382  0E7B               	movlw	low vfprintf@cfmt
  2599   003384  0100               	movlb	0	; () banked
  2600   003386  6F6B               	movwf	vfpfcnvrt@fmt& (0+255),b
  2601   003388  C07A  F06C         	movff	vfprintf@ap,vfpfcnvrt@ap
  2602   00338C  EC20  F00D         	call	_vfpfcnvrt	;wreg free
  2603   003390                     l3939:
  2604                           
  2605                           ;C:\Program Files\Microchip\xc8\v3.00\pic\sources\c99\common\doprnt.c: 1826:     while (
      +                          *cfmt) {
  2606   003390  C07B  FFF6         	movff	vfprintf@cfmt,tblptrl
  2607   003394  C07C  FFF7         	movff	vfprintf@cfmt+1,tblptrh
  2608   003398                     	if	0	;tblptru may be non-zero
  2609   003398                     	endif
  2610   003398                     	if	0	;tblptru may be non-zero
  2611   003398                     	endif
  2612   003398  0008               	tblrd		*
  2613   00339A  50F5               	movf	tablat,w,c
  2614   00339C  0900               	iorlw	0
  2615   00339E  A4D8               	btfss	status,2,c
  2616   0033A0  EFD4  F019         	goto	u4691
  2617   0033A4  EFD6  F019         	goto	u4690
  2618   0033A8                     u4691:
  2619   0033A8  EFBF  F019         	goto	l3937
  2620   0033AC                     u4690:
  2621   0033AC                     
  2622                           ;C:\Program Files\Microchip\xc8\v3.00\pic\sources\c99\common\doprnt.c: 1835:  return 0;
  2623   0033AC  0E00               	movlw	0
  2624   0033AE  0100               	movlb	0	; () banked
  2625   0033B0  6F78               	movwf	(?_vfprintf+1)& (0+255),b
  2626   0033B2  0E00               	movlw	0
  2627   0033B4  6F77               	movwf	?_vfprintf& (0+255),b
  2628   0033B6                     
  2629                           ; BSR set to: 0
  2630   0033B6  0012               	return		;funcret
  2631   0033B8                     __end_of_vfprintf:
  2632                           	callstack 0
  2633                           
  2634 ;; *************** function _vfpfcnvrt *****************
  2635 ;; Defined at:
  2636 ;;		line 1177 in file "C:\Program Files\Microchip\xc8\v3.00\pic\sources\c99\common\doprnt.c"
  2637 ;; Parameters:    Size  Location     Type
  2638 ;;  fp              1   10[BANK0 ] PTR struct _IO_FILE
  2639 ;;		 -> sprintf@f(11), 
  2640 ;;  fmt             1   11[BANK0 ] PTR PTR unsigned char 
  2641 ;;		 -> vfprintf@cfmt(2), 
  2642 ;;  ap              1   12[BANK0 ] PTR PTR void 
  2643 ;;		 -> sprintf@ap(1), 
  2644 ;; Auto vars:     Size  Location     Type
  2645 ;;  convarg         4   18[BANK0 ] struct .
  2646 ;;  cp              2   16[BANK0 ] PTR unsigned char 
  2647 ;;		 -> STR_15(5), STR_13(1), STR_12(10), STR_11(8), 
  2648 ;;  c               1   22[BANK0 ] unsigned char 
  2649 ;;  done            1   15[BANK0 ] _Bool 
  2650 ;; Return value:  Size  Location     Type
  2651 ;;                  1    wreg      void 
  2652 ;; Registers used:
  2653 ;;		wreg, fsr1l, fsr1h, fsr2l, fsr2h, status,2, status,0, tblptrl, tblptrh, tblptru, cstack
  2654 ;; Tracked objects:
  2655 ;;		On entry : 0/0
  2656 ;;		On exit  : 0/0
  2657 ;;		Unchanged: 0/0
  2658 ;; Data sizes:     COMRAM   BANK0   BANK1   BANK2   BANK3   BANK4   BANK5   BANK6   BANK7
  2659 ;;      Params:         0       3       0       0       0       0       0       0       0
  2660 ;;      Locals:         0       8       0       0       0       0       0       0       0
  2661 ;;      Temps:          0       2       0       0       0       0       0       0       0
  2662 ;;      Totals:         0      13       0       0       0       0       0       0       0
  2663 ;;Total ram usage:       13 bytes
  2664 ;; Hardware stack levels used: 1
  2665 ;; Hardware stack levels required when called: 9
  2666 ;; This function calls:
  2667 ;;		___awdiv
  2668 ;;		___awmod
  2669 ;;		_abs
  2670 ;;		_fputc
  2671 ;; This function is called by:
  2672 ;;		_vfprintf
  2673 ;; This function uses a non-reentrant model
  2674 ;;
  2675                           
  2676                           	psect	text5
  2677   001A40                     __ptext5:
  2678                           	callstack 0
  2679   001A40                     _vfpfcnvrt:
  2680                           	callstack 19
  2681   001A40                     
  2682                           ;C:\Program Files\Microchip\xc8\v3.00\pic\sources\c99\common\doprnt.c: 1177: vfpfcnvrt(F
      +                          ILE *fp, char *fmt[], va_list ap);C:\Program Files\Microchip\xc8\v3.00\pic\sources\c99\c
      +                          ommon\doprnt.c: 1178: {;C:\Program Files\Microchip\xc8\v3.00\pic\sources\c99\common\dopr
      +                          nt.c: 1179:     char c, *cp;;C:\Program Files\Microchip\xc8\v3.00\pic\sources\c99\common
      +                          \doprnt.c: 1180:     _Bool done;;C:\Program Files\Microchip\xc8\v3.00\pic\sources\c99\co
      +                          mmon\doprnt.c: 1188:  } convarg;;C:\Program Files\Microchip\xc8\v3.00\pic\sources\c99\co
      +                          mmon\doprnt.c: 1201:     if ((*fmt)[0] == '%') {
  2683   001A40  0100               	movlb	0	; () banked
  2684   001A42  516B               	movf	vfpfcnvrt@fmt& (0+255),w,b
  2685   001A44  6ED9               	movwf	fsr2l,c
  2686   001A46  6ADA               	clrf	fsr2h,c
  2687   001A48  CFDE FFF6          	movff	postinc2,tblptrl
  2688   001A4C  CFDD FFF7          	movff	postdec2,tblptrh
  2689   001A50                     	if	0	;tblptru may be non-zero
  2690   001A50                     	endif
  2691   001A50                     	if	0	;tblptru may be non-zero
  2692   001A50                     	endif
  2693   001A50  0008               	tblrd		*
  2694   001A52  50F5               	movf	tablat,w,c
  2695   001A54  0A25               	xorlw	37
  2696   001A56  A4D8               	btfss	status,2,c
  2697   001A58  EF30  F00D         	goto	u4181
  2698   001A5C  EF32  F00D         	goto	u4180
  2699   001A60                     u4181:
  2700   001A60  EF2D  F00E         	goto	l3679
  2701   001A64                     u4180:
  2702   001A64                     
  2703                           ; BSR set to: 0
  2704                           ;C:\Program Files\Microchip\xc8\v3.00\pic\sources\c99\common\doprnt.c: 1202:         ++*
      +                          fmt;
  2705   001A64  516B               	movf	vfpfcnvrt@fmt& (0+255),w,b
  2706   001A66  6ED9               	movwf	fsr2l,c
  2707   001A68  6ADA               	clrf	fsr2h,c
  2708   001A6A  2ADE               	incf	postinc2,f,c
  2709   001A6C  0E00               	movlw	0
  2710   001A6E  22DD               	addwfc	postdec2,f,c
  2711   001A70                     
  2712                           ; BSR set to: 0
  2713                           ;C:\Program Files\Microchip\xc8\v3.00\pic\sources\c99\common\doprnt.c: 1204:         fla
      +                          gs = width = 0;
  2714   001A70  0E00               	movlw	0
  2715   001A72  6E51               	movwf	(_width+1)^0,c
  2716   001A74  0E00               	movlw	0
  2717   001A76  6E50               	movwf	_width^0,c
  2718   001A78  C050  F0FF         	movff	_width,_flags
  2719   001A7C                     
  2720                           ; BSR set to: 0
  2721                           ;C:\Program Files\Microchip\xc8\v3.00\pic\sources\c99\common\doprnt.c: 1205:         pre
      +                          c = -1;
  2722   001A7C  6852               	setf	_prec^0,c
  2723   001A7E  6853               	setf	(_prec+1)^0,c
  2724   001A80                     
  2725                           ; BSR set to: 0
  2726                           ;C:\Program Files\Microchip\xc8\v3.00\pic\sources\c99\common\doprnt.c: 1273:         if 
      +                          ((*fmt)[0] == 'c') {
  2727   001A80  516B               	movf	vfpfcnvrt@fmt& (0+255),w,b
  2728   001A82  6ED9               	movwf	fsr2l,c
  2729   001A84  6ADA               	clrf	fsr2h,c
  2730   001A86  CFDE FFF6          	movff	postinc2,tblptrl
  2731   001A8A  CFDD FFF7          	movff	postdec2,tblptrh
  2732   001A8E                     	if	0	;tblptru may be non-zero
  2733   001A8E                     	endif
  2734   001A8E                     	if	0	;tblptru may be non-zero
  2735   001A8E                     	endif
  2736   001A8E  0008               	tblrd		*
  2737   001A90  50F5               	movf	tablat,w,c
  2738   001A92  0A63               	xorlw	99
  2739   001A94  A4D8               	btfss	status,2,c
  2740   001A96  EF4F  F00D         	goto	u4191
  2741   001A9A  EF51  F00D         	goto	u4190
  2742   001A9E                     u4191:
  2743   001A9E  EF6A  F00D         	goto	l3643
  2744   001AA2                     u4190:
  2745   001AA2                     
  2746                           ; BSR set to: 0
  2747                           ;C:\Program Files\Microchip\xc8\v3.00\pic\sources\c99\common\doprnt.c: 1274:            
      +                           ++*fmt;
  2748   001AA2  516B               	movf	vfpfcnvrt@fmt& (0+255),w,b
  2749   001AA4  6ED9               	movwf	fsr2l,c
  2750   001AA6  6ADA               	clrf	fsr2h,c
  2751   001AA8  2ADE               	incf	postinc2,f,c
  2752   001AAA  0E00               	movlw	0
  2753   001AAC  22DD               	addwfc	postdec2,f,c
  2754   001AAE                     
  2755                           ; BSR set to: 0
  2756                           ;C:\Program Files\Microchip\xc8\v3.00\pic\sources\c99\common\doprnt.c: 1275:            
      +                           c = (unsigned char)(*(int *)__va_arg(*(int **)ap, (int)0));
  2757   001AAE  516C               	movf	vfpfcnvrt@ap& (0+255),w,b
  2758   001AB0  6ED9               	movwf	fsr2l,c
  2759   001AB2  6ADA               	clrf	fsr2h,c
  2760   001AB4  50DF               	movf	indf2,w,c
  2761   001AB6  2ADF               	incf	indf2,f,c
  2762   001AB8  2ADF               	incf	indf2,f,c
  2763   001ABA  6ED9               	movwf	fsr2l,c
  2764   001ABC  6ADA               	clrf	fsr2h,c
  2765   001ABE  50DF               	movf	indf2,w,c
  2766   001AC0  6F76               	movwf	vfpfcnvrt@c& (0+255),b
  2767   001AC2                     
  2768                           ; BSR set to: 0
  2769                           ;C:\Program Files\Microchip\xc8\v3.00\pic\sources\c99\common\doprnt.c: 1277:    fputc(c,
      +                           fp);
  2770   001AC2  C076  F060         	movff	vfpfcnvrt@c,fputc@c
  2771   001AC6  6B61               	clrf	(fputc@c+1)& (0+255),b
  2772   001AC8  C06A  F062         	movff	vfpfcnvrt@fp,fputc@fp
  2773   001ACC  EC20  F017         	call	_fputc	;wreg free
  2774   001AD0  EF3E  F00E         	goto	l1086
  2775   001AD4                     l3643:
  2776                           
  2777                           ; BSR set to: 0
  2778                           ;C:\Program Files\Microchip\xc8\v3.00\pic\sources\c99\common\doprnt.c: 1291:   cp = *fmt
      +                          ;
  2779   001AD4  516B               	movf	vfpfcnvrt@fmt& (0+255),w,b
  2780   001AD6  6ED9               	movwf	fsr2l,c
  2781   001AD8  6ADA               	clrf	fsr2h,c
  2782   001ADA  CFDE F070          	movff	postinc2,vfpfcnvrt@cp
  2783   001ADE  CFDD F071          	movff	postdec2,vfpfcnvrt@cp+1
  2784   001AE2                     
  2785                           ; BSR set to: 0
  2786                           ;C:\Program Files\Microchip\xc8\v3.00\pic\sources\c99\common\doprnt.c: 1361:   if (*cp =
      +                          = 'd' || *cp == 'i') {
  2787   001AE2  C070  FFF6         	movff	vfpfcnvrt@cp,tblptrl
  2788   001AE6  C071  FFF7         	movff	vfpfcnvrt@cp+1,tblptrh
  2789   001AEA                     	if	0	;tblptru may be non-zero
  2790   001AEA                     	endif
  2791   001AEA                     	if	0	;tblptru may be non-zero
  2792   001AEA                     	endif
  2793   001AEA  0008               	tblrd		*
  2794   001AEC  50F5               	movf	tablat,w,c
  2795   001AEE  0A64               	xorlw	100
  2796   001AF0  B4D8               	btfsc	status,2,c
  2797   001AF2  EF7D  F00D         	goto	u4201
  2798   001AF6  EF7F  F00D         	goto	u4200
  2799   001AFA                     u4201:
  2800   001AFA  EF8D  F00D         	goto	l3649
  2801   001AFE                     u4200:
  2802   001AFE                     
  2803                           ; BSR set to: 0
  2804   001AFE  C070  FFF6         	movff	vfpfcnvrt@cp,tblptrl
  2805   001B02  C071  FFF7         	movff	vfpfcnvrt@cp+1,tblptrh
  2806   001B06                     	if	0	;tblptru may be non-zero
  2807   001B06                     	endif
  2808   001B06                     	if	0	;tblptru may be non-zero
  2809   001B06                     	endif
  2810   001B06  0008               	tblrd		*
  2811   001B08  50F5               	movf	tablat,w,c
  2812   001B0A  0A69               	xorlw	105
  2813   001B0C  A4D8               	btfss	status,2,c
  2814   001B0E  EF8B  F00D         	goto	u4211
  2815   001B12  EF8D  F00D         	goto	u4210
  2816   001B16                     u4211:
  2817   001B16  EF24  F00E         	goto	l3675
  2818   001B1A                     u4210:
  2819   001B1A                     l3649:
  2820                           
  2821                           ; BSR set to: 0
  2822                           ;C:\Program Files\Microchip\xc8\v3.00\pic\sources\c99\common\doprnt.c: 1404:    convarg.
      +                          sint = (vfpf_sint_t)(int)(*(int *)__va_arg(*(int **)ap, (int)0));
  2823   001B1A  516C               	movf	vfpfcnvrt@ap& (0+255),w,b
  2824   001B1C  6ED9               	movwf	fsr2l,c
  2825   001B1E  6ADA               	clrf	fsr2h,c
  2826   001B20  0E02               	movlw	2
  2827   001B22  26DF               	addwf	indf2,f,c
  2828   001B24  5CDF               	subwf	indf2,w,c
  2829   001B26  6ED9               	movwf	fsr2l,c
  2830   001B28  6ADA               	clrf	fsr2h,c
  2831   001B2A  CFDE F072          	movff	postinc2,vfpfcnvrt@convarg
  2832   001B2E  CFDE F073          	movff	postinc2,vfpfcnvrt@convarg+1
  2833   001B32                     
  2834                           ; BSR set to: 0
  2835                           ;C:\Program Files\Microchip\xc8\v3.00\pic\sources\c99\common\doprnt.c: 1406:    *fmt = c
      +                          p+1;
  2836   001B32  0E01               	movlw	1
  2837   001B34  2570               	addwf	vfpfcnvrt@cp& (0+255),w,b
  2838   001B36  6F6D               	movwf	??_vfpfcnvrt& (0+255),b
  2839   001B38  0E00               	movlw	0
  2840   001B3A  2171               	addwfc	(vfpfcnvrt@cp+1)& (0+255),w,b
  2841   001B3C  6F6E               	movwf	(??_vfpfcnvrt+1)& (0+255),b
  2842   001B3E  516B               	movf	vfpfcnvrt@fmt& (0+255),w,b
  2843   001B40  6ED9               	movwf	fsr2l,c
  2844   001B42  6ADA               	clrf	fsr2h,c
  2845   001B44  C06D  FFDE         	movff	??_vfpfcnvrt,postinc2
  2846   001B48  C06E  FFDD         	movff	??_vfpfcnvrt+1,postdec2
  2847   001B4C                     
  2848                           ; BSR set to: 0
  2849                           ;C:\Program Files\Microchip\xc8\v3.00\pic\sources\c99\common\doprnt.c: 1408:    c = size
      +                          of(dbuf);
  2850   001B4C  0E20               	movlw	32
  2851   001B4E  6F76               	movwf	vfpfcnvrt@c& (0+255),b
  2852                           
  2853                           ;C:\Program Files\Microchip\xc8\v3.00\pic\sources\c99\common\doprnt.c: 1409:    done = c
      +                          onvarg.sint < 0;
  2854   001B50  BF73               	btfsc	(vfpfcnvrt@convarg+1)& (0+255),7,b
  2855   001B52  EFAD  F00D         	goto	u4221
  2856   001B56  EFB0  F00D         	goto	u4220
  2857   001B5A                     u4221:
  2858   001B5A  0E01               	movlw	1
  2859   001B5C  EFB1  F00D         	goto	u4230
  2860   001B60                     u4220:
  2861   001B60  0E00               	movlw	0
  2862   001B62                     u4230:
  2863   001B62  6F6F               	movwf	vfpfcnvrt@done& (0+255),b
  2864   001B64                     l3655:
  2865                           
  2866                           ; BSR set to: 0
  2867                           ;C:\Program Files\Microchip\xc8\v3.00\pic\sources\c99\common\doprnt.c: 1411:     dbuf[--
      +                          c] = abs(convarg.sint % 10) + '0';
  2868   001B64  0776               	decf	vfpfcnvrt@c& (0+255),f,b
  2869   001B66  0E5E               	movlw	low _dbuf
  2870   001B68  2576               	addwf	vfpfcnvrt@c& (0+255),w,b
  2871   001B6A  6ED9               	movwf	fsr2l,c
  2872   001B6C  6ADA               	clrf	fsr2h,c
  2873   001B6E  0E01               	movlw	high _dbuf
  2874   001B70  22DA               	addwfc	fsr2h,f,c
  2875   001B72  C072  F060         	movff	vfpfcnvrt@convarg,___awmod@dividend
  2876   001B76  C073  F061         	movff	vfpfcnvrt@convarg+1,___awmod@dividend+1
  2877   001B7A  0E00               	movlw	0
  2878   001B7C  6F63               	movwf	(___awmod@divisor+1)& (0+255),b
  2879   001B7E  0E0A               	movlw	10
  2880   001B80  6F62               	movwf	___awmod@divisor& (0+255),b
  2881   001B82  EC7E  F017         	call	___awmod	;wreg free
  2882   001B86  C060  F066         	movff	?___awmod,abs@a
  2883   001B8A  C061  F067         	movff	?___awmod+1,abs@a+1
  2884   001B8E  EC59  F01A         	call	_abs	;wreg free
  2885   001B92  0100               	movlb	0	; () banked
  2886   001B94  5166               	movf	?_abs& (0+255),w,b
  2887   001B96  0F30               	addlw	48
  2888   001B98  6EDF               	movwf	indf2,c
  2889   001B9A                     
  2890                           ; BSR set to: 0
  2891                           ;C:\Program Files\Microchip\xc8\v3.00\pic\sources\c99\common\doprnt.c: 1412:     convarg
      +                          .sint /= 10;
  2892   001B9A  C072  F060         	movff	vfpfcnvrt@convarg,___awdiv@dividend
  2893   001B9E  C073  F061         	movff	vfpfcnvrt@convarg+1,___awdiv@dividend+1
  2894   001BA2  0E00               	movlw	0
  2895   001BA4  6F63               	movwf	(___awdiv@divisor+1)& (0+255),b
  2896   001BA6  0E0A               	movlw	10
  2897   001BA8  6F62               	movwf	___awdiv@divisor& (0+255),b
  2898   001BAA  EC5D  F016         	call	___awdiv	;wreg free
  2899   001BAE  C060  F072         	movff	?___awdiv,vfpfcnvrt@convarg
  2900   001BB2  C061  F073         	movff	?___awdiv+1,vfpfcnvrt@convarg+1
  2901   001BB6                     
  2902                           ;C:\Program Files\Microchip\xc8\v3.00\pic\sources\c99\common\doprnt.c: 1416:    } while 
      +                          (convarg.sint != 0 && c != 0);
  2903   001BB6  0100               	movlb	0	; () banked
  2904   001BB8  5172               	movf	vfpfcnvrt@convarg& (0+255),w,b
  2905   001BBA  1173               	iorwf	(vfpfcnvrt@convarg+1)& (0+255),w,b
  2906   001BBC  B4D8               	btfsc	status,2,c
  2907   001BBE  EFE3  F00D         	goto	u4241
  2908   001BC2  EFE5  F00D         	goto	u4240
  2909   001BC6                     u4241:
  2910   001BC6  EFED  F00D         	goto	l3663
  2911   001BCA                     u4240:
  2912   001BCA                     
  2913                           ; BSR set to: 0
  2914   001BCA  5176               	movf	vfpfcnvrt@c& (0+255),w,b
  2915   001BCC  A4D8               	btfss	status,2,c
  2916   001BCE  EFEB  F00D         	goto	u4251
  2917   001BD2  EFED  F00D         	goto	u4250
  2918   001BD6                     u4251:
  2919   001BD6  EFB2  F00D         	goto	l3655
  2920   001BDA                     u4250:
  2921   001BDA                     l3663:
  2922                           
  2923                           ; BSR set to: 0
  2924                           ;C:\Program Files\Microchip\xc8\v3.00\pic\sources\c99\common\doprnt.c: 1417:    if (c !=
      +                           0 && done) {
  2925   001BDA  5176               	movf	vfpfcnvrt@c& (0+255),w,b
  2926   001BDC  B4D8               	btfsc	status,2,c
  2927   001BDE  EFF3  F00D         	goto	u4261
  2928   001BE2  EFF5  F00D         	goto	u4260
  2929   001BE6                     u4261:
  2930   001BE6  EF19  F00E         	goto	l3673
  2931   001BEA                     u4260:
  2932   001BEA                     
  2933                           ; BSR set to: 0
  2934   001BEA  516F               	movf	vfpfcnvrt@done& (0+255),w,b
  2935   001BEC  B4D8               	btfsc	status,2,c
  2936   001BEE  EFFB  F00D         	goto	u4271
  2937   001BF2  EFFD  F00D         	goto	u4270
  2938   001BF6                     u4271:
  2939   001BF6  EF19  F00E         	goto	l3673
  2940   001BFA                     u4270:
  2941   001BFA                     
  2942                           ; BSR set to: 0
  2943                           ;C:\Program Files\Microchip\xc8\v3.00\pic\sources\c99\common\doprnt.c: 1418:     dbuf[--
      +                          c] = '-';
  2944   001BFA  0776               	decf	vfpfcnvrt@c& (0+255),f,b
  2945   001BFC  0E5E               	movlw	low _dbuf
  2946   001BFE  2576               	addwf	vfpfcnvrt@c& (0+255),w,b
  2947   001C00  6ED9               	movwf	fsr2l,c
  2948   001C02  6ADA               	clrf	fsr2h,c
  2949   001C04  0E01               	movlw	high _dbuf
  2950   001C06  22DA               	addwfc	fsr2h,f,c
  2951   001C08  0E2D               	movlw	45
  2952   001C0A  6EDF               	movwf	indf2,c
  2953   001C0C  EF19  F00E         	goto	l3673
  2954   001C10                     l3669:
  2955                           
  2956                           ; BSR set to: 0
  2957                           ;C:\Program Files\Microchip\xc8\v3.00\pic\sources\c99\common\doprnt.c: 1424:     fputc(d
      +                          buf[c++], fp);
  2958   001C10  0E5E               	movlw	low _dbuf
  2959   001C12  2576               	addwf	vfpfcnvrt@c& (0+255),w,b
  2960   001C14  6ED9               	movwf	fsr2l,c
  2961   001C16  6ADA               	clrf	fsr2h,c
  2962   001C18  0E01               	movlw	high _dbuf
  2963   001C1A  22DA               	addwfc	fsr2h,f,c
  2964   001C1C  50DF               	movf	indf2,w,c
  2965   001C1E  6F6D               	movwf	??_vfpfcnvrt& (0+255),b
  2966   001C20  516D               	movf	??_vfpfcnvrt& (0+255),w,b
  2967   001C22  6F60               	movwf	fputc@c& (0+255),b
  2968   001C24  6B61               	clrf	(fputc@c+1)& (0+255),b
  2969   001C26  C06A  F062         	movff	vfpfcnvrt@fp,fputc@fp
  2970   001C2A  EC20  F017         	call	_fputc	;wreg free
  2971   001C2E  0100               	movlb	0	; () banked
  2972   001C30  2B76               	incf	vfpfcnvrt@c& (0+255),f,b
  2973   001C32                     l3673:
  2974                           
  2975                           ; BSR set to: 0
  2976                           ;C:\Program Files\Microchip\xc8\v3.00\pic\sources\c99\common\doprnt.c: 1423:    while (c
      +                           != sizeof(dbuf)) {
  2977   001C32  0E20               	movlw	32
  2978   001C34  1976               	xorwf	vfpfcnvrt@c& (0+255),w,b
  2979   001C36  A4D8               	btfss	status,2,c
  2980   001C38  EF20  F00E         	goto	u4281
  2981   001C3C  EF22  F00E         	goto	u4280
  2982   001C40                     u4281:
  2983   001C40  EF08  F00E         	goto	l3669
  2984   001C44                     u4280:
  2985   001C44  EF3E  F00E         	goto	l1086
  2986   001C48                     l3675:
  2987                           
  2988                           ;C:\Program Files\Microchip\xc8\v3.00\pic\sources\c99\common\doprnt.c: 1806:         ++*
      +                          fmt;
  2989   001C48  0100               	movlb	0	; () banked
  2990   001C4A  516B               	movf	vfpfcnvrt@fmt& (0+255),w,b
  2991   001C4C  6ED9               	movwf	fsr2l,c
  2992   001C4E  6ADA               	clrf	fsr2h,c
  2993   001C50  2ADE               	incf	postinc2,f,c
  2994   001C52  0E00               	movlw	0
  2995   001C54  22DD               	addwfc	postdec2,f,c
  2996   001C56  EF3E  F00E         	goto	l1086
  2997   001C5A                     l3679:
  2998                           
  2999                           ; BSR set to: 0
  3000                           ;C:\Program Files\Microchip\xc8\v3.00\pic\sources\c99\common\doprnt.c: 1811:     fputc((
      +                          int)(*fmt)[0], fp);
  3001   001C5A  516B               	movf	vfpfcnvrt@fmt& (0+255),w,b
  3002   001C5C  6ED9               	movwf	fsr2l,c
  3003   001C5E  6ADA               	clrf	fsr2h,c
  3004   001C60  CFDE FFF6          	movff	postinc2,tblptrl
  3005   001C64  CFDD FFF7          	movff	postdec2,tblptrh
  3006   001C68                     	if	0	;tblptru may be non-zero
  3007   001C68                     	endif
  3008   001C68                     	if	0	;tblptru may be non-zero
  3009   001C68                     	endif
  3010   001C68  0008               	tblrd		*
  3011   001C6A  50F5               	movf	tablat,w,c
  3012   001C6C  6F60               	movwf	fputc@c& (0+255),b
  3013   001C6E  6B61               	clrf	(fputc@c+1)& (0+255),b
  3014   001C70  C06A  F062         	movff	vfpfcnvrt@fp,fputc@fp
  3015   001C74  EC20  F017         	call	_fputc	;wreg free
  3016   001C78  EF24  F00E         	goto	l3675
  3017   001C7C                     l1086:
  3018   001C7C  0012               	return		;funcret
  3019   001C7E                     __end_of_vfpfcnvrt:
  3020                           	callstack 0
  3021                           
  3022 ;; *************** function _fputc *****************
  3023 ;; Defined at:
  3024 ;;		line 8 in file "C:\Program Files\Microchip\xc8\v3.00\pic\sources\c99\common\nf_fputc.c"
  3025 ;; Parameters:    Size  Location     Type
  3026 ;;  c               2    0[BANK0 ] int 
  3027 ;;  fp              1    2[BANK0 ] PTR struct _IO_FILE
  3028 ;;		 -> sprintf@f(11), 
  3029 ;; Auto vars:     Size  Location     Type
  3030 ;;		None
  3031 ;; Return value:  Size  Location     Type
  3032 ;;                  2    0[BANK0 ] int 
  3033 ;; Registers used:
  3034 ;;		wreg, fsr1l, fsr1h, fsr2l, fsr2h, status,2, status,0, cstack
  3035 ;; Tracked objects:
  3036 ;;		On entry : 0/0
  3037 ;;		On exit  : 0/0
  3038 ;;		Unchanged: 0/0
  3039 ;; Data sizes:     COMRAM   BANK0   BANK1   BANK2   BANK3   BANK4   BANK5   BANK6   BANK7
  3040 ;;      Params:         0       3       0       0       0       0       0       0       0
  3041 ;;      Locals:         0       0       0       0       0       0       0       0       0
  3042 ;;      Temps:          0       5       0       0       0       0       0       0       0
  3043 ;;      Totals:         0       8       0       0       0       0       0       0       0
  3044 ;;Total ram usage:        8 bytes
  3045 ;; Hardware stack levels used: 1
  3046 ;; Hardware stack levels required when called: 8
  3047 ;; This function calls:
  3048 ;;		_putch
  3049 ;; This function is called by:
  3050 ;;		_vfpfcnvrt
  3051 ;; This function uses a non-reentrant model
  3052 ;;
  3053                           
  3054                           	psect	text6
  3055   002E40                     __ptext6:
  3056                           	callstack 0
  3057   002E40                     _fputc:
  3058                           	callstack 19
  3059   002E40  0100               	movlb	0	; () banked
  3060   002E42  5162               	movf	fputc@fp& (0+255),w,b
  3061   002E44  B4D8               	btfsc	status,2,c
  3062   002E46  EF27  F017         	goto	u3901
  3063   002E4A  EF29  F017         	goto	u3900
  3064   002E4E                     u3901:
  3065   002E4E  EF31  F017         	goto	l3491
  3066   002E52                     u3900:
  3067   002E52                     
  3068                           ; BSR set to: 0
  3069   002E52  5162               	movf	fputc@fp& (0+255),w,b
  3070   002E54  A4D8               	btfss	status,2,c
  3071   002E56  EF2F  F017         	goto	u3911
  3072   002E5A  EF31  F017         	goto	u3910
  3073   002E5E                     u3911:
  3074   002E5E  EF36  F017         	goto	l3493
  3075   002E62                     u3910:
  3076   002E62                     l3491:
  3077                           
  3078                           ; BSR set to: 0
  3079   002E62  5160               	movf	fputc@c& (0+255),w,b
  3080   002E64  ECAD  F01B         	call	_putch
  3081   002E68  EF7D  F017         	goto	l1122
  3082   002E6C                     l3493:
  3083                           
  3084                           ; BSR set to: 0
  3085   002E6C  5162               	movf	fputc@fp& (0+255),w,b
  3086   002E6E  6ED9               	movwf	fsr2l,c
  3087   002E70  6ADA               	clrf	fsr2h,c
  3088   002E72  0E09               	movlw	9
  3089   002E74  26D9               	addwf	fsr2l,f,c
  3090   002E76  50DE               	movf	postinc2,w,c
  3091   002E78  10DE               	iorwf	postinc2,w,c
  3092   002E7A  B4D8               	btfsc	status,2,c
  3093   002E7C  EF42  F017         	goto	u3921
  3094   002E80  EF44  F017         	goto	u3920
  3095   002E84                     u3921:
  3096   002E84  EF5D  F017         	goto	l3497
  3097   002E88                     u3920:
  3098   002E88                     
  3099                           ; BSR set to: 0
  3100   002E88  5162               	movf	fputc@fp& (0+255),w,b
  3101   002E8A  6ED9               	movwf	fsr2l,c
  3102   002E8C  6ADA               	clrf	fsr2h,c
  3103   002E8E  0E09               	movlw	9
  3104   002E90  26D9               	addwf	fsr2l,f,c
  3105   002E92  5162               	movf	fputc@fp& (0+255),w,b
  3106   002E94  6EE1               	movwf	fsr1l,c
  3107   002E96  6AE2               	clrf	fsr1h,c
  3108   002E98  0E02               	movlw	2
  3109   002E9A  26E1               	addwf	fsr1l,f,c
  3110   002E9C  50DE               	movf	postinc2,w,c
  3111   002E9E  5CE6               	subwf	postinc1,w,c
  3112   002EA0  50E6               	movf	postinc1,w,c
  3113   002EA2  0A80               	xorlw	128
  3114   002EA4  6F67               	movwf	(??_fputc+4)& (0+255),b
  3115   002EA6  50DE               	movf	postinc2,w,c
  3116   002EA8  0A80               	xorlw	128
  3117   002EAA  5967               	subwfb	(??_fputc+4)& (0+255),w,b
  3118   002EAC  B0D8               	btfsc	status,0,c
  3119   002EAE  EF5B  F017         	goto	u3931
  3120   002EB2  EF5D  F017         	goto	u3930
  3121   002EB6                     u3931:
  3122   002EB6  EF7D  F017         	goto	l1122
  3123   002EBA                     u3930:
  3124   002EBA                     l3497:
  3125                           
  3126                           ; BSR set to: 0
  3127   002EBA  5162               	movf	fputc@fp& (0+255),w,b
  3128   002EBC  6ED9               	movwf	fsr2l,c
  3129   002EBE  6ADA               	clrf	fsr2h,c
  3130   002EC0  0E02               	movlw	2
  3131   002EC2  26D9               	addwf	fsr2l,f,c
  3132   002EC4  CFDE F063          	movff	postinc2,??_fputc
  3133   002EC8  CFDD F064          	movff	postdec2,??_fputc+1
  3134   002ECC  5162               	movf	fputc@fp& (0+255),w,b
  3135   002ECE  6ED9               	movwf	fsr2l,c
  3136   002ED0  6ADA               	clrf	fsr2h,c
  3137   002ED2  CFDE F065          	movff	postinc2,??_fputc+2
  3138   002ED6  CFDD F066          	movff	postdec2,??_fputc+3
  3139   002EDA  5163               	movf	??_fputc& (0+255),w,b
  3140   002EDC  2565               	addwf	(??_fputc+2)& (0+255),w,b
  3141   002EDE  6ED9               	movwf	fsr2l,c
  3142   002EE0  5164               	movf	(??_fputc+1)& (0+255),w,b
  3143   002EE2  2166               	addwfc	(??_fputc+3)& (0+255),w,b
  3144   002EE4  6EDA               	movwf	fsr2h,c
  3145   002EE6  C060  FFDF         	movff	fputc@c,indf2
  3146   002EEA  5162               	movf	fputc@fp& (0+255),w,b
  3147   002EEC  6ED9               	movwf	fsr2l,c
  3148   002EEE  6ADA               	clrf	fsr2h,c
  3149   002EF0  0E02               	movlw	2
  3150   002EF2  26D9               	addwf	fsr2l,f,c
  3151   002EF4  2ADE               	incf	postinc2,f,c
  3152   002EF6  0E00               	movlw	0
  3153   002EF8  22DD               	addwfc	postdec2,f,c
  3154   002EFA                     l1122:
  3155   002EFA  0012               	return		;funcret
  3156   002EFC                     __end_of_fputc:
  3157                           	callstack 0
  3158                           
  3159 ;; *************** function _putch *****************
  3160 ;; Defined at:
  3161 ;;		line 7 in file "C:\Program Files\Microchip\xc8\v3.00\pic\sources\c99\common\putch.c"
  3162 ;; Parameters:    Size  Location     Type
  3163 ;;  c               1    wreg     unsigned char 
  3164 ;; Auto vars:     Size  Location     Type
  3165 ;;  c               1    0[COMRAM] unsigned char 
  3166 ;; Return value:  Size  Location     Type
  3167 ;;                  1    wreg      void 
  3168 ;; Registers used:
  3169 ;;		wreg
  3170 ;; Tracked objects:
  3171 ;;		On entry : 0/0
  3172 ;;		On exit  : 0/0
  3173 ;;		Unchanged: 0/0
  3174 ;; Data sizes:     COMRAM   BANK0   BANK1   BANK2   BANK3   BANK4   BANK5   BANK6   BANK7
  3175 ;;      Params:         0       0       0       0       0       0       0       0       0
  3176 ;;      Locals:         0       0       0       0       0       0       0       0       0
  3177 ;;      Temps:          0       0       0       0       0       0       0       0       0
  3178 ;;      Totals:         0       0       0       0       0       0       0       0       0
  3179 ;;Total ram usage:        0 bytes
  3180 ;; Hardware stack levels used: 1
  3181 ;; Hardware stack levels required when called: 7
  3182 ;; This function calls:
  3183 ;;		Nothing
  3184 ;; This function is called by:
  3185 ;;		_fputc
  3186 ;; This function uses a non-reentrant model
  3187 ;;
  3188                           
  3189                           	psect	text7
  3190   00375A                     __ptext7:
  3191                           	callstack 0
  3192   00375A                     _putch:
  3193                           	callstack 19
  3194   00375A  0012               	return		;funcret
  3195   00375C                     __end_of_putch:
  3196                           	callstack 0
  3197                           
  3198 ;; *************** function _abs *****************
  3199 ;; Defined at:
  3200 ;;		line 1 in file "C:\Program Files\Microchip\xc8\v3.00\pic\sources\c99\common\abs.c"
  3201 ;; Parameters:    Size  Location     Type
  3202 ;;  a               2    6[BANK0 ] int 
  3203 ;; Auto vars:     Size  Location     Type
  3204 ;;		None
  3205 ;; Return value:  Size  Location     Type
  3206 ;;                  2    6[BANK0 ] int 
  3207 ;; Registers used:
  3208 ;;		wreg, status,2, status,0
  3209 ;; Tracked objects:
  3210 ;;		On entry : 0/0
  3211 ;;		On exit  : 0/0
  3212 ;;		Unchanged: 0/0
  3213 ;; Data sizes:     COMRAM   BANK0   BANK1   BANK2   BANK3   BANK4   BANK5   BANK6   BANK7
  3214 ;;      Params:         0       2       0       0       0       0       0       0       0
  3215 ;;      Locals:         0       0       0       0       0       0       0       0       0
  3216 ;;      Temps:          0       2       0       0       0       0       0       0       0
  3217 ;;      Totals:         0       4       0       0       0       0       0       0       0
  3218 ;;Total ram usage:        4 bytes
  3219 ;; Hardware stack levels used: 1
  3220 ;; Hardware stack levels required when called: 7
  3221 ;; This function calls:
  3222 ;;		Nothing
  3223 ;; This function is called by:
  3224 ;;		_vfpfcnvrt
  3225 ;; This function uses a non-reentrant model
  3226 ;;
  3227                           
  3228                           	psect	text8
  3229   0034B2                     __ptext8:
  3230                           	callstack 0
  3231   0034B2                     _abs:
  3232                           	callstack 20
  3233   0034B2  0100               	movlb	0	; () banked
  3234   0034B4  BF67               	btfsc	(abs@a+1)& (0+255),7,b
  3235   0034B6  EF5F  F01A         	goto	u3941
  3236   0034BA  EF61  F01A         	goto	u3940
  3237   0034BE                     u3941:
  3238   0034BE  EF67  F01A         	goto	l1107
  3239   0034C2                     u3940:
  3240   0034C2                     
  3241                           ; BSR set to: 0
  3242   0034C2  C066  F066         	movff	abs@a,?_abs
  3243   0034C6  C067  F067         	movff	abs@a+1,?_abs+1
  3244   0034CA  EF73  F01A         	goto	l1110
  3245   0034CE                     l1107:
  3246                           
  3247                           ; BSR set to: 0
  3248   0034CE  C066  F068         	movff	abs@a,??_abs
  3249   0034D2  C067  F069         	movff	abs@a+1,??_abs+1
  3250   0034D6  1F68               	comf	??_abs& (0+255),f,b
  3251   0034D8  1F69               	comf	(??_abs+1)& (0+255),f,b
  3252   0034DA  4B68               	infsnz	??_abs& (0+255),f,b
  3253   0034DC  2B69               	incf	(??_abs+1)& (0+255),f,b
  3254   0034DE  C068  F066         	movff	??_abs,?_abs
  3255   0034E2  C069  F067         	movff	??_abs+1,?_abs+1
  3256   0034E6                     l1110:
  3257                           
  3258                           ; BSR set to: 0
  3259   0034E6  0012               	return		;funcret
  3260   0034E8                     __end_of_abs:
  3261                           	callstack 0
  3262                           
  3263 ;; *************** function ___awmod *****************
  3264 ;; Defined at:
  3265 ;;		line 7 in file "C:\Program Files\Microchip\xc8\v3.00\pic\sources\c99\common\awmod.c"
  3266 ;; Parameters:    Size  Location     Type
  3267 ;;  dividend        2    0[BANK0 ] int 
  3268 ;;  divisor         2    2[BANK0 ] int 
  3269 ;; Auto vars:     Size  Location     Type
  3270 ;;  sign            1    5[BANK0 ] unsigned char 
  3271 ;;  counter         1    4[BANK0 ] unsigned char 
  3272 ;; Return value:  Size  Location     Type
  3273 ;;                  2    0[BANK0 ] int 
  3274 ;; Registers used:
  3275 ;;		wreg, status,2, status,0
  3276 ;; Tracked objects:
  3277 ;;		On entry : 0/0
  3278 ;;		On exit  : 0/0
  3279 ;;		Unchanged: 0/0
  3280 ;; Data sizes:     COMRAM   BANK0   BANK1   BANK2   BANK3   BANK4   BANK5   BANK6   BANK7
  3281 ;;      Params:         0       4       0       0       0       0       0       0       0
  3282 ;;      Locals:         0       2       0       0       0       0       0       0       0
  3283 ;;      Temps:          0       0       0       0       0       0       0       0       0
  3284 ;;      Totals:         0       6       0       0       0       0       0       0       0
  3285 ;;Total ram usage:        6 bytes
  3286 ;; Hardware stack levels used: 1
  3287 ;; Hardware stack levels required when called: 7
  3288 ;; This function calls:
  3289 ;;		Nothing
  3290 ;; This function is called by:
  3291 ;;		_vfpfcnvrt
  3292 ;; This function uses a non-reentrant model
  3293 ;;
  3294                           
  3295                           	psect	text9
  3296   002EFC                     __ptext9:
  3297                           	callstack 0
  3298   002EFC                     ___awmod:
  3299                           	callstack 20
  3300   002EFC  0100               	movlb	0	; () banked
  3301   002EFE  6B65               	clrf	___awmod@sign& (0+255),b
  3302   002F00                     
  3303                           ; BSR set to: 0
  3304   002F00  BF61               	btfsc	(___awmod@dividend+1)& (0+255),7,b
  3305   002F02  EF87  F017         	goto	u3690
  3306   002F06  EF85  F017         	goto	u3691
  3307   002F0A                     u3691:
  3308   002F0A  EF8D  F017         	goto	l3371
  3309   002F0E                     u3690:
  3310   002F0E                     
  3311                           ; BSR set to: 0
  3312   002F0E  6D60               	negf	___awmod@dividend& (0+255),b
  3313   002F10  1F61               	comf	(___awmod@dividend+1)& (0+255),f,b
  3314   002F12  B0D8               	btfsc	status,0,c
  3315   002F14  2B61               	incf	(___awmod@dividend+1)& (0+255),f,b
  3316   002F16                     
  3317                           ; BSR set to: 0
  3318   002F16  0E01               	movlw	1
  3319   002F18  6F65               	movwf	___awmod@sign& (0+255),b
  3320   002F1A                     l3371:
  3321                           
  3322                           ; BSR set to: 0
  3323   002F1A  BF63               	btfsc	(___awmod@divisor+1)& (0+255),7,b
  3324   002F1C  EF94  F017         	goto	u3700
  3325   002F20  EF92  F017         	goto	u3701
  3326   002F24                     u3701:
  3327   002F24  EF98  F017         	goto	l3375
  3328   002F28                     u3700:
  3329   002F28                     
  3330                           ; BSR set to: 0
  3331   002F28  6D62               	negf	___awmod@divisor& (0+255),b
  3332   002F2A  1F63               	comf	(___awmod@divisor+1)& (0+255),f,b
  3333   002F2C  B0D8               	btfsc	status,0,c
  3334   002F2E  2B63               	incf	(___awmod@divisor+1)& (0+255),f,b
  3335   002F30                     l3375:
  3336                           
  3337                           ; BSR set to: 0
  3338   002F30  5162               	movf	___awmod@divisor& (0+255),w,b
  3339   002F32  1163               	iorwf	(___awmod@divisor+1)& (0+255),w,b
  3340   002F34  B4D8               	btfsc	status,2,c
  3341   002F36  EF9F  F017         	goto	u3711
  3342   002F3A  EFA1  F017         	goto	u3710
  3343   002F3E                     u3711:
  3344   002F3E  EFC5  F017         	goto	l3391
  3345   002F42                     u3710:
  3346   002F42                     
  3347                           ; BSR set to: 0
  3348   002F42  0E01               	movlw	1
  3349   002F44  6F64               	movwf	___awmod@counter& (0+255),b
  3350   002F46  EFA9  F017         	goto	l3381
  3351   002F4A                     l3379:
  3352                           
  3353                           ; BSR set to: 0
  3354   002F4A  90D8               	bcf	status,0,c
  3355   002F4C  3762               	rlcf	___awmod@divisor& (0+255),f,b
  3356   002F4E  3763               	rlcf	(___awmod@divisor+1)& (0+255),f,b
  3357   002F50  2B64               	incf	___awmod@counter& (0+255),f,b
  3358   002F52                     l3381:
  3359                           
  3360                           ; BSR set to: 0
  3361   002F52  AF63               	btfss	(___awmod@divisor+1)& (0+255),7,b
  3362   002F54  EFAE  F017         	goto	u3721
  3363   002F58  EFB0  F017         	goto	u3720
  3364   002F5C                     u3721:
  3365   002F5C  EFA5  F017         	goto	l3379
  3366   002F60                     u3720:
  3367   002F60                     l3383:
  3368                           
  3369                           ; BSR set to: 0
  3370   002F60  5162               	movf	___awmod@divisor& (0+255),w,b
  3371   002F62  5D60               	subwf	___awmod@dividend& (0+255),w,b
  3372   002F64  5163               	movf	(___awmod@divisor+1)& (0+255),w,b
  3373   002F66  5961               	subwfb	(___awmod@dividend+1)& (0+255),w,b
  3374   002F68  A0D8               	btfss	status,0,c
  3375   002F6A  EFB9  F017         	goto	u3731
  3376   002F6E  EFBB  F017         	goto	u3730
  3377   002F72                     u3731:
  3378   002F72  EFBF  F017         	goto	l3387
  3379   002F76                     u3730:
  3380   002F76                     
  3381                           ; BSR set to: 0
  3382   002F76  5162               	movf	___awmod@divisor& (0+255),w,b
  3383   002F78  5F60               	subwf	___awmod@dividend& (0+255),f,b
  3384   002F7A  5163               	movf	(___awmod@divisor+1)& (0+255),w,b
  3385   002F7C  5B61               	subwfb	(___awmod@dividend+1)& (0+255),f,b
  3386   002F7E                     l3387:
  3387                           
  3388                           ; BSR set to: 0
  3389   002F7E  90D8               	bcf	status,0,c
  3390   002F80  3363               	rrcf	(___awmod@divisor+1)& (0+255),f,b
  3391   002F82  3362               	rrcf	___awmod@divisor& (0+255),f,b
  3392   002F84                     
  3393                           ; BSR set to: 0
  3394   002F84  2F64               	decfsz	___awmod@counter& (0+255),f,b
  3395   002F86  EFB0  F017         	goto	l3383
  3396   002F8A                     l3391:
  3397                           
  3398                           ; BSR set to: 0
  3399   002F8A  5165               	movf	___awmod@sign& (0+255),w,b
  3400   002F8C  B4D8               	btfsc	status,2,c
  3401   002F8E  EFCB  F017         	goto	u3741
  3402   002F92  EFCD  F017         	goto	u3740
  3403   002F96                     u3741:
  3404   002F96  EFD1  F017         	goto	l3395
  3405   002F9A                     u3740:
  3406   002F9A                     
  3407                           ; BSR set to: 0
  3408   002F9A  6D60               	negf	___awmod@dividend& (0+255),b
  3409   002F9C  1F61               	comf	(___awmod@dividend+1)& (0+255),f,b
  3410   002F9E  B0D8               	btfsc	status,0,c
  3411   002FA0  2B61               	incf	(___awmod@dividend+1)& (0+255),f,b
  3412   002FA2                     l3395:
  3413                           
  3414                           ; BSR set to: 0
  3415   002FA2  C060  F060         	movff	___awmod@dividend,?___awmod
  3416   002FA6  C061  F061         	movff	___awmod@dividend+1,?___awmod+1
  3417   002FAA                     
  3418                           ; BSR set to: 0
  3419   002FAA  0012               	return		;funcret
  3420   002FAC                     __end_of___awmod:
  3421                           	callstack 0
  3422                           
  3423 ;; *************** function _UART_WriteString *****************
  3424 ;; Defined at:
  3425 ;;		line 118 in file "main.c"
  3426 ;; Parameters:    Size  Location     Type
  3427 ;;  s               2    1[BANK0 ] PTR const unsigned char 
  3428 ;;		 -> main@buffer(30), STR_10(17), STR_8(17), STR_4(29), 
  3429 ;;		 -> STR_1(37), 
  3430 ;; Auto vars:     Size  Location     Type
  3431 ;;		None
  3432 ;; Return value:  Size  Location     Type
  3433 ;;                  1    wreg      void 
  3434 ;; Registers used:
  3435 ;;		wreg, fsr1l, fsr1h, status,2, status,0, tblptrl, tblptrh, tblptru, cstack
  3436 ;; Tracked objects:
  3437 ;;		On entry : 0/0
  3438 ;;		On exit  : 0/0
  3439 ;;		Unchanged: 0/0
  3440 ;; Data sizes:     COMRAM   BANK0   BANK1   BANK2   BANK3   BANK4   BANK5   BANK6   BANK7
  3441 ;;      Params:         0       2       0       0       0       0       0       0       0
  3442 ;;      Locals:         0       0       0       0       0       0       0       0       0
  3443 ;;      Temps:          0       0       0       0       0       0       0       0       0
  3444 ;;      Totals:         0       2       0       0       0       0       0       0       0
  3445 ;;Total ram usage:        2 bytes
  3446 ;; Hardware stack levels used: 1
  3447 ;; Hardware stack levels required when called: 8
  3448 ;; This function calls:
  3449 ;;		_UART_WriteChar
  3450 ;; This function is called by:
  3451 ;;		_main
  3452 ;; This function uses a non-reentrant model
  3453 ;;
  3454                           
  3455                           	psect	text10
  3456   00326C                     __ptext10:
  3457                           	callstack 0
  3458   00326C                     _UART_WriteString:
  3459                           	callstack 22
  3460   00326C                     
  3461                           ;main.c: 119:     while (*s) UART_WriteChar(*s++);
  3462   00326C  EF4D  F019         	goto	l4055
  3463   003270                     l4051:
  3464   003270  C061  FFF6         	movff	UART_WriteString@s,tblptrl
  3465   003274  C062  FFF7         	movff	UART_WriteString@s+1,tblptrh
  3466   003278  6AF8               	clrf	tblptru,c
  3467   00327A  0E07               	movlw	(high __ramtop+-1)
  3468   00327C  64F7               	cpfsgt	tblptrh,c
  3469   00327E  D003               	bra	u4867
  3470   003280  0008               	tblrd		*
  3471   003282  50F5               	movf	tablat,w,c
  3472   003284  D005               	bra	u4860
  3473   003286                     u4867:
  3474   003286  CFF6 FFE1          	movff	tblptrl,fsr1l
  3475   00328A  CFF7 FFE2          	movff	tblptrh,fsr1h
  3476   00328E  50E7               	movf	indf1,w,c
  3477   003290                     u4860:
  3478   003290  EC55  F01B         	call	_UART_WriteChar
  3479   003294  0100               	movlb	0	; () banked
  3480   003296  4B61               	infsnz	UART_WriteString@s& (0+255),f,b
  3481   003298  2B62               	incf	(UART_WriteString@s+1)& (0+255),f,b
  3482   00329A                     l4055:
  3483   00329A  C061  FFF6         	movff	UART_WriteString@s,tblptrl
  3484   00329E  C062  FFF7         	movff	UART_WriteString@s+1,tblptrh
  3485   0032A2  6AF8               	clrf	tblptru,c
  3486   0032A4  0E07               	movlw	(high __ramtop+-1)
  3487   0032A6  64F7               	cpfsgt	tblptrh,c
  3488   0032A8  D003               	bra	u4877
  3489   0032AA  0008               	tblrd		*
  3490   0032AC  50F5               	movf	tablat,w,c
  3491   0032AE  D005               	bra	u4870
  3492   0032B0                     u4877:
  3493   0032B0  CFF6 FFE1          	movff	tblptrl,fsr1l
  3494   0032B4  CFF7 FFE2          	movff	tblptrh,fsr1h
  3495   0032B8  50E7               	movf	indf1,w,c
  3496   0032BA                     u4870:
  3497   0032BA  0900               	iorlw	0
  3498   0032BC  A4D8               	btfss	status,2,c
  3499   0032BE  EF63  F019         	goto	u4881
  3500   0032C2  EF65  F019         	goto	u4880
  3501   0032C6                     u4881:
  3502   0032C6  EF38  F019         	goto	l4051
  3503   0032CA                     u4880:
  3504   0032CA  0012               	return		;funcret
  3505   0032CC                     __end_of_UART_WriteString:
  3506                           	callstack 0
  3507                           
  3508 ;; *************** function _UART_WriteChar *****************
  3509 ;; Defined at:
  3510 ;;		line 112 in file "main.c"
  3511 ;; Parameters:    Size  Location     Type
  3512 ;;  c               1    wreg     unsigned char 
  3513 ;; Auto vars:     Size  Location     Type
  3514 ;;  c               1    0[BANK0 ] unsigned char 
  3515 ;; Return value:  Size  Location     Type
  3516 ;;                  1    wreg      void 
  3517 ;; Registers used:
  3518 ;;		wreg
  3519 ;; Tracked objects:
  3520 ;;		On entry : 0/0
  3521 ;;		On exit  : 0/0
  3522 ;;		Unchanged: 0/0
  3523 ;; Data sizes:     COMRAM   BANK0   BANK1   BANK2   BANK3   BANK4   BANK5   BANK6   BANK7
  3524 ;;      Params:         0       0       0       0       0       0       0       0       0
  3525 ;;      Locals:         0       1       0       0       0       0       0       0       0
  3526 ;;      Temps:          0       0       0       0       0       0       0       0       0
  3527 ;;      Totals:         0       1       0       0       0       0       0       0       0
  3528 ;;Total ram usage:        1 bytes
  3529 ;; Hardware stack levels used: 1
  3530 ;; Hardware stack levels required when called: 7
  3531 ;; This function calls:
  3532 ;;		Nothing
  3533 ;; This function is called by:
  3534 ;;		_UART_WriteString
  3535 ;; This function uses a non-reentrant model
  3536 ;;
  3537                           
  3538                           	psect	text11
  3539   0036AA                     __ptext11:
  3540                           	callstack 0
  3541   0036AA                     _UART_WriteChar:
  3542                           	callstack 22
  3543                           
  3544                           ;incstack = 0
  3545                           ;UART_WriteChar@c stored from wreg
  3546   0036AA  0100               	movlb	0	; () banked
  3547   0036AC  6F60               	movwf	UART_WriteChar@c& (0+255),b
  3548   0036AE                     l153:
  3549   0036AE  A2AC               	btfss	4012,1,c	;volatile
  3550   0036B0  EF5C  F01B         	goto	u4351
  3551   0036B4  EF5E  F01B         	goto	u4350
  3552   0036B8                     u4351:
  3553   0036B8  EF57  F01B         	goto	l153
  3554   0036BC                     u4350:
  3555   0036BC                     
  3556                           ;main.c: 114:     TXREG = c;
  3557   0036BC  C060  FFAD         	movff	UART_WriteChar@c,4013	;volatile
  3558   0036C0  0012               	return		;funcret
  3559   0036C2                     __end_of_UART_WriteChar:
  3560                           	callstack 0
  3561                           
  3562 ;; *************** function _UART_Init *****************
  3563 ;; Defined at:
  3564 ;;		line 102 in file "main.c"
  3565 ;; Parameters:    Size  Location     Type
  3566 ;;		None
  3567 ;; Auto vars:     Size  Location     Type
  3568 ;;		None
  3569 ;; Return value:  Size  Location     Type
  3570 ;;                  1    wreg      void 
  3571 ;; Registers used:
  3572 ;;		wreg, status,2
  3573 ;; Tracked objects:
  3574 ;;		On entry : 0/0
  3575 ;;		On exit  : 0/0
  3576 ;;		Unchanged: 0/0
  3577 ;; Data sizes:     COMRAM   BANK0   BANK1   BANK2   BANK3   BANK4   BANK5   BANK6   BANK7
  3578 ;;      Params:         0       0       0       0       0       0       0       0       0
  3579 ;;      Locals:         0       0       0       0       0       0       0       0       0
  3580 ;;      Temps:          0       0       0       0       0       0       0       0       0
  3581 ;;      Totals:         0       0       0       0       0       0       0       0       0
  3582 ;;Total ram usage:        0 bytes
  3583 ;; Hardware stack levels used: 1
  3584 ;; Hardware stack levels required when called: 7
  3585 ;; This function calls:
  3586 ;;		Nothing
  3587 ;; This function is called by:
  3588 ;;		_main
  3589 ;; This function uses a non-reentrant model
  3590 ;;
  3591                           
  3592                           	psect	text12
  3593   003730                     __ptext12:
  3594                           	callstack 0
  3595   003730                     _UART_Init:
  3596                           	callstack 23
  3597   003730                     
  3598                           ;main.c: 103:     SPBRG = 103;
  3599   003730  0E67               	movlw	103
  3600   003732  6EAF               	movwf	175,c	;volatile
  3601   003734                     
  3602                           ;main.c: 104:     BRGH = 1;
  3603   003734  84AC               	bsf	4012,2,c	;volatile
  3604   003736                     
  3605                           ;main.c: 105:     SYNC = 0;
  3606   003736  98AC               	bcf	4012,4,c	;volatile
  3607   003738                     
  3608                           ;main.c: 106:     TXEN = 1;
  3609   003738  8AAC               	bsf	4012,5,c	;volatile
  3610   00373A                     
  3611                           ;main.c: 107:     SPEN = 1;
  3612   00373A  8EAB               	bsf	4011,7,c	;volatile
  3613   00373C                     
  3614                           ;main.c: 108:     CREN = 1;
  3615   00373C  88AB               	bsf	4011,4,c	;volatile
  3616   00373E  0012               	return		;funcret
  3617   003740                     __end_of_UART_Init:
  3618                           	callstack 0
  3619                           
  3620 ;; *************** function _OLED_Print *****************
  3621 ;; Defined at:
  3622 ;;		line 356 in file "main.c"
  3623 ;; Parameters:    Size  Location     Type
  3624 ;;  str             2   13[BANK0 ] PTR const unsigned char 
  3625 ;;		 -> STR_21(2), STR_20(2), STR_19(2), STR_18(2), 
  3626 ;;		 -> STR_17(2), STR_16(2), STR_14(3), STR_9(2), 
  3627 ;;  page            1   15[BANK0 ] unsigned char 
  3628 ;;  col             1   16[BANK0 ] unsigned char 
  3629 ;; Auto vars:     Size  Location     Type
  3630 ;;		None
  3631 ;; Return value:  Size  Location     Type
  3632 ;;                  1    wreg      void 
  3633 ;; Registers used:
  3634 ;;		wreg, status,2, status,0, tblptrl, tblptrh, tblptru, prodl, prodh, cstack
  3635 ;; Tracked objects:
  3636 ;;		On entry : 0/0
  3637 ;;		On exit  : 0/0
  3638 ;;		Unchanged: 0/0
  3639 ;; Data sizes:     COMRAM   BANK0   BANK1   BANK2   BANK3   BANK4   BANK5   BANK6   BANK7
  3640 ;;      Params:         0       4       0       0       0       0       0       0       0
  3641 ;;      Locals:         0       0       0       0       0       0       0       0       0
  3642 ;;      Temps:          0       0       0       0       0       0       0       0       0
  3643 ;;      Totals:         0       4       0       0       0       0       0       0       0
  3644 ;;Total ram usage:        4 bytes
  3645 ;; Hardware stack levels used: 1
  3646 ;; Hardware stack levels required when called: 12
  3647 ;; This function calls:
  3648 ;;		_OLED_DrawChar
  3649 ;; This function is called by:
  3650 ;;		_main
  3651 ;; This function uses a non-reentrant model
  3652 ;;
  3653                           
  3654                           	psect	text13
  3655   0033FC                     __ptext13:
  3656                           	callstack 0
  3657   0033FC                     _OLED_Print:
  3658                           	callstack 18
  3659   0033FC                     
  3660                           ;main.c: 357:     while (*str) {
  3661   0033FC  EF11  F01A         	goto	l4163
  3662   003400                     l4157:
  3663                           
  3664                           ;main.c: 358:         OLED_DrawChar(*str, page, col);
  3665   003400  C06F  F065         	movff	OLED_Print@page,OLED_DrawChar@start_page
  3666   003404  C070  F066         	movff	OLED_Print@col,OLED_DrawChar@start_col
  3667   003408  C06D  FFF6         	movff	OLED_Print@str,tblptrl
  3668   00340C  C06E  FFF7         	movff	OLED_Print@str+1,tblptrh
  3669   003410                     	if	0	;tblptru may be non-zero
  3670   003410                     	endif
  3671   003410                     	if	0	;tblptru may be non-zero
  3672   003410                     	endif
  3673   003410  0008               	tblrd		*
  3674   003412  50F5               	movf	tablat,w,c
  3675   003414  ECE2  F013         	call	_OLED_DrawChar
  3676   003418                     
  3677                           ;main.c: 359:         col += 6;
  3678   003418  0E06               	movlw	6
  3679   00341A  0100               	movlb	0	; () banked
  3680   00341C  2770               	addwf	OLED_Print@col& (0+255),f,b
  3681   00341E                     
  3682                           ; BSR set to: 0
  3683                           ;main.c: 360:         str++;
  3684   00341E  4B6D               	infsnz	OLED_Print@str& (0+255),f,b
  3685   003420  2B6E               	incf	(OLED_Print@str+1)& (0+255),f,b
  3686   003422                     l4163:
  3687                           
  3688                           ;main.c: 357:     while (*str) {
  3689   003422  C06D  FFF6         	movff	OLED_Print@str,tblptrl
  3690   003426  C06E  FFF7         	movff	OLED_Print@str+1,tblptrh
  3691   00342A                     	if	0	;tblptru may be non-zero
  3692   00342A                     	endif
  3693   00342A                     	if	0	;tblptru may be non-zero
  3694   00342A                     	endif
  3695   00342A  0008               	tblrd		*
  3696   00342C  50F5               	movf	tablat,w,c
  3697   00342E  0900               	iorlw	0
  3698   003430  A4D8               	btfss	status,2,c
  3699   003432  EF1D  F01A         	goto	u4951
  3700   003436  EF1F  F01A         	goto	u4950
  3701   00343A                     u4951:
  3702   00343A  EF00  F01A         	goto	l4157
  3703   00343E                     u4950:
  3704   00343E  0012               	return		;funcret
  3705   003440                     __end_of_OLED_Print:
  3706                           	callstack 0
  3707                           
  3708 ;; *************** function _OLED_DrawChar *****************
  3709 ;; Defined at:
  3710 ;;		line 322 in file "main.c"
  3711 ;; Parameters:    Size  Location     Type
  3712 ;;  c               1    wreg     const unsigned char 
  3713 ;;  start_page      1    5[BANK0 ] unsigned char 
  3714 ;;  start_col       1    6[BANK0 ] unsigned char 
  3715 ;; Auto vars:     Size  Location     Type
  3716 ;;  c               1   12[BANK0 ] const unsigned char 
  3717 ;;  colData         1    9[BANK0 ] unsigned char 
  3718 ;;  col             1   11[BANK0 ] unsigned char 
  3719 ;;  idx             1   10[BANK0 ] unsigned char 
  3720 ;; Return value:  Size  Location     Type
  3721 ;;                  1    wreg      void 
  3722 ;; Registers used:
  3723 ;;		wreg, status,2, status,0, tblptrl, tblptrh, tblptru, prodl, prodh, cstack
  3724 ;; Tracked objects:
  3725 ;;		On entry : 0/0
  3726 ;;		On exit  : 0/0
  3727 ;;		Unchanged: 0/0
  3728 ;; Data sizes:     COMRAM   BANK0   BANK1   BANK2   BANK3   BANK4   BANK5   BANK6   BANK7
  3729 ;;      Params:         0       2       0       0       0       0       0       0       0
  3730 ;;      Locals:         0       4       0       0       0       0       0       0       0
  3731 ;;      Temps:          0       2       0       0       0       0       0       0       0
  3732 ;;      Totals:         0       8       0       0       0       0       0       0       0
  3733 ;;Total ram usage:        8 bytes
  3734 ;; Hardware stack levels used: 1
  3735 ;; Hardware stack levels required when called: 11
  3736 ;; This function calls:
  3737 ;;		_I2C_Start
  3738 ;;		_I2C_Stop
  3739 ;;		_I2C_Write
  3740 ;;		_OLED_SetCursor
  3741 ;; This function is called by:
  3742 ;;		_OLED_Print
  3743 ;; This function uses a non-reentrant model
  3744 ;;
  3745                           
  3746                           	psect	text14
  3747   0027C4                     __ptext14:
  3748                           	callstack 0
  3749   0027C4                     _OLED_DrawChar:
  3750                           	callstack 18
  3751                           
  3752                           ;incstack = 0
  3753                           ;OLED_DrawChar@c stored from wreg
  3754   0027C4  0100               	movlb	0	; () banked
  3755   0027C6  6F6C               	movwf	OLED_DrawChar@c& (0+255),b
  3756   0027C8                     
  3757                           ;main.c: 323:     uint8_t idx;;main.c: 325:     if (c >= '0' && c <= '9') {
  3758   0027C8  0E2F               	movlw	47
  3759   0027CA  0100               	movlb	0	; () banked
  3760   0027CC  656C               	cpfsgt	OLED_DrawChar@c& (0+255),b
  3761   0027CE  EFEB  F013         	goto	u4511
  3762   0027D2  EFED  F013         	goto	u4510
  3763   0027D6                     u4511:
  3764   0027D6  EFFA  F013         	goto	l3827
  3765   0027DA                     u4510:
  3766   0027DA                     
  3767                           ; BSR set to: 0
  3768   0027DA  0E3A               	movlw	58
  3769   0027DC  616C               	cpfslt	OLED_DrawChar@c& (0+255),b
  3770   0027DE  EFF3  F013         	goto	u4521
  3771   0027E2  EFF5  F013         	goto	u4520
  3772   0027E6                     u4521:
  3773   0027E6  EFFA  F013         	goto	l3827
  3774   0027EA                     u4520:
  3775   0027EA                     
  3776                           ; BSR set to: 0
  3777                           ;main.c: 326:         idx = c - '0' + 1;
  3778   0027EA  516C               	movf	OLED_DrawChar@c& (0+255),w,b
  3779   0027EC  0FD1               	addlw	209
  3780   0027EE  6F6A               	movwf	OLED_DrawChar@idx& (0+255),b
  3781                           
  3782                           ;main.c: 327:     } else if (c >= 'A' && c <= 'Z') {
  3783   0027F0  EF33  F014         	goto	l251
  3784   0027F4                     l3827:
  3785                           
  3786                           ; BSR set to: 0
  3787   0027F4  0E40               	movlw	64
  3788   0027F6  656C               	cpfsgt	OLED_DrawChar@c& (0+255),b
  3789   0027F8  EF00  F014         	goto	u4531
  3790   0027FC  EF02  F014         	goto	u4530
  3791   002800                     u4531:
  3792   002800  EF0F  F014         	goto	l3833
  3793   002804                     u4530:
  3794   002804                     
  3795                           ; BSR set to: 0
  3796   002804  0E5B               	movlw	91
  3797   002806  616C               	cpfslt	OLED_DrawChar@c& (0+255),b
  3798   002808  EF08  F014         	goto	u4541
  3799   00280C  EF0A  F014         	goto	u4540
  3800   002810                     u4541:
  3801   002810  EF0F  F014         	goto	l3833
  3802   002814                     u4540:
  3803   002814                     
  3804                           ; BSR set to: 0
  3805                           ;main.c: 328:         idx = c - 'A' + 13;
  3806   002814  516C               	movf	OLED_DrawChar@c& (0+255),w,b
  3807   002816  0FCC               	addlw	204
  3808   002818  6F6A               	movwf	OLED_DrawChar@idx& (0+255),b
  3809                           
  3810                           ;main.c: 329:     } else if ((uint8_t) c == 248) {
  3811   00281A  EF33  F014         	goto	l251
  3812   00281E                     l3833:
  3813                           
  3814                           ; BSR set to: 0
  3815   00281E  0EF8               	movlw	248
  3816   002820  196C               	xorwf	OLED_DrawChar@c& (0+255),w,b
  3817   002822  A4D8               	btfss	status,2,c
  3818   002824  EF16  F014         	goto	u4551
  3819   002828  EF18  F014         	goto	u4550
  3820   00282C                     u4551:
  3821   00282C  EF1C  F014         	goto	l3837
  3822   002830                     u4550:
  3823   002830                     
  3824                           ; BSR set to: 0
  3825                           ;main.c: 330:         idx = 11;
  3826   002830  0E0B               	movlw	11
  3827   002832  6F6A               	movwf	OLED_DrawChar@idx& (0+255),b
  3828                           
  3829                           ;main.c: 331:     } else if (c == '-') {
  3830   002834  EF33  F014         	goto	l251
  3831   002838                     l3837:
  3832                           
  3833                           ; BSR set to: 0
  3834   002838  0E2D               	movlw	45
  3835   00283A  196C               	xorwf	OLED_DrawChar@c& (0+255),w,b
  3836   00283C  A4D8               	btfss	status,2,c
  3837   00283E  EF23  F014         	goto	u4561
  3838   002842  EF25  F014         	goto	u4560
  3839   002846                     u4561:
  3840   002846  EF29  F014         	goto	l3841
  3841   00284A                     u4560:
  3842   00284A                     
  3843                           ; BSR set to: 0
  3844                           ;main.c: 332:         idx = 12;
  3845   00284A  0E0C               	movlw	12
  3846   00284C  6F6A               	movwf	OLED_DrawChar@idx& (0+255),b
  3847                           
  3848                           ;main.c: 333:     } else if (c == ' ') {
  3849   00284E  EF33  F014         	goto	l251
  3850   002852                     l3841:
  3851                           
  3852                           ; BSR set to: 0
  3853   002852  0E20               	movlw	32
  3854   002854  196C               	xorwf	OLED_DrawChar@c& (0+255),w,b
  3855   002856  A4D8               	btfss	status,2,c
  3856   002858  EF30  F014         	goto	u4571
  3857   00285C  EF32  F014         	goto	u4570
  3858   002860                     u4571:
  3859   002860  EF78  F014         	goto	l260
  3860   002864                     u4570:
  3861   002864                     
  3862                           ; BSR set to: 0
  3863                           ;main.c: 334:         idx = 0;
  3864   002864  6B6A               	clrf	OLED_DrawChar@idx& (0+255),b
  3865   002866                     l251:
  3866                           
  3867                           ; BSR set to: 0
  3868                           ;main.c: 337:     for (uint8_t col = 0; col < 5; col++) {
  3869   002866  6B6B               	clrf	OLED_DrawChar@col& (0+255),b
  3870   002868                     l3849:
  3871                           
  3872                           ; BSR set to: 0
  3873                           ;main.c: 338:         uint8_t colData = font5x7[idx][col];
  3874   002868  516A               	movf	OLED_DrawChar@idx& (0+255),w,b
  3875   00286A  0D05               	mullw	5
  3876   00286C  0E77               	movlw	low _font5x7
  3877   00286E  24F3               	addwf	243,w,c
  3878   002870  6F67               	movwf	??_OLED_DrawChar& (0+255),b
  3879   002872  0E7E               	movlw	high _font5x7
  3880   002874  20F4               	addwfc	prodh,w,c
  3881   002876  6F68               	movwf	(??_OLED_DrawChar+1)& (0+255),b
  3882   002878  516B               	movf	OLED_DrawChar@col& (0+255),w,b
  3883   00287A  2767               	addwf	??_OLED_DrawChar& (0+255),f,b
  3884   00287C  0E00               	movlw	0
  3885   00287E  2368               	addwfc	(??_OLED_DrawChar+1)& (0+255),f,b
  3886   002880  C067  FFF6         	movff	??_OLED_DrawChar,tblptrl
  3887   002884  C068  FFF7         	movff	??_OLED_DrawChar+1,tblptrh
  3888   002888                     	if	0	;tblptru may be non-zero
  3889   002888                     	endif
  3890   002888                     	if	0	;tblptru may be non-zero
  3891   002888                     	endif
  3892   002888  0008               	tblrd		*
  3893   00288A  CFF5 F069          	movff	tablat,OLED_DrawChar@colData
  3894   00288E                     
  3895                           ; BSR set to: 0
  3896                           ;main.c: 339:         OLED_SetCursor(start_page, start_col + col);
  3897   00288E  5166               	movf	OLED_DrawChar@start_col& (0+255),w,b
  3898   002890  256B               	addwf	OLED_DrawChar@col& (0+255),w,b
  3899   002892  6F63               	movwf	OLED_SetCursor@col& (0+255),b
  3900   002894  5165               	movf	OLED_DrawChar@start_page& (0+255),w,b
  3901   002896  ECCF  F01A         	call	_OLED_SetCursor
  3902   00289A                     
  3903                           ;main.c: 340:         I2C_Start();
  3904   00289A  EC6C  F01B         	call	_I2C_Start	;wreg free
  3905   00289E                     
  3906                           ;main.c: 341:         I2C_Write(0x3C << 1);
  3907   00289E  0E78               	movlw	120
  3908   0028A0  EC3A  F01B         	call	_I2C_Write
  3909   0028A4                     
  3910                           ;main.c: 342:         I2C_Write(0x40);
  3911   0028A4  0E40               	movlw	64
  3912   0028A6  EC3A  F01B         	call	_I2C_Write
  3913   0028AA                     
  3914                           ;main.c: 343:         I2C_Write(colData);
  3915   0028AA  0100               	movlb	0	; () banked
  3916   0028AC  5169               	movf	OLED_DrawChar@colData& (0+255),w,b
  3917   0028AE  EC3A  F01B         	call	_I2C_Write
  3918   0028B2                     
  3919                           ;main.c: 344:         I2C_Stop();
  3920   0028B2  EC61  F01B         	call	_I2C_Stop	;wreg free
  3921   0028B6                     
  3922                           ;main.c: 345:     }
  3923   0028B6  0100               	movlb	0	; () banked
  3924   0028B8  2B6B               	incf	OLED_DrawChar@col& (0+255),f,b
  3925   0028BA                     
  3926                           ; BSR set to: 0
  3927   0028BA  0E04               	movlw	4
  3928   0028BC  656B               	cpfsgt	OLED_DrawChar@col& (0+255),b
  3929   0028BE  EF63  F014         	goto	u4581
  3930   0028C2  EF65  F014         	goto	u4580
  3931   0028C6                     u4581:
  3932   0028C6  EF34  F014         	goto	l3849
  3933   0028CA                     u4580:
  3934   0028CA                     
  3935                           ; BSR set to: 0
  3936                           ;main.c: 347:     OLED_SetCursor(start_page, start_col + 5);
  3937   0028CA  5166               	movf	OLED_DrawChar@start_col& (0+255),w,b
  3938   0028CC  0F05               	addlw	5
  3939   0028CE  6F63               	movwf	OLED_SetCursor@col& (0+255),b
  3940   0028D0  5165               	movf	OLED_DrawChar@start_page& (0+255),w,b
  3941   0028D2  ECCF  F01A         	call	_OLED_SetCursor
  3942                           
  3943                           ;main.c: 348:     I2C_Start();
  3944   0028D6  EC6C  F01B         	call	_I2C_Start	;wreg free
  3945                           
  3946                           ;main.c: 349:     I2C_Write(0x3C << 1);
  3947   0028DA  0E78               	movlw	120
  3948   0028DC  EC3A  F01B         	call	_I2C_Write
  3949                           
  3950                           ;main.c: 350:     I2C_Write(0x40);
  3951   0028E0  0E40               	movlw	64
  3952   0028E2  EC3A  F01B         	call	_I2C_Write
  3953                           
  3954                           ;main.c: 351:     I2C_Write(0x00);
  3955   0028E6  0E00               	movlw	0
  3956   0028E8  EC3A  F01B         	call	_I2C_Write
  3957                           
  3958                           ;main.c: 352:     I2C_Stop();
  3959   0028EC  EC61  F01B         	call	_I2C_Stop	;wreg free
  3960   0028F0                     l260:
  3961   0028F0  0012               	return		;funcret
  3962   0028F2                     __end_of_OLED_DrawChar:
  3963                           	callstack 0
  3964                           
  3965 ;; *************** function _OLED_Init *****************
  3966 ;; Defined at:
  3967 ;;		line 169 in file "main.c"
  3968 ;; Parameters:    Size  Location     Type
  3969 ;;		None
  3970 ;; Auto vars:     Size  Location     Type
  3971 ;;		None
  3972 ;; Return value:  Size  Location     Type
  3973 ;;                  1    wreg      void 
  3974 ;; Registers used:
  3975 ;;		wreg, status,2, status,0, cstack
  3976 ;; Tracked objects:
  3977 ;;		On entry : 0/0
  3978 ;;		On exit  : 0/0
  3979 ;;		Unchanged: 0/0
  3980 ;; Data sizes:     COMRAM   BANK0   BANK1   BANK2   BANK3   BANK4   BANK5   BANK6   BANK7
  3981 ;;      Params:         0       0       0       0       0       0       0       0       0
  3982 ;;      Locals:         0       0       0       0       0       0       0       0       0
  3983 ;;      Temps:          0       2       0       0       0       0       0       0       0
  3984 ;;      Totals:         0       2       0       0       0       0       0       0       0
  3985 ;;Total ram usage:        2 bytes
  3986 ;; Hardware stack levels used: 1
  3987 ;; Hardware stack levels required when called: 10
  3988 ;; This function calls:
  3989 ;;		_OLED_Command
  3990 ;; This function is called by:
  3991 ;;		_main
  3992 ;; This function uses a non-reentrant model
  3993 ;;
  3994                           
  3995                           	psect	text15
  3996   002FAC                     __ptext15:
  3997                           	callstack 0
  3998   002FAC                     _OLED_Init:
  3999                           	callstack 20
  4000   002FAC                     
  4001                           ;main.c: 170:     _delay((unsigned long)((100)*(16000000/4000.0)));
  4002   002FAC  0E03               	movlw	3
  4003   002FAE  0100               	movlb	0	; () banked
  4004   002FB0  6F64               	movwf	(??_OLED_Init+1)& (0+255),b
  4005   002FB2  0E08               	movlw	8
  4006   002FB4  6F63               	movwf	??_OLED_Init& (0+255),b
  4007   002FB6  0E77               	movlw	119
  4008   002FB8                     u5477:
  4009   002FB8  2EE8               	decfsz	wreg,f,c
  4010   002FBA  D7FE               	bra	u5477
  4011   002FBC  2F63               	decfsz	??_OLED_Init& (0+255),f,b
  4012   002FBE  D7FC               	bra	u5477
  4013   002FC0  2F64               	decfsz	(??_OLED_Init+1)& (0+255),f,b
  4014   002FC2  D7FA               	bra	u5477
  4015   002FC4                     
  4016                           ;main.c: 171:     OLED_Command(0xAE);
  4017   002FC4  0EAE               	movlw	174
  4018   002FC6  EC0A  F01B         	call	_OLED_Command
  4019   002FCA                     
  4020                           ;main.c: 172:     OLED_Command(0xD5);
  4021   002FCA  0ED5               	movlw	213
  4022   002FCC  EC0A  F01B         	call	_OLED_Command
  4023   002FD0                     
  4024                           ;main.c: 173:     OLED_Command(0x80);
  4025   002FD0  0E80               	movlw	128
  4026   002FD2  EC0A  F01B         	call	_OLED_Command
  4027   002FD6                     
  4028                           ;main.c: 174:     OLED_Command(0xA8);
  4029   002FD6  0EA8               	movlw	168
  4030   002FD8  EC0A  F01B         	call	_OLED_Command
  4031   002FDC                     
  4032                           ;main.c: 175:     OLED_Command(0x3F);
  4033   002FDC  0E3F               	movlw	63
  4034   002FDE  EC0A  F01B         	call	_OLED_Command
  4035   002FE2                     
  4036                           ;main.c: 176:     OLED_Command(0xD3);
  4037   002FE2  0ED3               	movlw	211
  4038   002FE4  EC0A  F01B         	call	_OLED_Command
  4039   002FE8                     
  4040                           ;main.c: 177:     OLED_Command(0x00);
  4041   002FE8  0E00               	movlw	0
  4042   002FEA  EC0A  F01B         	call	_OLED_Command
  4043   002FEE                     
  4044                           ;main.c: 178:     OLED_Command(0x40);
  4045   002FEE  0E40               	movlw	64
  4046   002FF0  EC0A  F01B         	call	_OLED_Command
  4047   002FF4                     
  4048                           ;main.c: 179:     OLED_Command(0x8D);
  4049   002FF4  0E8D               	movlw	141
  4050   002FF6  EC0A  F01B         	call	_OLED_Command
  4051   002FFA                     
  4052                           ;main.c: 180:     OLED_Command(0x14);
  4053   002FFA  0E14               	movlw	20
  4054   002FFC  EC0A  F01B         	call	_OLED_Command
  4055   003000                     
  4056                           ;main.c: 181:     OLED_Command(0x20);
  4057   003000  0E20               	movlw	32
  4058   003002  EC0A  F01B         	call	_OLED_Command
  4059   003006                     
  4060                           ;main.c: 182:     OLED_Command(0x00);
  4061   003006  0E00               	movlw	0
  4062   003008  EC0A  F01B         	call	_OLED_Command
  4063   00300C                     
  4064                           ;main.c: 183:     OLED_Command(0xA1);
  4065   00300C  0EA1               	movlw	161
  4066   00300E  EC0A  F01B         	call	_OLED_Command
  4067   003012                     
  4068                           ;main.c: 184:     OLED_Command(0xC8);
  4069   003012  0EC8               	movlw	200
  4070   003014  EC0A  F01B         	call	_OLED_Command
  4071   003018                     
  4072                           ;main.c: 185:     OLED_Command(0xDA);
  4073   003018  0EDA               	movlw	218
  4074   00301A  EC0A  F01B         	call	_OLED_Command
  4075   00301E                     
  4076                           ;main.c: 186:     OLED_Command(0x12);
  4077   00301E  0E12               	movlw	18
  4078   003020  EC0A  F01B         	call	_OLED_Command
  4079   003024                     
  4080                           ;main.c: 187:     OLED_Command(0x81);
  4081   003024  0E81               	movlw	129
  4082   003026  EC0A  F01B         	call	_OLED_Command
  4083   00302A                     
  4084                           ;main.c: 188:     OLED_Command(0xCF);
  4085   00302A  0ECF               	movlw	207
  4086   00302C  EC0A  F01B         	call	_OLED_Command
  4087   003030                     
  4088                           ;main.c: 189:     OLED_Command(0xD9);
  4089   003030  0ED9               	movlw	217
  4090   003032  EC0A  F01B         	call	_OLED_Command
  4091   003036                     
  4092                           ;main.c: 190:     OLED_Command(0xF1);
  4093   003036  0EF1               	movlw	241
  4094   003038  EC0A  F01B         	call	_OLED_Command
  4095   00303C                     
  4096                           ;main.c: 191:     OLED_Command(0xDB);
  4097   00303C  0EDB               	movlw	219
  4098   00303E  EC0A  F01B         	call	_OLED_Command
  4099   003042                     
  4100                           ;main.c: 192:     OLED_Command(0x40);
  4101   003042  0E40               	movlw	64
  4102   003044  EC0A  F01B         	call	_OLED_Command
  4103   003048                     
  4104                           ;main.c: 193:     OLED_Command(0xA4);
  4105   003048  0EA4               	movlw	164
  4106   00304A  EC0A  F01B         	call	_OLED_Command
  4107   00304E                     
  4108                           ;main.c: 194:     OLED_Command(0xA6);
  4109   00304E  0EA6               	movlw	166
  4110   003050  EC0A  F01B         	call	_OLED_Command
  4111   003054                     
  4112                           ;main.c: 195:     OLED_Command(0xAF);
  4113   003054  0EAF               	movlw	175
  4114   003056  EC0A  F01B         	call	_OLED_Command
  4115   00305A  0012               	return		;funcret
  4116   00305C                     __end_of_OLED_Init:
  4117                           	callstack 0
  4118                           
  4119 ;; *************** function _OLED_DrawCentered2x_AtPage *****************
  4120 ;; Defined at:
  4121 ;;		line 308 in file "main.c"
  4122 ;; Parameters:    Size  Location     Type
  4123 ;;  str             2   28[BANK0 ] PTR const unsigned char 
  4124 ;;		 -> main@angleStr(20), STR_7(6), STR_6(8), STR_5(10), 
  4125 ;;		 -> STR_3(5), STR_2(10), 
  4126 ;;  page            1   30[BANK0 ] unsigned char 
  4127 ;; Auto vars:     Size  Location     Type
  4128 ;;  i               1   39[BANK0 ] unsigned char 
  4129 ;;  tmp             2   33[BANK0 ] PTR const unsigned char 
  4130 ;;		 -> main@angleStr(20), STR_7(6), STR_6(8), STR_5(10), 
  4131 ;;		 -> STR_3(5), STR_2(10), 
  4132 ;;  len             1   38[BANK0 ] unsigned char 
  4133 ;;  charWidth       1   37[BANK0 ] unsigned char 
  4134 ;;  startCol        1   36[BANK0 ] unsigned char 
  4135 ;;  totalWidth      1   35[BANK0 ] unsigned char 
  4136 ;; Return value:  Size  Location     Type
  4137 ;;                  1    wreg      void 
  4138 ;; Registers used:
  4139 ;;		wreg, fsr1l, fsr1h, fsr2l, fsr2h, status,2, status,0, tblptrl, tblptrh, tblptru, prodl, prodh, cstack
  4140 ;; Tracked objects:
  4141 ;;		On entry : 0/0
  4142 ;;		On exit  : 0/0
  4143 ;;		Unchanged: 0/0
  4144 ;; Data sizes:     COMRAM   BANK0   BANK1   BANK2   BANK3   BANK4   BANK5   BANK6   BANK7
  4145 ;;      Params:         0       3       0       0       0       0       0       0       0
  4146 ;;      Locals:         0       7       0       0       0       0       0       0       0
  4147 ;;      Temps:          0       2       0       0       0       0       0       0       0
  4148 ;;      Totals:         0      12       0       0       0       0       0       0       0
  4149 ;;Total ram usage:       12 bytes
  4150 ;; Hardware stack levels used: 1
  4151 ;; Hardware stack levels required when called: 12
  4152 ;; This function calls:
  4153 ;;		_OLED_DrawScaledChar
  4154 ;;		___awdiv
  4155 ;; This function is called by:
  4156 ;;		_main
  4157 ;; This function uses a non-reentrant model
  4158 ;;
  4159                           
  4160                           	psect	text16
  4161   002B00                     __ptext16:
  4162                           	callstack 0
  4163   002B00                     _OLED_DrawCentered2x_AtPage:
  4164                           	callstack 18
  4165   002B00                     
  4166                           ;main.c: 309:     uint8_t len = 0;
  4167   002B00  0100               	movlb	0	; () banked
  4168   002B02  6B86               	clrf	OLED_DrawCentered2x_AtPage@len& (0+255),b
  4169   002B04                     
  4170                           ; BSR set to: 0
  4171                           ;main.c: 310:     const char* tmp = str;
  4172   002B04  C07C  F081         	movff	OLED_DrawCentered2x_AtPage@str,OLED_DrawCentered2x_AtPage@tmp
  4173   002B08  C07D  F082         	movff	OLED_DrawCentered2x_AtPage@str+1,OLED_DrawCentered2x_AtPage@tmp+1
  4174                           
  4175                           ;main.c: 311:     while (*tmp++) len++;
  4176   002B0C  EF8A  F015         	goto	l4139
  4177   002B10                     l4137:
  4178   002B10  0100               	movlb	0	; () banked
  4179   002B12  2B86               	incf	OLED_DrawCentered2x_AtPage@len& (0+255),f,b
  4180   002B14                     l4139:
  4181                           
  4182                           ; BSR set to: 0
  4183   002B14  5181               	movf	OLED_DrawCentered2x_AtPage@tmp& (0+255),w,b
  4184   002B16  6F7F               	movwf	??_OLED_DrawCentered2x_AtPage& (0+255),b
  4185   002B18  5182               	movf	(OLED_DrawCentered2x_AtPage@tmp+1)& (0+255),w,b
  4186   002B1A  6F80               	movwf	(??_OLED_DrawCentered2x_AtPage+1)& (0+255),b
  4187   002B1C  4B81               	infsnz	OLED_DrawCentered2x_AtPage@tmp& (0+255),f,b
  4188   002B1E  2B82               	incf	(OLED_DrawCentered2x_AtPage@tmp+1)& (0+255),f,b
  4189   002B20  C07F  FFF6         	movff	??_OLED_DrawCentered2x_AtPage,tblptrl
  4190   002B24  C080  FFF7         	movff	??_OLED_DrawCentered2x_AtPage+1,tblptrh
  4191   002B28  6AF8               	clrf	tblptru,c
  4192   002B2A  0E07               	movlw	(high __ramtop+-1)
  4193   002B2C  64F7               	cpfsgt	tblptrh,c
  4194   002B2E  D003               	bra	u4917
  4195   002B30  0008               	tblrd		*
  4196   002B32  50F5               	movf	tablat,w,c
  4197   002B34  D005               	bra	u4910
  4198   002B36                     u4917:
  4199   002B36  CFF6 FFE1          	movff	tblptrl,fsr1l
  4200   002B3A  CFF7 FFE2          	movff	tblptrh,fsr1h
  4201   002B3E  50E7               	movf	indf1,w,c
  4202   002B40                     u4910:
  4203   002B40  0900               	iorlw	0
  4204   002B42  A4D8               	btfss	status,2,c
  4205   002B44  EFA6  F015         	goto	u4921
  4206   002B48  EFA8  F015         	goto	u4920
  4207   002B4C                     u4921:
  4208   002B4C  EF88  F015         	goto	l4137
  4209   002B50                     u4920:
  4210   002B50                     
  4211                           ;main.c: 312:     uint8_t charWidth = 5 * 2;
  4212   002B50  0E0A               	movlw	10
  4213   002B52  0100               	movlb	0	; () banked
  4214   002B54  6F85               	movwf	OLED_DrawCentered2x_AtPage@charWidth& (0+255),b
  4215   002B56                     
  4216                           ; BSR set to: 0
  4217                           ;main.c: 313:     uint8_t totalWidth = len * (charWidth + 2);
  4218   002B56  5186               	movf	OLED_DrawCentered2x_AtPage@len& (0+255),w,b
  4219   002B58  0D0C               	mullw	12
  4220   002B5A  CFF3 F083          	movff	prodl,OLED_DrawCentered2x_AtPage@totalWidth
  4221   002B5E                     
  4222                           ; BSR set to: 0
  4223                           ;main.c: 314:     uint8_t startCol = (128 - totalWidth) / 2;
  4224   002B5E  5183               	movf	OLED_DrawCentered2x_AtPage@totalWidth& (0+255),w,b
  4225   002B60  0880               	sublw	128
  4226   002B62  6F60               	movwf	___awdiv@dividend& (0+255),b
  4227   002B64  0E00               	movlw	0
  4228   002B66  A0D8               	btfss	status,0,c
  4229   002B68  2AE8               	incf	wreg,f,c
  4230   002B6A  0800               	sublw	0
  4231   002B6C  6F61               	movwf	(___awdiv@dividend+1)& (0+255),b
  4232   002B6E  0E00               	movlw	0
  4233   002B70  6F63               	movwf	(___awdiv@divisor+1)& (0+255),b
  4234   002B72  0E02               	movlw	2
  4235   002B74  6F62               	movwf	___awdiv@divisor& (0+255),b
  4236   002B76  EC5D  F016         	call	___awdiv	;wreg free
  4237   002B7A  0100               	movlb	0	; () banked
  4238   002B7C  5160               	movf	?___awdiv& (0+255),w,b
  4239   002B7E  6F84               	movwf	OLED_DrawCentered2x_AtPage@startCol& (0+255),b
  4240   002B80                     
  4241                           ; BSR set to: 0
  4242                           ;main.c: 316:     for (uint8_t i = 0; i < len; i++) {
  4243   002B80  6B87               	clrf	OLED_DrawCentered2x_AtPage@i& (0+255),b
  4244   002B82  EFE7  F015         	goto	l4153
  4245   002B86                     l4149:
  4246                           
  4247                           ; BSR set to: 0
  4248                           ;main.c: 317:         OLED_DrawScaledChar(str[i], 2, page, startCol + i * (charWidth + 2
      +                          ));
  4249   002B86  0E02               	movlw	2
  4250   002B88  6F68               	movwf	OLED_DrawScaledChar@scale& (0+255),b
  4251   002B8A  C07E  F069         	movff	OLED_DrawCentered2x_AtPage@page,OLED_DrawScaledChar@start_page
  4252   002B8E  5185               	movf	OLED_DrawCentered2x_AtPage@charWidth& (0+255),w,b
  4253   002B90  0F02               	addlw	2
  4254   002B92  0387               	mulwf	OLED_DrawCentered2x_AtPage@i& (0+255),b
  4255   002B94  50F3               	movf	243,w,c
  4256   002B96  2584               	addwf	OLED_DrawCentered2x_AtPage@startCol& (0+255),w,b
  4257   002B98  6F6A               	movwf	OLED_DrawScaledChar@start_col& (0+255),b
  4258   002B9A  5187               	movf	OLED_DrawCentered2x_AtPage@i& (0+255),w,b
  4259   002B9C  257C               	addwf	OLED_DrawCentered2x_AtPage@str& (0+255),w,b
  4260   002B9E  6F7F               	movwf	??_OLED_DrawCentered2x_AtPage& (0+255),b
  4261   002BA0  0E00               	movlw	0
  4262   002BA2  217D               	addwfc	(OLED_DrawCentered2x_AtPage@str+1)& (0+255),w,b
  4263   002BA4  6F80               	movwf	(??_OLED_DrawCentered2x_AtPage+1)& (0+255),b
  4264   002BA6  C07F  FFF6         	movff	??_OLED_DrawCentered2x_AtPage,tblptrl
  4265   002BAA  C080  FFF7         	movff	??_OLED_DrawCentered2x_AtPage+1,tblptrh
  4266   002BAE  6AF8               	clrf	tblptru,c
  4267   002BB0  0E07               	movlw	(high __ramtop+-1)
  4268   002BB2  64F7               	cpfsgt	tblptrh,c
  4269   002BB4  D003               	bra	u4937
  4270   002BB6  0008               	tblrd		*
  4271   002BB8  50F5               	movf	tablat,w,c
  4272   002BBA  D005               	bra	u4930
  4273   002BBC                     u4937:
  4274   002BBC  CFF6 FFE1          	movff	tblptrl,fsr1l
  4275   002BC0  CFF7 FFE2          	movff	tblptrh,fsr1h
  4276   002BC4  50E7               	movf	indf1,w,c
  4277   002BC6                     u4930:
  4278   002BC6  EC52  F010         	call	_OLED_DrawScaledChar
  4279   002BCA                     
  4280                           ;main.c: 318:     }
  4281   002BCA  0100               	movlb	0	; () banked
  4282   002BCC  2B87               	incf	OLED_DrawCentered2x_AtPage@i& (0+255),f,b
  4283   002BCE                     l4153:
  4284                           
  4285                           ; BSR set to: 0
  4286   002BCE  5186               	movf	OLED_DrawCentered2x_AtPage@len& (0+255),w,b
  4287   002BD0  5D87               	subwf	OLED_DrawCentered2x_AtPage@i& (0+255),w,b
  4288   002BD2  A0D8               	btfss	status,0,c
  4289   002BD4  EFEE  F015         	goto	u4941
  4290   002BD8  EFF0  F015         	goto	u4940
  4291   002BDC                     u4941:
  4292   002BDC  EFC3  F015         	goto	l4149
  4293   002BE0                     u4940:
  4294   002BE0                     
  4295                           ; BSR set to: 0
  4296   002BE0  0012               	return		;funcret
  4297   002BE2                     __end_of_OLED_DrawCentered2x_AtPage:
  4298                           	callstack 0
  4299                           
  4300 ;; *************** function _OLED_DrawScaledChar *****************
  4301 ;; Defined at:
  4302 ;;		line 262 in file "main.c"
  4303 ;; Parameters:    Size  Location     Type
  4304 ;;  c               1    wreg     unsigned char 
  4305 ;;  scale           1    8[BANK0 ] unsigned char 
  4306 ;;  start_page      1    9[BANK0 ] unsigned char 
  4307 ;;  start_col       1   10[BANK0 ] unsigned char 
  4308 ;; Auto vars:     Size  Location     Type
  4309 ;;  c               1   27[BANK0 ] unsigned char 
  4310 ;;  outBit          1   19[BANK0 ] unsigned char 
  4311 ;;  outPage         1   18[BANK0 ] unsigned char 
  4312 ;;  p               1   25[BANK0 ] unsigned char 
  4313 ;;  v               1   20[BANK0 ] unsigned char 
  4314 ;;  pixel           1   17[BANK0 ] unsigned char 
  4315 ;;  x               1   23[BANK0 ] unsigned char 
  4316 ;;  bit             1   24[BANK0 ] unsigned char 
  4317 ;;  scaled_col      3   13[BANK0 ] unsigned char [3]
  4318 ;;  rowOut          1   22[BANK0 ] unsigned char 
  4319 ;;  colData         1   16[BANK0 ] unsigned char 
  4320 ;;  col             1   26[BANK0 ] unsigned char 
  4321 ;;  idx             1   21[BANK0 ] unsigned char 
  4322 ;; Return value:  Size  Location     Type
  4323 ;;                  1    wreg      void 
  4324 ;; Registers used:
  4325 ;;		wreg, fsr2l, fsr2h, status,2, status,0, tblptrl, tblptrh, tblptru, prodl, prodh, cstack
  4326 ;; Tracked objects:
  4327 ;;		On entry : 0/0
  4328 ;;		On exit  : 0/0
  4329 ;;		Unchanged: 0/0
  4330 ;; Data sizes:     COMRAM   BANK0   BANK1   BANK2   BANK3   BANK4   BANK5   BANK6   BANK7
  4331 ;;      Params:         0       3       0       0       0       0       0       0       0
  4332 ;;      Locals:         0      15       0       0       0       0       0       0       0
  4333 ;;      Temps:          0       2       0       0       0       0       0       0       0
  4334 ;;      Totals:         0      20       0       0       0       0       0       0       0
  4335 ;;Total ram usage:       20 bytes
  4336 ;; Hardware stack levels used: 1
  4337 ;; Hardware stack levels required when called: 11
  4338 ;; This function calls:
  4339 ;;		_I2C_Start
  4340 ;;		_I2C_Stop
  4341 ;;		_I2C_Write
  4342 ;;		_OLED_SetCursor
  4343 ;;		___awdiv
  4344 ;; This function is called by:
  4345 ;;		_OLED_DrawCentered2x_AtPage
  4346 ;; This function uses a non-reentrant model
  4347 ;;
  4348                           
  4349                           	psect	text17
  4350   0020A4                     __ptext17:
  4351                           	callstack 0
  4352   0020A4                     _OLED_DrawScaledChar:
  4353                           	callstack 18
  4354                           
  4355                           ; BSR set to: 0
  4356                           ;incstack = 0
  4357                           ;OLED_DrawScaledChar@c stored from wreg
  4358   0020A4  0100               	movlb	0	; () banked
  4359   0020A6  6F7B               	movwf	OLED_DrawScaledChar@c& (0+255),b
  4360   0020A8                     
  4361                           ;main.c: 263:     uint8_t idx;;main.c: 265:     if (c >= '0' && c <= '9') {
  4362   0020A8  0E2F               	movlw	47
  4363   0020AA  0100               	movlb	0	; () banked
  4364   0020AC  657B               	cpfsgt	OLED_DrawScaledChar@c& (0+255),b
  4365   0020AE  EF5B  F010         	goto	u4361
  4366   0020B2  EF5D  F010         	goto	u4360
  4367   0020B6                     u4361:
  4368   0020B6  EF6A  F010         	goto	l3741
  4369   0020BA                     u4360:
  4370   0020BA                     
  4371                           ; BSR set to: 0
  4372   0020BA  0E3A               	movlw	58
  4373   0020BC  617B               	cpfslt	OLED_DrawScaledChar@c& (0+255),b
  4374   0020BE  EF63  F010         	goto	u4371
  4375   0020C2  EF65  F010         	goto	u4370
  4376   0020C6                     u4371:
  4377   0020C6  EF6A  F010         	goto	l3741
  4378   0020CA                     u4370:
  4379   0020CA                     
  4380                           ; BSR set to: 0
  4381                           ;main.c: 266:         idx = c - '0' + 1;
  4382   0020CA  517B               	movf	OLED_DrawScaledChar@c& (0+255),w,b
  4383   0020CC  0FD1               	addlw	209
  4384   0020CE  6F75               	movwf	OLED_DrawScaledChar@idx& (0+255),b
  4385                           
  4386                           ;main.c: 267:     } else if (c >= 'A' && c <= 'Z') {
  4387   0020D0  EFA3  F010         	goto	l213
  4388   0020D4                     l3741:
  4389                           
  4390                           ; BSR set to: 0
  4391   0020D4  0E40               	movlw	64
  4392   0020D6  657B               	cpfsgt	OLED_DrawScaledChar@c& (0+255),b
  4393   0020D8  EF70  F010         	goto	u4381
  4394   0020DC  EF72  F010         	goto	u4380
  4395   0020E0                     u4381:
  4396   0020E0  EF7F  F010         	goto	l3747
  4397   0020E4                     u4380:
  4398   0020E4                     
  4399                           ; BSR set to: 0
  4400   0020E4  0E5B               	movlw	91
  4401   0020E6  617B               	cpfslt	OLED_DrawScaledChar@c& (0+255),b
  4402   0020E8  EF78  F010         	goto	u4391
  4403   0020EC  EF7A  F010         	goto	u4390
  4404   0020F0                     u4391:
  4405   0020F0  EF7F  F010         	goto	l3747
  4406   0020F4                     u4390:
  4407   0020F4                     
  4408                           ; BSR set to: 0
  4409                           ;main.c: 268:         idx = c - 'A' + 13;
  4410   0020F4  517B               	movf	OLED_DrawScaledChar@c& (0+255),w,b
  4411   0020F6  0FCC               	addlw	204
  4412   0020F8  6F75               	movwf	OLED_DrawScaledChar@idx& (0+255),b
  4413                           
  4414                           ;main.c: 269:     } else if ((uint8_t) c == 248) {
  4415   0020FA  EFA3  F010         	goto	l213
  4416   0020FE                     l3747:
  4417                           
  4418                           ; BSR set to: 0
  4419   0020FE  0EF8               	movlw	248
  4420   002100  197B               	xorwf	OLED_DrawScaledChar@c& (0+255),w,b
  4421   002102  A4D8               	btfss	status,2,c
  4422   002104  EF86  F010         	goto	u4401
  4423   002108  EF88  F010         	goto	u4400
  4424   00210C                     u4401:
  4425   00210C  EF8C  F010         	goto	l3751
  4426   002110                     u4400:
  4427   002110                     
  4428                           ; BSR set to: 0
  4429                           ;main.c: 270:         idx = 11;
  4430   002110  0E0B               	movlw	11
  4431   002112  6F75               	movwf	OLED_DrawScaledChar@idx& (0+255),b
  4432                           
  4433                           ;main.c: 271:     } else if (c == '-') {
  4434   002114  EFA3  F010         	goto	l213
  4435   002118                     l3751:
  4436                           
  4437                           ; BSR set to: 0
  4438   002118  0E2D               	movlw	45
  4439   00211A  197B               	xorwf	OLED_DrawScaledChar@c& (0+255),w,b
  4440   00211C  A4D8               	btfss	status,2,c
  4441   00211E  EF93  F010         	goto	u4411
  4442   002122  EF95  F010         	goto	u4410
  4443   002126                     u4411:
  4444   002126  EF99  F010         	goto	l3755
  4445   00212A                     u4410:
  4446   00212A                     
  4447                           ; BSR set to: 0
  4448                           ;main.c: 272:         idx = 12;
  4449   00212A  0E0C               	movlw	12
  4450   00212C  6F75               	movwf	OLED_DrawScaledChar@idx& (0+255),b
  4451                           
  4452                           ;main.c: 273:     } else if (c == ' ') {
  4453   00212E  EFA3  F010         	goto	l213
  4454   002132                     l3755:
  4455                           
  4456                           ; BSR set to: 0
  4457   002132  0E20               	movlw	32
  4458   002134  197B               	xorwf	OLED_DrawScaledChar@c& (0+255),w,b
  4459   002136  A4D8               	btfss	status,2,c
  4460   002138  EFA0  F010         	goto	u4421
  4461   00213C  EFA2  F010         	goto	u4420
  4462   002140                     u4421:
  4463   002140  EF50  F011         	goto	l222
  4464   002144                     u4420:
  4465   002144                     
  4466                           ; BSR set to: 0
  4467                           ;main.c: 274:         idx = 0;
  4468   002144  6B75               	clrf	OLED_DrawScaledChar@idx& (0+255),b
  4469   002146                     l213:
  4470                           
  4471                           ; BSR set to: 0
  4472                           ;main.c: 279:     for (uint8_t col = 0; col < 5; col++) {
  4473   002146  6B7A               	clrf	OLED_DrawScaledChar@col& (0+255),b
  4474   002148                     l3763:
  4475                           
  4476                           ; BSR set to: 0
  4477                           ;main.c: 280:         uint8_t colData = font5x7[idx][col];
  4478   002148  5175               	movf	OLED_DrawScaledChar@idx& (0+255),w,b
  4479   00214A  0D05               	mullw	5
  4480   00214C  0E77               	movlw	low _font5x7
  4481   00214E  24F3               	addwf	243,w,c
  4482   002150  6F6B               	movwf	??_OLED_DrawScaledChar& (0+255),b
  4483   002152  0E7E               	movlw	high _font5x7
  4484   002154  20F4               	addwfc	prodh,w,c
  4485   002156  6F6C               	movwf	(??_OLED_DrawScaledChar+1)& (0+255),b
  4486   002158  517A               	movf	OLED_DrawScaledChar@col& (0+255),w,b
  4487   00215A  276B               	addwf	??_OLED_DrawScaledChar& (0+255),f,b
  4488   00215C  0E00               	movlw	0
  4489   00215E  236C               	addwfc	(??_OLED_DrawScaledChar+1)& (0+255),f,b
  4490   002160  C06B  FFF6         	movff	??_OLED_DrawScaledChar,tblptrl
  4491   002164  C06C  FFF7         	movff	??_OLED_DrawScaledChar+1,tblptrh
  4492   002168                     	if	0	;tblptru may be non-zero
  4493   002168                     	endif
  4494   002168                     	if	0	;tblptru may be non-zero
  4495   002168                     	endif
  4496   002168  0008               	tblrd		*
  4497   00216A  CFF5 F070          	movff	tablat,OLED_DrawScaledChar@colData
  4498   00216E                     
  4499                           ; BSR set to: 0
  4500                           ;main.c: 281:         uint8_t scaled_col[3] = {0};
  4501   00216E  C04D  F06D         	movff	OLED_DrawScaledChar@F4166,OLED_DrawScaledChar@scaled_col
  4502   002172  C04E  F06E         	movff	OLED_DrawScaledChar@F4166+1,OLED_DrawScaledChar@scaled_col+1
  4503   002176  C04F  F06F         	movff	OLED_DrawScaledChar@F4166+2,OLED_DrawScaledChar@scaled_col+2
  4504   00217A                     
  4505                           ; BSR set to: 0
  4506                           ;main.c: 282:         uint8_t rowOut = 0;
  4507   00217A  6B76               	clrf	OLED_DrawScaledChar@rowOut& (0+255),b
  4508   00217C                     
  4509                           ; BSR set to: 0
  4510                           ;main.c: 284:         for (uint8_t bit = 0; bit < 7; bit++) {
  4511   00217C  6B78               	clrf	OLED_DrawScaledChar@bit& (0+255),b
  4512   00217E                     l3775:
  4513                           
  4514                           ; BSR set to: 0
  4515                           ;main.c: 285:             uint8_t pixel = (colData >> bit) & 0x01;
  4516   00217E  C078  F06B         	movff	OLED_DrawScaledChar@bit,??_OLED_DrawScaledChar
  4517   002182  C070  F06C         	movff	OLED_DrawScaledChar@colData,??_OLED_DrawScaledChar+1
  4518   002186  2B6B               	incf	??_OLED_DrawScaledChar& (0+255),f,b
  4519   002188  EFC8  F010         	goto	u4434
  4520   00218C                     u4435:
  4521   00218C  90D8               	bcf	status,0,c
  4522   00218E  336C               	rrcf	(??_OLED_DrawScaledChar+1)& (0+255),f,b
  4523   002190                     u4434:
  4524   002190  2F6B               	decfsz	??_OLED_DrawScaledChar& (0+255),f,b
  4525   002192  EFC6  F010         	goto	u4435
  4526   002196  0100               	movlb	0	; () banked
  4527   002198  516C               	movf	(??_OLED_DrawScaledChar+1)& (0+255),w,b
  4528   00219A  0B01               	andlw	1
  4529   00219C  6F71               	movwf	OLED_DrawScaledChar@pixel& (0+255),b
  4530   00219E                     
  4531                           ; BSR set to: 0
  4532                           ;main.c: 286:             for (uint8_t v = 0; v < scale; v++) {
  4533   00219E  6B74               	clrf	OLED_DrawScaledChar@v& (0+255),b
  4534   0021A0  EFFE  F010         	goto	l3791
  4535   0021A4                     l3779:
  4536                           
  4537                           ; BSR set to: 0
  4538                           ;main.c: 287:                 uint8_t outPage = rowOut / 8;
  4539   0021A4  C076  F060         	movff	OLED_DrawScaledChar@rowOut,___awdiv@dividend
  4540   0021A8  6B61               	clrf	(___awdiv@dividend+1)& (0+255),b
  4541   0021AA  0E00               	movlw	0
  4542   0021AC  6F63               	movwf	(___awdiv@divisor+1)& (0+255),b
  4543   0021AE  0E08               	movlw	8
  4544   0021B0  6F62               	movwf	___awdiv@divisor& (0+255),b
  4545   0021B2  EC5D  F016         	call	___awdiv	;wreg free
  4546   0021B6  0100               	movlb	0	; () banked
  4547   0021B8  5160               	movf	?___awdiv& (0+255),w,b
  4548   0021BA  6F72               	movwf	OLED_DrawScaledChar@outPage& (0+255),b
  4549   0021BC                     
  4550                           ; BSR set to: 0
  4551                           ;main.c: 288:                 uint8_t outBit = rowOut % 8;
  4552   0021BC  5176               	movf	OLED_DrawScaledChar@rowOut& (0+255),w,b
  4553   0021BE  0B07               	andlw	7
  4554   0021C0  6F73               	movwf	OLED_DrawScaledChar@outBit& (0+255),b
  4555   0021C2                     
  4556                           ; BSR set to: 0
  4557                           ;main.c: 289:                 if (pixel) scaled_col[outPage] |= (1 << outBit);
  4558   0021C2  5171               	movf	OLED_DrawScaledChar@pixel& (0+255),w,b
  4559   0021C4  B4D8               	btfsc	status,2,c
  4560   0021C6  EFE7  F010         	goto	u4441
  4561   0021CA  EFE9  F010         	goto	u4440
  4562   0021CE                     u4441:
  4563   0021CE  EFFC  F010         	goto	l3787
  4564   0021D2                     u4440:
  4565   0021D2                     
  4566                           ; BSR set to: 0
  4567   0021D2  C073  F06B         	movff	OLED_DrawScaledChar@outBit,??_OLED_DrawScaledChar
  4568   0021D6  0E01               	movlw	1
  4569   0021D8  6F6C               	movwf	(??_OLED_DrawScaledChar+1)& (0+255),b
  4570   0021DA  2B6B               	incf	??_OLED_DrawScaledChar& (0+255),f,b
  4571   0021DC  EFF2  F010         	goto	u4454
  4572   0021E0                     u4455:
  4573   0021E0  90D8               	bcf	status,0,c
  4574   0021E2  376C               	rlcf	(??_OLED_DrawScaledChar+1)& (0+255),f,b
  4575   0021E4                     u4454:
  4576   0021E4  2F6B               	decfsz	??_OLED_DrawScaledChar& (0+255),f,b
  4577   0021E6  EFF0  F010         	goto	u4455
  4578   0021EA  0100               	movlb	0	; () banked
  4579   0021EC  5172               	movf	OLED_DrawScaledChar@outPage& (0+255),w,b
  4580   0021EE  0F6D               	addlw	low OLED_DrawScaledChar@scaled_col
  4581   0021F0  6ED9               	movwf	fsr2l,c
  4582   0021F2  6ADA               	clrf	fsr2h,c
  4583   0021F4  516C               	movf	(??_OLED_DrawScaledChar+1)& (0+255),w,b
  4584   0021F6  12DF               	iorwf	indf2,f,c
  4585   0021F8                     l3787:
  4586                           
  4587                           ; BSR set to: 0
  4588                           ;main.c: 290:                 rowOut++;
  4589   0021F8  2B76               	incf	OLED_DrawScaledChar@rowOut& (0+255),f,b
  4590   0021FA                     
  4591                           ; BSR set to: 0
  4592                           ;main.c: 291:             }
  4593   0021FA  2B74               	incf	OLED_DrawScaledChar@v& (0+255),f,b
  4594   0021FC                     l3791:
  4595                           
  4596                           ; BSR set to: 0
  4597   0021FC  5168               	movf	OLED_DrawScaledChar@scale& (0+255),w,b
  4598   0021FE  5D74               	subwf	OLED_DrawScaledChar@v& (0+255),w,b
  4599   002200  A0D8               	btfss	status,0,c
  4600   002202  EF05  F011         	goto	u4461
  4601   002206  EF07  F011         	goto	u4460
  4602   00220A                     u4461:
  4603   00220A  EFD2  F010         	goto	l3779
  4604   00220E                     u4460:
  4605   00220E                     
  4606                           ; BSR set to: 0
  4607                           ;main.c: 292:         }
  4608   00220E  2B78               	incf	OLED_DrawScaledChar@bit& (0+255),f,b
  4609   002210                     
  4610                           ; BSR set to: 0
  4611   002210  0E06               	movlw	6
  4612   002212  6578               	cpfsgt	OLED_DrawScaledChar@bit& (0+255),b
  4613   002214  EF0E  F011         	goto	u4471
  4614   002218  EF10  F011         	goto	u4470
  4615   00221C                     u4471:
  4616   00221C  EFBF  F010         	goto	l3775
  4617   002220                     u4470:
  4618   002220                     
  4619                           ; BSR set to: 0
  4620                           ;main.c: 294:         for (uint8_t x = 0; x < scale; x++) {
  4621   002220  6B77               	clrf	OLED_DrawScaledChar@x& (0+255),b
  4622   002222  EF3E  F011         	goto	l3815
  4623   002226                     l234:
  4624                           
  4625                           ; BSR set to: 0
  4626                           ;main.c: 295:             for (uint8_t p = 0; p < scale; p++) {
  4627   002226  6B79               	clrf	OLED_DrawScaledChar@p& (0+255),b
  4628   002228  EF34  F011         	goto	l3811
  4629   00222C                     l3797:
  4630                           
  4631                           ; BSR set to: 0
  4632                           ;main.c: 296:                 OLED_SetCursor(start_page + p, start_col + (col * scale) +
      +                           x);
  4633   00222C  517A               	movf	OLED_DrawScaledChar@col& (0+255),w,b
  4634   00222E  0368               	mulwf	OLED_DrawScaledChar@scale& (0+255),b
  4635   002230  50F3               	movf	243,w,c
  4636   002232  256A               	addwf	OLED_DrawScaledChar@start_col& (0+255),w,b
  4637   002234  2577               	addwf	OLED_DrawScaledChar@x& (0+255),w,b
  4638   002236  6F63               	movwf	OLED_SetCursor@col& (0+255),b
  4639   002238  5169               	movf	OLED_DrawScaledChar@start_page& (0+255),w,b
  4640   00223A  2579               	addwf	OLED_DrawScaledChar@p& (0+255),w,b
  4641   00223C  ECCF  F01A         	call	_OLED_SetCursor
  4642   002240                     
  4643                           ;main.c: 297:                 I2C_Start();
  4644   002240  EC6C  F01B         	call	_I2C_Start	;wreg free
  4645   002244                     
  4646                           ;main.c: 298:                 I2C_Write(0x3C << 1);
  4647   002244  0E78               	movlw	120
  4648   002246  EC3A  F01B         	call	_I2C_Write
  4649   00224A                     
  4650                           ;main.c: 299:                 I2C_Write(0x40);
  4651   00224A  0E40               	movlw	64
  4652   00224C  EC3A  F01B         	call	_I2C_Write
  4653   002250                     
  4654                           ;main.c: 300:                 I2C_Write(scaled_col[p]);
  4655   002250  0100               	movlb	0	; () banked
  4656   002252  5179               	movf	OLED_DrawScaledChar@p& (0+255),w,b
  4657   002254  0F6D               	addlw	low OLED_DrawScaledChar@scaled_col
  4658   002256  6ED9               	movwf	fsr2l,c
  4659   002258  6ADA               	clrf	fsr2h,c
  4660   00225A  50DF               	movf	indf2,w,c
  4661   00225C  EC3A  F01B         	call	_I2C_Write
  4662   002260                     
  4663                           ;main.c: 301:                 I2C_Stop();
  4664   002260  EC61  F01B         	call	_I2C_Stop	;wreg free
  4665   002264                     
  4666                           ;main.c: 302:             }
  4667   002264  0100               	movlb	0	; () banked
  4668   002266  2B79               	incf	OLED_DrawScaledChar@p& (0+255),f,b
  4669   002268                     l3811:
  4670                           
  4671                           ; BSR set to: 0
  4672   002268  5168               	movf	OLED_DrawScaledChar@scale& (0+255),w,b
  4673   00226A  5D79               	subwf	OLED_DrawScaledChar@p& (0+255),w,b
  4674   00226C  A0D8               	btfss	status,0,c
  4675   00226E  EF3B  F011         	goto	u4481
  4676   002272  EF3D  F011         	goto	u4480
  4677   002276                     u4481:
  4678   002276  EF16  F011         	goto	l3797
  4679   00227A                     u4480:
  4680   00227A                     
  4681                           ; BSR set to: 0
  4682                           ;main.c: 303:         }
  4683   00227A  2B77               	incf	OLED_DrawScaledChar@x& (0+255),f,b
  4684   00227C                     l3815:
  4685                           
  4686                           ; BSR set to: 0
  4687   00227C  5168               	movf	OLED_DrawScaledChar@scale& (0+255),w,b
  4688   00227E  5D77               	subwf	OLED_DrawScaledChar@x& (0+255),w,b
  4689   002280  A0D8               	btfss	status,0,c
  4690   002282  EF45  F011         	goto	u4491
  4691   002286  EF47  F011         	goto	u4490
  4692   00228A                     u4491:
  4693   00228A  EF13  F011         	goto	l234
  4694   00228E                     u4490:
  4695   00228E                     
  4696                           ; BSR set to: 0
  4697                           ;main.c: 304:     }
  4698   00228E  2B7A               	incf	OLED_DrawScaledChar@col& (0+255),f,b
  4699   002290                     
  4700                           ; BSR set to: 0
  4701   002290  0E04               	movlw	4
  4702   002292  657A               	cpfsgt	OLED_DrawScaledChar@col& (0+255),b
  4703   002294  EF4E  F011         	goto	u4501
  4704   002298  EF50  F011         	goto	u4500
  4705   00229C                     u4501:
  4706   00229C  EFA4  F010         	goto	l3763
  4707   0022A0                     u4500:
  4708   0022A0                     l222:
  4709                           
  4710                           ; BSR set to: 0
  4711   0022A0  0012               	return		;funcret
  4712   0022A2                     __end_of_OLED_DrawScaledChar:
  4713                           	callstack 0
  4714                           
  4715 ;; *************** function ___awdiv *****************
  4716 ;; Defined at:
  4717 ;;		line 7 in file "C:\Program Files\Microchip\xc8\v3.00\pic\sources\c99\common\awdiv.c"
  4718 ;; Parameters:    Size  Location     Type
  4719 ;;  dividend        2    0[BANK0 ] int 
  4720 ;;  divisor         2    2[BANK0 ] int 
  4721 ;; Auto vars:     Size  Location     Type
  4722 ;;  quotient        2    6[BANK0 ] int 
  4723 ;;  sign            1    5[BANK0 ] unsigned char 
  4724 ;;  counter         1    4[BANK0 ] unsigned char 
  4725 ;; Return value:  Size  Location     Type
  4726 ;;                  2    0[BANK0 ] int 
  4727 ;; Registers used:
  4728 ;;		wreg, status,2, status,0
  4729 ;; Tracked objects:
  4730 ;;		On entry : 0/0
  4731 ;;		On exit  : 0/0
  4732 ;;		Unchanged: 0/0
  4733 ;; Data sizes:     COMRAM   BANK0   BANK1   BANK2   BANK3   BANK4   BANK5   BANK6   BANK7
  4734 ;;      Params:         0       4       0       0       0       0       0       0       0
  4735 ;;      Locals:         0       4       0       0       0       0       0       0       0
  4736 ;;      Temps:          0       0       0       0       0       0       0       0       0
  4737 ;;      Totals:         0       8       0       0       0       0       0       0       0
  4738 ;;Total ram usage:        8 bytes
  4739 ;; Hardware stack levels used: 1
  4740 ;; Hardware stack levels required when called: 7
  4741 ;; This function calls:
  4742 ;;		Nothing
  4743 ;; This function is called by:
  4744 ;;		_OLED_DrawScaledChar
  4745 ;;		_OLED_DrawCentered2x_AtPage
  4746 ;;		_vfpfcnvrt
  4747 ;; This function uses a non-reentrant model
  4748 ;;
  4749                           
  4750                           	psect	text18
  4751   002CBA                     __ptext18:
  4752                           	callstack 0
  4753   002CBA                     ___awdiv:
  4754                           	callstack 20
  4755   002CBA  0100               	movlb	0	; () banked
  4756   002CBC  6B65               	clrf	___awdiv@sign& (0+255),b
  4757   002CBE                     
  4758                           ; BSR set to: 0
  4759   002CBE  BF63               	btfsc	(___awdiv@divisor+1)& (0+255),7,b
  4760   002CC0  EF66  F016         	goto	u3630
  4761   002CC4  EF64  F016         	goto	u3631
  4762   002CC8                     u3631:
  4763   002CC8  EF6C  F016         	goto	l3327
  4764   002CCC                     u3630:
  4765   002CCC                     
  4766                           ; BSR set to: 0
  4767   002CCC  6D62               	negf	___awdiv@divisor& (0+255),b
  4768   002CCE  1F63               	comf	(___awdiv@divisor+1)& (0+255),f,b
  4769   002CD0  B0D8               	btfsc	status,0,c
  4770   002CD2  2B63               	incf	(___awdiv@divisor+1)& (0+255),f,b
  4771   002CD4                     
  4772                           ; BSR set to: 0
  4773   002CD4  0E01               	movlw	1
  4774   002CD6  6F65               	movwf	___awdiv@sign& (0+255),b
  4775   002CD8                     l3327:
  4776                           
  4777                           ; BSR set to: 0
  4778   002CD8  BF61               	btfsc	(___awdiv@dividend+1)& (0+255),7,b
  4779   002CDA  EF73  F016         	goto	u3640
  4780   002CDE  EF71  F016         	goto	u3641
  4781   002CE2                     u3641:
  4782   002CE2  EF79  F016         	goto	l3333
  4783   002CE6                     u3640:
  4784   002CE6                     
  4785                           ; BSR set to: 0
  4786   002CE6  6D60               	negf	___awdiv@dividend& (0+255),b
  4787   002CE8  1F61               	comf	(___awdiv@dividend+1)& (0+255),f,b
  4788   002CEA  B0D8               	btfsc	status,0,c
  4789   002CEC  2B61               	incf	(___awdiv@dividend+1)& (0+255),f,b
  4790   002CEE                     
  4791                           ; BSR set to: 0
  4792   002CEE  0E01               	movlw	1
  4793   002CF0  1B65               	xorwf	___awdiv@sign& (0+255),f,b
  4794   002CF2                     l3333:
  4795                           
  4796                           ; BSR set to: 0
  4797   002CF2  0E00               	movlw	0
  4798   002CF4  6F67               	movwf	(___awdiv@quotient+1)& (0+255),b
  4799   002CF6  0E00               	movlw	0
  4800   002CF8  6F66               	movwf	___awdiv@quotient& (0+255),b
  4801   002CFA                     
  4802                           ; BSR set to: 0
  4803   002CFA  5162               	movf	___awdiv@divisor& (0+255),w,b
  4804   002CFC  1163               	iorwf	(___awdiv@divisor+1)& (0+255),w,b
  4805   002CFE  B4D8               	btfsc	status,2,c
  4806   002D00  EF84  F016         	goto	u3651
  4807   002D04  EF86  F016         	goto	u3650
  4808   002D08                     u3651:
  4809   002D08  EFAE  F016         	goto	l3355
  4810   002D0C                     u3650:
  4811   002D0C                     
  4812                           ; BSR set to: 0
  4813   002D0C  0E01               	movlw	1
  4814   002D0E  6F64               	movwf	___awdiv@counter& (0+255),b
  4815   002D10  EF8E  F016         	goto	l3341
  4816   002D14                     l3339:
  4817                           
  4818                           ; BSR set to: 0
  4819   002D14  90D8               	bcf	status,0,c
  4820   002D16  3762               	rlcf	___awdiv@divisor& (0+255),f,b
  4821   002D18  3763               	rlcf	(___awdiv@divisor+1)& (0+255),f,b
  4822   002D1A  2B64               	incf	___awdiv@counter& (0+255),f,b
  4823   002D1C                     l3341:
  4824                           
  4825                           ; BSR set to: 0
  4826   002D1C  AF63               	btfss	(___awdiv@divisor+1)& (0+255),7,b
  4827   002D1E  EF93  F016         	goto	u3661
  4828   002D22  EF95  F016         	goto	u3660
  4829   002D26                     u3661:
  4830   002D26  EF8A  F016         	goto	l3339
  4831   002D2A                     u3660:
  4832   002D2A                     l3343:
  4833                           
  4834                           ; BSR set to: 0
  4835   002D2A  90D8               	bcf	status,0,c
  4836   002D2C  3766               	rlcf	___awdiv@quotient& (0+255),f,b
  4837   002D2E  3767               	rlcf	(___awdiv@quotient+1)& (0+255),f,b
  4838   002D30                     
  4839                           ; BSR set to: 0
  4840   002D30  5162               	movf	___awdiv@divisor& (0+255),w,b
  4841   002D32  5D60               	subwf	___awdiv@dividend& (0+255),w,b
  4842   002D34  5163               	movf	(___awdiv@divisor+1)& (0+255),w,b
  4843   002D36  5961               	subwfb	(___awdiv@dividend+1)& (0+255),w,b
  4844   002D38  A0D8               	btfss	status,0,c
  4845   002D3A  EFA1  F016         	goto	u3671
  4846   002D3E  EFA3  F016         	goto	u3670
  4847   002D42                     u3671:
  4848   002D42  EFA8  F016         	goto	l3351
  4849   002D46                     u3670:
  4850   002D46                     
  4851                           ; BSR set to: 0
  4852   002D46  5162               	movf	___awdiv@divisor& (0+255),w,b
  4853   002D48  5F60               	subwf	___awdiv@dividend& (0+255),f,b
  4854   002D4A  5163               	movf	(___awdiv@divisor+1)& (0+255),w,b
  4855   002D4C  5B61               	subwfb	(___awdiv@dividend+1)& (0+255),f,b
  4856   002D4E                     
  4857                           ; BSR set to: 0
  4858   002D4E  8166               	bsf	___awdiv@quotient& (0+255),0,b
  4859   002D50                     l3351:
  4860                           
  4861                           ; BSR set to: 0
  4862   002D50  90D8               	bcf	status,0,c
  4863   002D52  3363               	rrcf	(___awdiv@divisor+1)& (0+255),f,b
  4864   002D54  3362               	rrcf	___awdiv@divisor& (0+255),f,b
  4865   002D56                     
  4866                           ; BSR set to: 0
  4867   002D56  2F64               	decfsz	___awdiv@counter& (0+255),f,b
  4868   002D58  EF95  F016         	goto	l3343
  4869   002D5C                     l3355:
  4870                           
  4871                           ; BSR set to: 0
  4872   002D5C  5165               	movf	___awdiv@sign& (0+255),w,b
  4873   002D5E  B4D8               	btfsc	status,2,c
  4874   002D60  EFB4  F016         	goto	u3681
  4875   002D64  EFB6  F016         	goto	u3680
  4876   002D68                     u3681:
  4877   002D68  EFBA  F016         	goto	l3359
  4878   002D6C                     u3680:
  4879   002D6C                     
  4880                           ; BSR set to: 0
  4881   002D6C  6D66               	negf	___awdiv@quotient& (0+255),b
  4882   002D6E  1F67               	comf	(___awdiv@quotient+1)& (0+255),f,b
  4883   002D70  B0D8               	btfsc	status,0,c
  4884   002D72  2B67               	incf	(___awdiv@quotient+1)& (0+255),f,b
  4885   002D74                     l3359:
  4886                           
  4887                           ; BSR set to: 0
  4888   002D74  C066  F060         	movff	___awdiv@quotient,?___awdiv
  4889   002D78  C067  F061         	movff	___awdiv@quotient+1,?___awdiv+1
  4890   002D7C                     
  4891                           ; BSR set to: 0
  4892   002D7C  0012               	return		;funcret
  4893   002D7E                     __end_of___awdiv:
  4894                           	callstack 0
  4895                           
  4896 ;; *************** function _OLED_SetCursor *****************
  4897 ;; Defined at:
  4898 ;;		line 255 in file "main.c"
  4899 ;; Parameters:    Size  Location     Type
  4900 ;;  page            1    wreg     unsigned char 
  4901 ;;  col             1    3[BANK0 ] unsigned char 
  4902 ;; Auto vars:     Size  Location     Type
  4903 ;;  page            1    4[BANK0 ] unsigned char 
  4904 ;; Return value:  Size  Location     Type
  4905 ;;                  1    wreg      void 
  4906 ;; Registers used:
  4907 ;;		wreg, status,2, status,0, cstack
  4908 ;; Tracked objects:
  4909 ;;		On entry : 0/0
  4910 ;;		On exit  : 0/0
  4911 ;;		Unchanged: 0/0
  4912 ;; Data sizes:     COMRAM   BANK0   BANK1   BANK2   BANK3   BANK4   BANK5   BANK6   BANK7
  4913 ;;      Params:         0       1       0       0       0       0       0       0       0
  4914 ;;      Locals:         0       1       0       0       0       0       0       0       0
  4915 ;;      Temps:          0       0       0       0       0       0       0       0       0
  4916 ;;      Totals:         0       2       0       0       0       0       0       0       0
  4917 ;;Total ram usage:        2 bytes
  4918 ;; Hardware stack levels used: 1
  4919 ;; Hardware stack levels required when called: 10
  4920 ;; This function calls:
  4921 ;;		_OLED_Command
  4922 ;; This function is called by:
  4923 ;;		_OLED_DrawScaledChar
  4924 ;;		_OLED_DrawChar
  4925 ;; This function uses a non-reentrant model
  4926 ;;
  4927                           
  4928                           	psect	text19
  4929   00359E                     __ptext19:
  4930                           	callstack 0
  4931   00359E                     _OLED_SetCursor:
  4932                           	callstack 18
  4933                           
  4934                           ; BSR set to: 0
  4935                           ;incstack = 0
  4936                           ;OLED_SetCursor@page stored from wreg
  4937   00359E  0100               	movlb	0	; () banked
  4938   0035A0  6F64               	movwf	OLED_SetCursor@page& (0+255),b
  4939   0035A2                     
  4940                           ;main.c: 256:     OLED_Command(0xB0 + page);
  4941   0035A2  0100               	movlb	0	; () banked
  4942   0035A4  5164               	movf	OLED_SetCursor@page& (0+255),w,b
  4943   0035A6  0FB0               	addlw	176
  4944   0035A8  EC0A  F01B         	call	_OLED_Command
  4945                           
  4946                           ;main.c: 257:     OLED_Command(0x00 + (col & 0x0F));
  4947   0035AC  0100               	movlb	0	; () banked
  4948   0035AE  5163               	movf	OLED_SetCursor@col& (0+255),w,b
  4949   0035B0  0B0F               	andlw	15
  4950   0035B2  EC0A  F01B         	call	_OLED_Command
  4951                           
  4952                           ;main.c: 258:     OLED_Command(0x10 + ((col >> 4) & 0x0F));
  4953   0035B6  0100               	movlb	0	; () banked
  4954   0035B8  3963               	swapf	OLED_SetCursor@col& (0+255),w,b
  4955   0035BA  0B0F               	andlw	15
  4956   0035BC  0B0F               	andlw	15
  4957   0035BE  0F10               	addlw	16
  4958   0035C0  EC0A  F01B         	call	_OLED_Command
  4959   0035C4  0012               	return		;funcret
  4960   0035C6                     __end_of_OLED_SetCursor:
  4961                           	callstack 0
  4962                           
  4963 ;; *************** function _OLED_ClearArea *****************
  4964 ;; Defined at:
  4965 ;;		line 199 in file "main.c"
  4966 ;; Parameters:    Size  Location     Type
  4967 ;;  startPage       1    wreg     unsigned char 
  4968 ;;  endPage         1    3[BANK0 ] unsigned char 
  4969 ;;  startCol        1    4[BANK0 ] unsigned char 
  4970 ;;  endCol          1    5[BANK0 ] unsigned char 
  4971 ;; Auto vars:     Size  Location     Type
  4972 ;;  startPage       1    6[BANK0 ] unsigned char 
  4973 ;;  col             1    7[BANK0 ] unsigned char 
  4974 ;;  page            1    8[BANK0 ] unsigned char 
  4975 ;; Return value:  Size  Location     Type
  4976 ;;                  1    wreg      void 
  4977 ;; Registers used:
  4978 ;;		wreg, status,2, status,0, cstack
  4979 ;; Tracked objects:
  4980 ;;		On entry : 0/0
  4981 ;;		On exit  : 0/0
  4982 ;;		Unchanged: 0/0
  4983 ;; Data sizes:     COMRAM   BANK0   BANK1   BANK2   BANK3   BANK4   BANK5   BANK6   BANK7
  4984 ;;      Params:         0       3       0       0       0       0       0       0       0
  4985 ;;      Locals:         0       3       0       0       0       0       0       0       0
  4986 ;;      Temps:          0       0       0       0       0       0       0       0       0
  4987 ;;      Totals:         0       6       0       0       0       0       0       0       0
  4988 ;;Total ram usage:        6 bytes
  4989 ;; Hardware stack levels used: 1
  4990 ;; Hardware stack levels required when called: 10
  4991 ;; This function calls:
  4992 ;;		_I2C_Start
  4993 ;;		_I2C_Stop
  4994 ;;		_I2C_Write
  4995 ;;		_OLED_Command
  4996 ;; This function is called by:
  4997 ;;		_main
  4998 ;; This function uses a non-reentrant model
  4999 ;;
  5000                           
  5001                           	psect	text20
  5002   00310A                     __ptext20:
  5003                           	callstack 0
  5004   00310A                     _OLED_ClearArea:
  5005                           	callstack 20
  5006                           
  5007                           ;incstack = 0
  5008                           ;OLED_ClearArea@startPage stored from wreg
  5009   00310A  0100               	movlb	0	; () banked
  5010   00310C  6F66               	movwf	OLED_ClearArea@startPage& (0+255),b
  5011   00310E                     
  5012                           ;main.c: 200:     for (uint8_t page = startPage; page <= endPage; page++) {
  5013   00310E  C066  F068         	movff	OLED_ClearArea@startPage,OLED_ClearArea@page
  5014   003112  EFBA  F018         	goto	l4131
  5015   003116                     l4117:
  5016                           
  5017                           ; BSR set to: 0
  5018                           ;main.c: 201:         OLED_Command(0xB0 + page);
  5019   003116  5168               	movf	OLED_ClearArea@page& (0+255),w,b
  5020   003118  0FB0               	addlw	176
  5021   00311A  EC0A  F01B         	call	_OLED_Command
  5022                           
  5023                           ;main.c: 202:         OLED_Command(0x00 + (startCol & 0x0F));
  5024   00311E  0100               	movlb	0	; () banked
  5025   003120  5164               	movf	OLED_ClearArea@startCol& (0+255),w,b
  5026   003122  0B0F               	andlw	15
  5027   003124  EC0A  F01B         	call	_OLED_Command
  5028                           
  5029                           ;main.c: 203:         OLED_Command(0x10 + ((startCol >> 4) & 0x0F));
  5030   003128  0100               	movlb	0	; () banked
  5031   00312A  3964               	swapf	OLED_ClearArea@startCol& (0+255),w,b
  5032   00312C  0B0F               	andlw	15
  5033   00312E  0B0F               	andlw	15
  5034   003130  0F10               	addlw	16
  5035   003132  EC0A  F01B         	call	_OLED_Command
  5036                           
  5037                           ;main.c: 204:         I2C_Start();
  5038   003136  EC6C  F01B         	call	_I2C_Start	;wreg free
  5039                           
  5040                           ;main.c: 205:         I2C_Write(0x3C << 1);
  5041   00313A  0E78               	movlw	120
  5042   00313C  EC3A  F01B         	call	_I2C_Write
  5043                           
  5044                           ;main.c: 206:         I2C_Write(0x40);
  5045   003140  0E40               	movlw	64
  5046   003142  EC3A  F01B         	call	_I2C_Write
  5047   003146                     
  5048                           ;main.c: 207:         for (uint8_t col = startCol; col <= endCol; col++) I2C_Write(0x00)
      +                          ;
  5049   003146  C064  F067         	movff	OLED_ClearArea@startCol,OLED_ClearArea@col
  5050   00314A  EFAC  F018         	goto	l4125
  5051   00314E                     l4121:
  5052                           
  5053                           ; BSR set to: 0
  5054   00314E  0E00               	movlw	0
  5055   003150  EC3A  F01B         	call	_I2C_Write
  5056   003154  0100               	movlb	0	; () banked
  5057   003156  2B67               	incf	OLED_ClearArea@col& (0+255),f,b
  5058   003158                     l4125:
  5059   003158  0100               	movlb	0	; () banked
  5060   00315A  5167               	movf	OLED_ClearArea@col& (0+255),w,b
  5061   00315C  5D65               	subwf	OLED_ClearArea@endCol& (0+255),w,b
  5062   00315E  B0D8               	btfsc	status,0,c
  5063   003160  EFB4  F018         	goto	u4891
  5064   003164  EFB6  F018         	goto	u4890
  5065   003168                     u4891:
  5066   003168  EFA7  F018         	goto	l4121
  5067   00316C                     u4890:
  5068   00316C                     
  5069                           ; BSR set to: 0
  5070                           ;main.c: 208:         I2C_Stop();
  5071   00316C  EC61  F01B         	call	_I2C_Stop	;wreg free
  5072   003170                     
  5073                           ;main.c: 209:     }
  5074   003170  0100               	movlb	0	; () banked
  5075   003172  2B68               	incf	OLED_ClearArea@page& (0+255),f,b
  5076   003174                     l4131:
  5077   003174  0100               	movlb	0	; () banked
  5078   003176  5168               	movf	OLED_ClearArea@page& (0+255),w,b
  5079   003178  5D63               	subwf	OLED_ClearArea@endPage& (0+255),w,b
  5080   00317A  B0D8               	btfsc	status,0,c
  5081   00317C  EFC2  F018         	goto	u4901
  5082   003180  EFC4  F018         	goto	u4900
  5083   003184                     u4901:
  5084   003184  EF8B  F018         	goto	l4117
  5085   003188                     u4900:
  5086   003188                     
  5087                           ; BSR set to: 0
  5088   003188  0012               	return		;funcret
  5089   00318A                     __end_of_OLED_ClearArea:
  5090                           	callstack 0
  5091                           
  5092 ;; *************** function _OLED_Command *****************
  5093 ;; Defined at:
  5094 ;;		line 160 in file "main.c"
  5095 ;; Parameters:    Size  Location     Type
  5096 ;;  cmd             1    wreg     unsigned char 
  5097 ;; Auto vars:     Size  Location     Type
  5098 ;;  cmd             1    2[BANK0 ] unsigned char 
  5099 ;; Return value:  Size  Location     Type
  5100 ;;                  1    wreg      void 
  5101 ;; Registers used:
  5102 ;;		wreg, status,2, status,0, cstack
  5103 ;; Tracked objects:
  5104 ;;		On entry : 0/0
  5105 ;;		On exit  : 0/0
  5106 ;;		Unchanged: 0/0
  5107 ;; Data sizes:     COMRAM   BANK0   BANK1   BANK2   BANK3   BANK4   BANK5   BANK6   BANK7
  5108 ;;      Params:         0       0       0       0       0       0       0       0       0
  5109 ;;      Locals:         0       1       0       0       0       0       0       0       0
  5110 ;;      Temps:          0       0       0       0       0       0       0       0       0
  5111 ;;      Totals:         0       1       0       0       0       0       0       0       0
  5112 ;;Total ram usage:        1 bytes
  5113 ;; Hardware stack levels used: 1
  5114 ;; Hardware stack levels required when called: 9
  5115 ;; This function calls:
  5116 ;;		_I2C_Start
  5117 ;;		_I2C_Stop
  5118 ;;		_I2C_Write
  5119 ;; This function is called by:
  5120 ;;		_OLED_Init
  5121 ;;		_OLED_ClearArea
  5122 ;;		_OLED_SetCursor
  5123 ;; This function uses a non-reentrant model
  5124 ;;
  5125                           
  5126                           	psect	text21
  5127   003614                     __ptext21:
  5128                           	callstack 0
  5129   003614                     _OLED_Command:
  5130                           	callstack 18
  5131                           
  5132                           ; BSR set to: 0
  5133                           ;incstack = 0
  5134                           ;OLED_Command@cmd stored from wreg
  5135   003614  0100               	movlb	0	; () banked
  5136   003616  6F62               	movwf	OLED_Command@cmd& (0+255),b
  5137   003618                     
  5138                           ;main.c: 161:     I2C_Start();
  5139   003618  EC6C  F01B         	call	_I2C_Start	;wreg free
  5140                           
  5141                           ;main.c: 162:     I2C_Write(0x3C << 1);
  5142   00361C  0E78               	movlw	120
  5143   00361E  EC3A  F01B         	call	_I2C_Write
  5144                           
  5145                           ;main.c: 163:     I2C_Write(0x00);
  5146   003622  0E00               	movlw	0
  5147   003624  EC3A  F01B         	call	_I2C_Write
  5148                           
  5149                           ;main.c: 164:     I2C_Write(cmd);
  5150   003628  0100               	movlb	0	; () banked
  5151   00362A  5162               	movf	OLED_Command@cmd& (0+255),w,b
  5152   00362C  EC3A  F01B         	call	_I2C_Write
  5153                           
  5154                           ;main.c: 165:     I2C_Stop();
  5155   003630  EC61  F01B         	call	_I2C_Stop	;wreg free
  5156   003634  0012               	return		;funcret
  5157   003636                     __end_of_OLED_Command:
  5158                           	callstack 0
  5159                           
  5160 ;; *************** function _I2C_Write *****************
  5161 ;; Defined at:
  5162 ;;		line 151 in file "main.c"
  5163 ;; Parameters:    Size  Location     Type
  5164 ;;  data            1    wreg     unsigned char 
  5165 ;; Auto vars:     Size  Location     Type
  5166 ;;  data            1    1[BANK0 ] unsigned char 
  5167 ;; Return value:  Size  Location     Type
  5168 ;;                  1    wreg      void 
  5169 ;; Registers used:
  5170 ;;		wreg, status,2, status,0, cstack
  5171 ;; Tracked objects:
  5172 ;;		On entry : 0/0
  5173 ;;		On exit  : 0/0
  5174 ;;		Unchanged: 0/0
  5175 ;; Data sizes:     COMRAM   BANK0   BANK1   BANK2   BANK3   BANK4   BANK5   BANK6   BANK7
  5176 ;;      Params:         0       0       0       0       0       0       0       0       0
  5177 ;;      Locals:         0       1       0       0       0       0       0       0       0
  5178 ;;      Temps:          0       0       0       0       0       0       0       0       0
  5179 ;;      Totals:         0       1       0       0       0       0       0       0       0
  5180 ;;Total ram usage:        1 bytes
  5181 ;; Hardware stack levels used: 1
  5182 ;; Hardware stack levels required when called: 8
  5183 ;; This function calls:
  5184 ;;		_I2C_Wait
  5185 ;; This function is called by:
  5186 ;;		_OLED_Command
  5187 ;;		_OLED_ClearArea
  5188 ;;		_OLED_DrawScaledChar
  5189 ;;		_OLED_DrawChar
  5190 ;; This function uses a non-reentrant model
  5191 ;;
  5192                           
  5193                           	psect	text22
  5194   003674                     __ptext22:
  5195                           	callstack 0
  5196   003674                     _I2C_Write:
  5197                           	callstack 18
  5198                           
  5199                           ;incstack = 0
  5200                           ;I2C_Write@data stored from wreg
  5201   003674  0100               	movlb	0	; () banked
  5202   003676  6F61               	movwf	I2C_Write@data& (0+255),b
  5203   003678                     
  5204                           ;main.c: 152:     I2C_Wait();
  5205   003678  ECE3  F01A         	call	_I2C_Wait	;wreg free
  5206   00367C                     
  5207                           ;main.c: 153:     SSPBUF = data;
  5208   00367C  C061  FFC9         	movff	I2C_Write@data,4041	;volatile
  5209   003680                     l186:
  5210   003680  B0C7               	btfsc	199,0,c	;volatile
  5211   003682  EF45  F01B         	goto	u2781
  5212   003686  EF47  F01B         	goto	u2780
  5213   00368A                     u2781:
  5214   00368A  EF40  F01B         	goto	l186
  5215   00368E                     u2780:
  5216   00368E  0012               	return		;funcret
  5217   003690                     __end_of_I2C_Write:
  5218                           	callstack 0
  5219                           
  5220 ;; *************** function _I2C_Stop *****************
  5221 ;; Defined at:
  5222 ;;		line 144 in file "main.c"
  5223 ;; Parameters:    Size  Location     Type
  5224 ;;		None
  5225 ;; Auto vars:     Size  Location     Type
  5226 ;;		None
  5227 ;; Return value:  Size  Location     Type
  5228 ;;                  1    wreg      void 
  5229 ;; Registers used:
  5230 ;;		wreg, status,2, status,0, cstack
  5231 ;; Tracked objects:
  5232 ;;		On entry : 0/0
  5233 ;;		On exit  : 0/0
  5234 ;;		Unchanged: 0/0
  5235 ;; Data sizes:     COMRAM   BANK0   BANK1   BANK2   BANK3   BANK4   BANK5   BANK6   BANK7
  5236 ;;      Params:         0       0       0       0       0       0       0       0       0
  5237 ;;      Locals:         0       0       0       0       0       0       0       0       0
  5238 ;;      Temps:          0       0       0       0       0       0       0       0       0
  5239 ;;      Totals:         0       0       0       0       0       0       0       0       0
  5240 ;;Total ram usage:        0 bytes
  5241 ;; Hardware stack levels used: 1
  5242 ;; Hardware stack levels required when called: 8
  5243 ;; This function calls:
  5244 ;;		_I2C_Wait
  5245 ;; This function is called by:
  5246 ;;		_OLED_Command
  5247 ;;		_OLED_ClearArea
  5248 ;;		_OLED_DrawScaledChar
  5249 ;;		_OLED_DrawChar
  5250 ;; This function uses a non-reentrant model
  5251 ;;
  5252                           
  5253                           	psect	text23
  5254   0036C2                     __ptext23:
  5255                           	callstack 0
  5256   0036C2                     _I2C_Stop:
  5257                           	callstack 18
  5258   0036C2                     
  5259                           ;main.c: 145:     I2C_Wait();
  5260   0036C2  ECE3  F01A         	call	_I2C_Wait	;wreg free
  5261   0036C6                     
  5262                           ;main.c: 146:     SSPCON2bits.PEN = 1;
  5263   0036C6  84C5               	bsf	197,2,c	;volatile
  5264   0036C8                     l180:
  5265   0036C8  B4C5               	btfsc	197,2,c	;volatile
  5266   0036CA  EF69  F01B         	goto	u2771
  5267   0036CE  EF6B  F01B         	goto	u2770
  5268   0036D2                     u2771:
  5269   0036D2  EF64  F01B         	goto	l180
  5270   0036D6                     u2770:
  5271   0036D6  0012               	return		;funcret
  5272   0036D8                     __end_of_I2C_Stop:
  5273                           	callstack 0
  5274                           
  5275 ;; *************** function _I2C_Start *****************
  5276 ;; Defined at:
  5277 ;;		line 137 in file "main.c"
  5278 ;; Parameters:    Size  Location     Type
  5279 ;;		None
  5280 ;; Auto vars:     Size  Location     Type
  5281 ;;		None
  5282 ;; Return value:  Size  Location     Type
  5283 ;;                  1    wreg      void 
  5284 ;; Registers used:
  5285 ;;		wreg, status,2, status,0, cstack
  5286 ;; Tracked objects:
  5287 ;;		On entry : 0/0
  5288 ;;		On exit  : 0/0
  5289 ;;		Unchanged: 0/0
  5290 ;; Data sizes:     COMRAM   BANK0   BANK1   BANK2   BANK3   BANK4   BANK5   BANK6   BANK7
  5291 ;;      Params:         0       0       0       0       0       0       0       0       0
  5292 ;;      Locals:         0       0       0       0       0       0       0       0       0
  5293 ;;      Temps:          0       0       0       0       0       0       0       0       0
  5294 ;;      Totals:         0       0       0       0       0       0       0       0       0
  5295 ;;Total ram usage:        0 bytes
  5296 ;; Hardware stack levels used: 1
  5297 ;; Hardware stack levels required when called: 8
  5298 ;; This function calls:
  5299 ;;		_I2C_Wait
  5300 ;; This function is called by:
  5301 ;;		_OLED_Command
  5302 ;;		_OLED_ClearArea
  5303 ;;		_OLED_DrawScaledChar
  5304 ;;		_OLED_DrawChar
  5305 ;; This function uses a non-reentrant model
  5306 ;;
  5307                           
  5308                           	psect	text24
  5309   0036D8                     __ptext24:
  5310                           	callstack 0
  5311   0036D8                     _I2C_Start:
  5312                           	callstack 18
  5313   0036D8                     
  5314                           ;main.c: 138:     I2C_Wait();
  5315   0036D8  ECE3  F01A         	call	_I2C_Wait	;wreg free
  5316   0036DC                     
  5317                           ;main.c: 139:     SSPCON2bits.SEN = 1;
  5318   0036DC  80C5               	bsf	197,0,c	;volatile
  5319   0036DE                     l174:
  5320   0036DE  B0C5               	btfsc	197,0,c	;volatile
  5321   0036E0  EF74  F01B         	goto	u2761
  5322   0036E4  EF76  F01B         	goto	u2760
  5323   0036E8                     u2761:
  5324   0036E8  EF6F  F01B         	goto	l174
  5325   0036EC                     u2760:
  5326   0036EC  0012               	return		;funcret
  5327   0036EE                     __end_of_I2C_Start:
  5328                           	callstack 0
  5329                           
  5330 ;; *************** function _I2C_Wait *****************
  5331 ;; Defined at:
  5332 ;;		line 132 in file "main.c"
  5333 ;; Parameters:    Size  Location     Type
  5334 ;;		None
  5335 ;; Auto vars:     Size  Location     Type
  5336 ;;		None
  5337 ;; Return value:  Size  Location     Type
  5338 ;;                  1    wreg      void 
  5339 ;; Registers used:
  5340 ;;		wreg, status,2, status,0
  5341 ;; Tracked objects:
  5342 ;;		On entry : 0/0
  5343 ;;		On exit  : 0/0
  5344 ;;		Unchanged: 0/0
  5345 ;; Data sizes:     COMRAM   BANK0   BANK1   BANK2   BANK3   BANK4   BANK5   BANK6   BANK7
  5346 ;;      Params:         0       0       0       0       0       0       0       0       0
  5347 ;;      Locals:         0       0       0       0       0       0       0       0       0
  5348 ;;      Temps:          0       1       0       0       0       0       0       0       0
  5349 ;;      Totals:         0       1       0       0       0       0       0       0       0
  5350 ;;Total ram usage:        1 bytes
  5351 ;; Hardware stack levels used: 1
  5352 ;; Hardware stack levels required when called: 7
  5353 ;; This function calls:
  5354 ;;		Nothing
  5355 ;; This function is called by:
  5356 ;;		_I2C_Start
  5357 ;;		_I2C_Stop
  5358 ;;		_I2C_Write
  5359 ;; This function uses a non-reentrant model
  5360 ;;
  5361                           
  5362                           	psect	text25
  5363   0035C6                     __ptext25:
  5364                           	callstack 0
  5365   0035C6                     _I2C_Wait:
  5366                           	callstack 18
  5367   0035C6                     l2819:
  5368   0035C6  CFC5 F060          	movff	4037,??_I2C_Wait	;volatile
  5369   0035CA  0E1F               	movlw	31
  5370   0035CC  0100               	movlb	0	; () banked
  5371   0035CE  1760               	andwf	??_I2C_Wait& (0+255),f,b
  5372   0035D0  A4D8               	btfss	status,2,c
  5373   0035D2  EFED  F01A         	goto	u2721
  5374   0035D6  EFEF  F01A         	goto	u2720
  5375   0035DA                     u2721:
  5376   0035DA  EFE3  F01A         	goto	l2819
  5377   0035DE                     u2720:
  5378   0035DE                     
  5379                           ; BSR set to: 0
  5380   0035DE  B4C7               	btfsc	199,2,c	;volatile
  5381   0035E0  EFF4  F01A         	goto	u2731
  5382   0035E4  EFF6  F01A         	goto	u2730
  5383   0035E8                     u2731:
  5384   0035E8  EFE3  F01A         	goto	l2819
  5385   0035EC                     u2730:
  5386   0035EC                     
  5387                           ; BSR set to: 0
  5388   0035EC  0012               	return		;funcret
  5389   0035EE                     __end_of_I2C_Wait:
  5390                           	callstack 0
  5391                           
  5392 ;; *************** function _Joystick_ADC *****************
  5393 ;; Defined at:
  5394 ;;		line 380 in file "main.c"
  5395 ;; Parameters:    Size  Location     Type
  5396 ;;		None
  5397 ;; Auto vars:     Size  Location     Type
  5398 ;;  value           4   59[BANK0 ] float 
  5399 ;; Return value:  Size  Location     Type
  5400 ;;                  4   55[BANK0 ] float 
  5401 ;; Registers used:
  5402 ;;		wreg, status,2, status,0, prodl, prodh, cstack
  5403 ;; Tracked objects:
  5404 ;;		On entry : 0/0
  5405 ;;		On exit  : 0/0
  5406 ;;		Unchanged: 0/0
  5407 ;; Data sizes:     COMRAM   BANK0   BANK1   BANK2   BANK3   BANK4   BANK5   BANK6   BANK7
  5408 ;;      Params:         0       4       0       0       0       0       0       0       0
  5409 ;;      Locals:         0       4       0       0       0       0       0       0       0
  5410 ;;      Temps:          0       0       0       0       0       0       0       0       0
  5411 ;;      Totals:         0       8       0       0       0       0       0       0       0
  5412 ;;Total ram usage:        8 bytes
  5413 ;; Hardware stack levels used: 1
  5414 ;; Hardware stack levels required when called: 8
  5415 ;; This function calls:
  5416 ;;		___fladd
  5417 ;;		___flmul
  5418 ;;		___xxtofl
  5419 ;; This function is called by:
  5420 ;;		_main
  5421 ;; This function uses a non-reentrant model
  5422 ;;
  5423                           
  5424                           	psect	text26
  5425   00305C                     __ptext26:
  5426                           	callstack 0
  5427   00305C                     _Joystick_ADC:
  5428                           	callstack 22
  5429   00305C                     
  5430                           ;main.c: 382:     CHS3 = 0;
  5431   00305C  9AC2               	bcf	4034,5,c	;volatile
  5432                           
  5433                           ;main.c: 383:     CHS2 = 0;
  5434   00305E  98C2               	bcf	4034,4,c	;volatile
  5435                           
  5436                           ;main.c: 384:     CHS1 = 0;
  5437   003060  96C2               	bcf	4034,3,c	;volatile
  5438                           
  5439                           ;main.c: 385:     CHS0 = 0;
  5440   003062  94C2               	bcf	4034,2,c	;volatile
  5441   003064                     
  5442                           ;main.c: 386:     _delay((unsigned long)((20)*(16000000/4000000.0)));
  5443   003064  0E1A               	movlw	26
  5444   003066                     u5487:
  5445   003066  2EE8               	decfsz	wreg,f,c
  5446   003068  D7FE               	bra	u5487
  5447   00306A  D000               	nop2	
  5448   00306C                     
  5449                           ;main.c: 387:     GO_DONE = 1;
  5450   00306C  82C2               	bsf	4034,1,c	;volatile
  5451   00306E                     l274:
  5452   00306E  B2C2               	btfsc	4034,1,c	;volatile
  5453   003070  EF3C  F018         	goto	u4961
  5454   003074  EF3E  F018         	goto	u4960
  5455   003078                     u4961:
  5456   003078  EF37  F018         	goto	l274
  5457   00307C                     u4960:
  5458   00307C                     
  5459                           ;main.c: 390:     float value = ADRESH * 256.0f + ADRESL;
  5460   00307C  0E00               	movlw	0
  5461   00307E  0100               	movlb	0	; () banked
  5462   003080  6F72               	movwf	___flmul@a& (0+255),b
  5463   003082  0E00               	movlw	0
  5464   003084  6F73               	movwf	(___flmul@a+1)& (0+255),b
  5465   003086  0E80               	movlw	128
  5466   003088  6F74               	movwf	(___flmul@a+2)& (0+255),b
  5467   00308A  0E43               	movlw	67
  5468   00308C  6F75               	movwf	(___flmul@a+3)& (0+255),b
  5469   00308E  50C4               	movf	196,w,c	;volatile
  5470   003090  6F60               	movwf	___xxtofl@val& (0+255),b
  5471   003092  6B61               	clrf	(___xxtofl@val+1)& (0+255),b
  5472   003094  6B62               	clrf	(___xxtofl@val+2)& (0+255),b
  5473   003096  6B63               	clrf	(___xxtofl@val+3)& (0+255),b
  5474   003098  0E01               	movlw	1
  5475   00309A  EC49  F012         	call	___xxtofl
  5476   00309E  C060  F06E         	movff	?___xxtofl,___flmul@b
  5477   0030A2  C061  F06F         	movff	?___xxtofl+1,___flmul@b+1
  5478   0030A6  C062  F070         	movff	?___xxtofl+2,___flmul@b+2
  5479   0030AA  C063  F071         	movff	?___xxtofl+3,___flmul@b+3
  5480   0030AE  EC65  F002         	call	___flmul	;wreg free
  5481   0030B2  C06E  F087         	movff	?___flmul,___fladd@b
  5482   0030B6  C06F  F088         	movff	?___flmul+1,___fladd@b+1
  5483   0030BA  C070  F089         	movff	?___flmul+2,___fladd@b+2
  5484   0030BE  C071  F08A         	movff	?___flmul+3,___fladd@b+3
  5485   0030C2  50C3               	movf	195,w,c	;volatile
  5486   0030C4  0100               	movlb	0	; () banked
  5487   0030C6  6F60               	movwf	___xxtofl@val& (0+255),b
  5488   0030C8  6B61               	clrf	(___xxtofl@val+1)& (0+255),b
  5489   0030CA  6B62               	clrf	(___xxtofl@val+2)& (0+255),b
  5490   0030CC  6B63               	clrf	(___xxtofl@val+3)& (0+255),b
  5491   0030CE  0E01               	movlw	1
  5492   0030D0  EC49  F012         	call	___xxtofl
  5493   0030D4  C060  F08B         	movff	?___xxtofl,___fladd@a
  5494   0030D8  C061  F08C         	movff	?___xxtofl+1,___fladd@a+1
  5495   0030DC  C062  F08D         	movff	?___xxtofl+2,___fladd@a+2
  5496   0030E0  C063  F08E         	movff	?___xxtofl+3,___fladd@a+3
  5497   0030E4  EC09  F000         	call	___fladd	;wreg free
  5498   0030E8  C087  F09B         	movff	?___fladd,Joystick_ADC@value
  5499   0030EC  C088  F09C         	movff	?___fladd+1,Joystick_ADC@value+1
  5500   0030F0  C089  F09D         	movff	?___fladd+2,Joystick_ADC@value+2
  5501   0030F4  C08A  F09E         	movff	?___fladd+3,Joystick_ADC@value+3
  5502   0030F8                     
  5503                           ;main.c: 391:     return value;
  5504   0030F8  C09B  F097         	movff	Joystick_ADC@value,?_Joystick_ADC
  5505   0030FC  C09C  F098         	movff	Joystick_ADC@value+1,?_Joystick_ADC+1
  5506   003100  C09D  F099         	movff	Joystick_ADC@value+2,?_Joystick_ADC+2
  5507   003104  C09E  F09A         	movff	Joystick_ADC@value+3,?_Joystick_ADC+3
  5508   003108  0012               	return		;funcret
  5509   00310A                     __end_of_Joystick_ADC:
  5510                           	callstack 0
  5511                           
  5512 ;; *************** function _Init_ports *****************
  5513 ;; Defined at:
  5514 ;;		line 78 in file "main.c"
  5515 ;; Parameters:    Size  Location     Type
  5516 ;;		None
  5517 ;; Auto vars:     Size  Location     Type
  5518 ;;		None
  5519 ;; Return value:  Size  Location     Type
  5520 ;;                  1    wreg      void 
  5521 ;; Registers used:
  5522 ;;		None
  5523 ;; Tracked objects:
  5524 ;;		On entry : 0/0
  5525 ;;		On exit  : 0/0
  5526 ;;		Unchanged: 0/0
  5527 ;; Data sizes:     COMRAM   BANK0   BANK1   BANK2   BANK3   BANK4   BANK5   BANK6   BANK7
  5528 ;;      Params:         0       0       0       0       0       0       0       0       0
  5529 ;;      Locals:         0       0       0       0       0       0       0       0       0
  5530 ;;      Temps:          0       0       0       0       0       0       0       0       0
  5531 ;;      Totals:         0       0       0       0       0       0       0       0       0
  5532 ;;Total ram usage:        0 bytes
  5533 ;; Hardware stack levels used: 1
  5534 ;; Hardware stack levels required when called: 7
  5535 ;; This function calls:
  5536 ;;		Nothing
  5537 ;; This function is called by:
  5538 ;;		_main
  5539 ;; This function uses a non-reentrant model
  5540 ;;
  5541                           
  5542                           	psect	text27
  5543   003574                     __ptext27:
  5544                           	callstack 0
  5545   003574                     _Init_ports:
  5546                           	callstack 23
  5547   003574                     
  5548                           ;main.c: 79:     TRISC6 = 0;
  5549   003574  9C94               	bcf	3988,6,c	;volatile
  5550                           
  5551                           ;main.c: 80:     TRISC7 = 1;
  5552   003576  8E94               	bsf	3988,7,c	;volatile
  5553                           
  5554                           ;main.c: 81:     TRISB0 = 1;
  5555   003578  8093               	bsf	3987,0,c	;volatile
  5556                           
  5557                           ;main.c: 82:     TRISB1 = 1;
  5558   00357A  8293               	bsf	3987,1,c	;volatile
  5559                           
  5560                           ;main.c: 83:     TRISA0 = 1;
  5561   00357C  8092               	bsf	3986,0,c	;volatile
  5562                           
  5563                           ;main.c: 84:     TRISA1 = 1;
  5564   00357E  8292               	bsf	3986,1,c	;volatile
  5565                           
  5566                           ;main.c: 85:     TRISA2 = 1;
  5567   003580  8492               	bsf	3986,2,c	;volatile
  5568                           
  5569                           ;main.c: 86:     TRISA3 = 1;
  5570   003582  8692               	bsf	3986,3,c	;volatile
  5571                           
  5572                           ;main.c: 87:     TRISD4 = 0;
  5573   003584  9895               	bcf	3989,4,c	;volatile
  5574                           
  5575                           ;main.c: 88:     TRISD5 = 0;
  5576   003586  9A95               	bcf	3989,5,c	;volatile
  5577                           
  5578                           ;main.c: 89:     TRISD6 = 0;
  5579   003588  9C95               	bcf	3989,6,c	;volatile
  5580                           
  5581                           ;main.c: 90:     TRISD7 = 0;
  5582   00358A  9E95               	bcf	3989,7,c	;volatile
  5583                           
  5584                           ;main.c: 91:     TRISB2 = 0;
  5585   00358C  9493               	bcf	3987,2,c	;volatile
  5586                           
  5587                           ;main.c: 92:     TRISB3 = 0;
  5588   00358E  9693               	bcf	3987,3,c	;volatile
  5589                           
  5590                           ;main.c: 93:     TRISB4 = 0;
  5591   003590  9893               	bcf	3987,4,c	;volatile
  5592                           
  5593                           ;main.c: 94:     TRISB5 = 0;
  5594   003592  9A93               	bcf	3987,5,c	;volatile
  5595                           
  5596                           ;main.c: 95:     TRISD0 = 1;
  5597   003594  8095               	bsf	3989,0,c	;volatile
  5598                           
  5599                           ;main.c: 96:     TRISD1 = 1;
  5600   003596  8295               	bsf	3989,1,c	;volatile
  5601                           
  5602                           ;main.c: 97:     INTEDG1 = 1;
  5603   003598  8AF1               	bsf	4081,5,c	;volatile
  5604                           
  5605                           ;main.c: 98:     INTEDG2 = 1;
  5606   00359A  88F1               	bsf	4081,4,c	;volatile
  5607   00359C  0012               	return		;funcret
  5608   00359E                     __end_of_Init_ports:
  5609                           	callstack 0
  5610                           
  5611 ;; *************** function _I2C_Init *****************
  5612 ;; Defined at:
  5613 ;;		line 124 in file "main.c"
  5614 ;; Parameters:    Size  Location     Type
  5615 ;;		None
  5616 ;; Auto vars:     Size  Location     Type
  5617 ;;		None
  5618 ;; Return value:  Size  Location     Type
  5619 ;;                  1    wreg      void 
  5620 ;; Registers used:
  5621 ;;		wreg, status,2
  5622 ;; Tracked objects:
  5623 ;;		On entry : 0/0
  5624 ;;		On exit  : 0/0
  5625 ;;		Unchanged: 0/0
  5626 ;; Data sizes:     COMRAM   BANK0   BANK1   BANK2   BANK3   BANK4   BANK5   BANK6   BANK7
  5627 ;;      Params:         0       0       0       0       0       0       0       0       0
  5628 ;;      Locals:         0       0       0       0       0       0       0       0       0
  5629 ;;      Temps:          0       0       0       0       0       0       0       0       0
  5630 ;;      Totals:         0       0       0       0       0       0       0       0       0
  5631 ;;Total ram usage:        0 bytes
  5632 ;; Hardware stack levels used: 1
  5633 ;; Hardware stack levels required when called: 7
  5634 ;; This function calls:
  5635 ;;		Nothing
  5636 ;; This function is called by:
  5637 ;;		_main
  5638 ;; This function uses a non-reentrant model
  5639 ;;
  5640                           
  5641                           	psect	text28
  5642   003740                     __ptext28:
  5643                           	callstack 0
  5644   003740                     _I2C_Init:
  5645                           	callstack 23
  5646   003740                     
  5647                           ;main.c: 125:     SSPCON1 = 0b00101000;
  5648   003740  0E28               	movlw	40
  5649   003742  6EC6               	movwf	198,c	;volatile
  5650   003744                     
  5651                           ;main.c: 126:     SSPCON2 = 0;
  5652   003744  6AC5               	clrf	197,c	;volatile
  5653                           
  5654                           ;main.c: 127:     SSPADD = (16000000 / (4 * 400000UL)) - 1;
  5655   003746  0E09               	movlw	9
  5656   003748  6EC8               	movwf	200,c	;volatile
  5657   00374A                     
  5658                           ;main.c: 128:     SSPSTAT = 0;
  5659   00374A  6AC7               	clrf	199,c	;volatile
  5660   00374C  0012               	return		;funcret
  5661   00374E                     __end_of_I2C_Init:
  5662                           	callstack 0
  5663                           
  5664 ;; *************** function _Enable_Interrupts *****************
  5665 ;; Defined at:
  5666 ;;		line 412 in file "main.c"
  5667 ;; Parameters:    Size  Location     Type
  5668 ;;		None
  5669 ;; Auto vars:     Size  Location     Type
  5670 ;;		None
  5671 ;; Return value:  Size  Location     Type
  5672 ;;                  1    wreg      void 
  5673 ;; Registers used:
  5674 ;;		None
  5675 ;; Tracked objects:
  5676 ;;		On entry : 0/0
  5677 ;;		On exit  : 0/0
  5678 ;;		Unchanged: 0/0
  5679 ;; Data sizes:     COMRAM   BANK0   BANK1   BANK2   BANK3   BANK4   BANK5   BANK6   BANK7
  5680 ;;      Params:         0       0       0       0       0       0       0       0       0
  5681 ;;      Locals:         0       0       0       0       0       0       0       0       0
  5682 ;;      Temps:          0       0       0       0       0       0       0       0       0
  5683 ;;      Totals:         0       0       0       0       0       0       0       0       0
  5684 ;;Total ram usage:        0 bytes
  5685 ;; Hardware stack levels used: 1
  5686 ;; Hardware stack levels required when called: 7
  5687 ;; This function calls:
  5688 ;;		Nothing
  5689 ;; This function is called by:
  5690 ;;		_main
  5691 ;; This function uses a non-reentrant model
  5692 ;;
  5693                           
  5694                           	psect	text29
  5695   00374E                     __ptext29:
  5696                           	callstack 0
  5697   00374E                     _Enable_Interrupts:
  5698                           	callstack 23
  5699   00374E                     
  5700                           ;main.c: 413:     GIE = 1;
  5701   00374E  8EF2               	bsf	4082,7,c	;volatile
  5702                           
  5703                           ;main.c: 414:     INT1IE = 1;
  5704   003750  86F0               	bsf	4080,3,c	;volatile
  5705                           
  5706                           ;main.c: 415:     INT1IF = 0;
  5707   003752  90F0               	bcf	4080,0,c	;volatile
  5708                           
  5709                           ;main.c: 416:     INT2IE = 1;
  5710   003754  88F0               	bsf	4080,4,c	;volatile
  5711                           
  5712                           ;main.c: 417:     INT2IF = 0;
  5713   003756  92F0               	bcf	4080,1,c	;volatile
  5714   003758  0012               	return		;funcret
  5715   00375A                     __end_of_Enable_Interrupts:
  5716                           	callstack 0
  5717                           
  5718 ;; *************** function _Demux_control *****************
  5719 ;; Defined at:
  5720 ;;		line 469 in file "main.c"
  5721 ;; Parameters:    Size  Location     Type
  5722 ;;		None
  5723 ;; Auto vars:     Size  Location     Type
  5724 ;;  angleConditi    2  155[BANK0 ] int 
  5725 ;; Return value:  Size  Location     Type
  5726 ;;                  1    wreg      void 
  5727 ;; Registers used:
  5728 ;;		wreg, status,2, status,0, prodl, prodh, cstack
  5729 ;; Tracked objects:
  5730 ;;		On entry : 0/0
  5731 ;;		On exit  : 0/0
  5732 ;;		Unchanged: 0/0
  5733 ;; Data sizes:     COMRAM   BANK0   BANK1   BANK2   BANK3   BANK4   BANK5   BANK6   BANK7
  5734 ;;      Params:         0       0       0       0       0       0       0       0       0
  5735 ;;      Locals:         0       2       0       0       0       0       0       0       0
  5736 ;;      Temps:          0       0       0       0       0       0       0       0       0
  5737 ;;      Totals:         0       2       0       0       0       0       0       0       0
  5738 ;;Total ram usage:        2 bytes
  5739 ;; Hardware stack levels used: 1
  5740 ;; Hardware stack levels required when called: 11
  5741 ;; This function calls:
  5742 ;;		_GY_ADC
  5743 ;;		___fltol
  5744 ;; This function is called by:
  5745 ;;		_main
  5746 ;; This function uses a non-reentrant model
  5747 ;;
  5748                           
  5749                           	psect	text30
  5750   001C7E                     __ptext30:
  5751                           	callstack 0
  5752   001C7E                     _Demux_control:
  5753                           	callstack 19
  5754   001C7E                     
  5755                           ;main.c: 470:     int angleCondition = GY_ADC();
  5756   001C7E  ECFD  F00B         	call	_GY_ADC	;wreg free
  5757   001C82  C0ED  F0F1         	movff	?_GY_ADC,___fltol@f1
  5758   001C86  C0EE  F0F2         	movff	?_GY_ADC+1,___fltol@f1+1
  5759   001C8A  C0EF  F0F3         	movff	?_GY_ADC+2,___fltol@f1+2
  5760   001C8E  C0F0  F0F4         	movff	?_GY_ADC+3,___fltol@f1+3
  5761   001C92  EC79  F014         	call	___fltol	;wreg free
  5762   001C96  C0F1  F0FB         	movff	?___fltol,Demux_control@angleCondition
  5763   001C9A  C0F2  F0FC         	movff	?___fltol+1,Demux_control@angleCondition+1
  5764   001C9E                     
  5765                           ;main.c: 471:     RD4 = 1;
  5766   001C9E  8883               	bsf	3971,4,c	;volatile
  5767   001CA0                     
  5768                           ;main.c: 472:     if (angleCondition < 10 && angleCondition > -10) {
  5769   001CA0  0100               	movlb	0	; () banked
  5770   001CA2  BFFC               	btfsc	(Demux_control@angleCondition+1)& (0+255),7,b
  5771   001CA4  EF5F  F00E         	goto	u4970
  5772   001CA8  51FC               	movf	(Demux_control@angleCondition+1)& (0+255),w,b
  5773   001CAA  E107               	bnz	u4971
  5774   001CAC  0E0A               	movlw	10
  5775   001CAE  5DFB               	subwf	Demux_control@angleCondition& (0+255),w,b
  5776   001CB0  B0D8               	btfsc	status,0,c
  5777   001CB2  EF5D  F00E         	goto	u4971
  5778   001CB6  EF5F  F00E         	goto	u4970
  5779   001CBA                     u4971:
  5780   001CBA  EF70  F00E         	goto	l305
  5781   001CBE                     u4970:
  5782   001CBE                     
  5783                           ; BSR set to: 0
  5784   001CBE  AFFC               	btfss	(Demux_control@angleCondition+1)& (0+255),7,b
  5785   001CC0  EF6D  F00E         	goto	u4980
  5786   001CC4  0EF7               	movlw	247
  5787   001CC6  5DFB               	subwf	Demux_control@angleCondition& (0+255),w,b
  5788   001CC8  0EFF               	movlw	255
  5789   001CCA  59FC               	subwfb	(Demux_control@angleCondition+1)& (0+255),w,b
  5790   001CCC  A0D8               	btfss	status,0,c
  5791   001CCE  EF6B  F00E         	goto	u4981
  5792   001CD2  EF6D  F00E         	goto	u4980
  5793   001CD6                     u4981:
  5794   001CD6  EF70  F00E         	goto	l305
  5795   001CDA                     u4980:
  5796   001CDA                     
  5797                           ; BSR set to: 0
  5798                           ;main.c: 473:         RD4 = 0;
  5799   001CDA  9883               	bcf	3971,4,c	;volatile
  5800                           
  5801                           ;main.c: 474:     } else {
  5802   001CDC  EF4D  F00F         	goto	l321
  5803   001CE0                     l305:
  5804                           
  5805                           ; BSR set to: 0
  5806                           ;main.c: 475:         RD4 = 1;
  5807   001CE0  8883               	bsf	3971,4,c	;volatile
  5808   001CE2                     
  5809                           ; BSR set to: 0
  5810                           ;main.c: 476:         if (angleCondition <= -70) {
  5811   001CE2  AFFC               	btfss	(Demux_control@angleCondition+1)& (0+255),7,b
  5812   001CE4  EF7D  F00E         	goto	u4991
  5813   001CE8  0EBB               	movlw	187
  5814   001CEA  5DFB               	subwf	Demux_control@angleCondition& (0+255),w,b
  5815   001CEC  0EFF               	movlw	255
  5816   001CEE  59FC               	subwfb	(Demux_control@angleCondition+1)& (0+255),w,b
  5817   001CF0  B0D8               	btfsc	status,0,c
  5818   001CF2  EF7D  F00E         	goto	u4991
  5819   001CF6  EF7F  F00E         	goto	u4990
  5820   001CFA                     u4991:
  5821   001CFA  EF84  F00E         	goto	l4197
  5822   001CFE                     u4990:
  5823   001CFE                     
  5824                           ; BSR set to: 0
  5825                           ;main.c: 477:             RD5 = 0;
  5826   001CFE  9A83               	bcf	3971,5,c	;volatile
  5827                           
  5828                           ;main.c: 478:             RD6 = 0;
  5829   001D00  9C83               	bcf	3971,6,c	;volatile
  5830                           
  5831                           ;main.c: 479:             RD7 = 0;
  5832   001D02  9E83               	bcf	3971,7,c	;volatile
  5833                           
  5834                           ;main.c: 480:         } else if (angleCondition > -70 && angleCondition <= -50) {
  5835   001D04  EF4D  F00F         	goto	l321
  5836   001D08                     l4197:
  5837                           
  5838                           ; BSR set to: 0
  5839   001D08  AFFC               	btfss	(Demux_control@angleCondition+1)& (0+255),7,b
  5840   001D0A  EF92  F00E         	goto	u5000
  5841   001D0E  0EBB               	movlw	187
  5842   001D10  5DFB               	subwf	Demux_control@angleCondition& (0+255),w,b
  5843   001D12  0EFF               	movlw	255
  5844   001D14  59FC               	subwfb	(Demux_control@angleCondition+1)& (0+255),w,b
  5845   001D16  A0D8               	btfss	status,0,c
  5846   001D18  EF90  F00E         	goto	u5001
  5847   001D1C  EF92  F00E         	goto	u5000
  5848   001D20                     u5001:
  5849   001D20  EFA5  F00E         	goto	l4203
  5850   001D24                     u5000:
  5851   001D24                     
  5852                           ; BSR set to: 0
  5853   001D24  AFFC               	btfss	(Demux_control@angleCondition+1)& (0+255),7,b
  5854   001D26  EF9E  F00E         	goto	u5011
  5855   001D2A  0ECF               	movlw	207
  5856   001D2C  5DFB               	subwf	Demux_control@angleCondition& (0+255),w,b
  5857   001D2E  0EFF               	movlw	255
  5858   001D30  59FC               	subwfb	(Demux_control@angleCondition+1)& (0+255),w,b
  5859   001D32  B0D8               	btfsc	status,0,c
  5860   001D34  EF9E  F00E         	goto	u5011
  5861   001D38  EFA0  F00E         	goto	u5010
  5862   001D3C                     u5011:
  5863   001D3C  EFA5  F00E         	goto	l4203
  5864   001D40                     u5010:
  5865   001D40                     
  5866                           ; BSR set to: 0
  5867                           ;main.c: 481:             RD5 = 0;
  5868   001D40  9A83               	bcf	3971,5,c	;volatile
  5869                           
  5870                           ;main.c: 482:             RD6 = 0;
  5871   001D42  9C83               	bcf	3971,6,c	;volatile
  5872                           
  5873                           ;main.c: 483:             RD7 = 1;
  5874   001D44  8E83               	bsf	3971,7,c	;volatile
  5875                           
  5876                           ;main.c: 484:         } else if (angleCondition > -50 && angleCondition <= -30) {
  5877   001D46  EF4D  F00F         	goto	l321
  5878   001D4A                     l4203:
  5879                           
  5880                           ; BSR set to: 0
  5881   001D4A  AFFC               	btfss	(Demux_control@angleCondition+1)& (0+255),7,b
  5882   001D4C  EFB3  F00E         	goto	u5020
  5883   001D50  0ECF               	movlw	207
  5884   001D52  5DFB               	subwf	Demux_control@angleCondition& (0+255),w,b
  5885   001D54  0EFF               	movlw	255
  5886   001D56  59FC               	subwfb	(Demux_control@angleCondition+1)& (0+255),w,b
  5887   001D58  A0D8               	btfss	status,0,c
  5888   001D5A  EFB1  F00E         	goto	u5021
  5889   001D5E  EFB3  F00E         	goto	u5020
  5890   001D62                     u5021:
  5891   001D62  EFC6  F00E         	goto	l4209
  5892   001D66                     u5020:
  5893   001D66                     
  5894                           ; BSR set to: 0
  5895   001D66  AFFC               	btfss	(Demux_control@angleCondition+1)& (0+255),7,b
  5896   001D68  EFBF  F00E         	goto	u5031
  5897   001D6C  0EE3               	movlw	227
  5898   001D6E  5DFB               	subwf	Demux_control@angleCondition& (0+255),w,b
  5899   001D70  0EFF               	movlw	255
  5900   001D72  59FC               	subwfb	(Demux_control@angleCondition+1)& (0+255),w,b
  5901   001D74  B0D8               	btfsc	status,0,c
  5902   001D76  EFBF  F00E         	goto	u5031
  5903   001D7A  EFC1  F00E         	goto	u5030
  5904   001D7E                     u5031:
  5905   001D7E  EFC6  F00E         	goto	l4209
  5906   001D82                     u5030:
  5907   001D82                     
  5908                           ; BSR set to: 0
  5909                           ;main.c: 485:             RD5 = 0;
  5910   001D82  9A83               	bcf	3971,5,c	;volatile
  5911                           
  5912                           ;main.c: 486:             RD6 = 1;
  5913   001D84  8C83               	bsf	3971,6,c	;volatile
  5914                           
  5915                           ;main.c: 487:             RD7 = 0;
  5916   001D86  9E83               	bcf	3971,7,c	;volatile
  5917                           
  5918                           ;main.c: 488:         } else if (angleCondition > -30 && angleCondition <= -10) {
  5919   001D88  EF4D  F00F         	goto	l321
  5920   001D8C                     l4209:
  5921                           
  5922                           ; BSR set to: 0
  5923   001D8C  AFFC               	btfss	(Demux_control@angleCondition+1)& (0+255),7,b
  5924   001D8E  EFD4  F00E         	goto	u5040
  5925   001D92  0EE3               	movlw	227
  5926   001D94  5DFB               	subwf	Demux_control@angleCondition& (0+255),w,b
  5927   001D96  0EFF               	movlw	255
  5928   001D98  59FC               	subwfb	(Demux_control@angleCondition+1)& (0+255),w,b
  5929   001D9A  A0D8               	btfss	status,0,c
  5930   001D9C  EFD2  F00E         	goto	u5041
  5931   001DA0  EFD4  F00E         	goto	u5040
  5932   001DA4                     u5041:
  5933   001DA4  EFE7  F00E         	goto	l4215
  5934   001DA8                     u5040:
  5935   001DA8                     
  5936                           ; BSR set to: 0
  5937   001DA8  AFFC               	btfss	(Demux_control@angleCondition+1)& (0+255),7,b
  5938   001DAA  EFE0  F00E         	goto	u5051
  5939   001DAE  0EF7               	movlw	247
  5940   001DB0  5DFB               	subwf	Demux_control@angleCondition& (0+255),w,b
  5941   001DB2  0EFF               	movlw	255
  5942   001DB4  59FC               	subwfb	(Demux_control@angleCondition+1)& (0+255),w,b
  5943   001DB6  B0D8               	btfsc	status,0,c
  5944   001DB8  EFE0  F00E         	goto	u5051
  5945   001DBC  EFE2  F00E         	goto	u5050
  5946   001DC0                     u5051:
  5947   001DC0  EFE7  F00E         	goto	l4215
  5948   001DC4                     u5050:
  5949   001DC4                     
  5950                           ; BSR set to: 0
  5951                           ;main.c: 489:             RD5 = 0;
  5952   001DC4  9A83               	bcf	3971,5,c	;volatile
  5953                           
  5954                           ;main.c: 490:             RD6 = 1;
  5955   001DC6  8C83               	bsf	3971,6,c	;volatile
  5956                           
  5957                           ;main.c: 491:             RD7 = 1;
  5958   001DC8  8E83               	bsf	3971,7,c	;volatile
  5959                           
  5960                           ;main.c: 492:         } else if (angleCondition > 10 && angleCondition <= 30) {
  5961   001DCA  EF4D  F00F         	goto	l321
  5962   001DCE                     l4215:
  5963                           
  5964                           ; BSR set to: 0
  5965   001DCE  BFFC               	btfsc	(Demux_control@angleCondition+1)& (0+255),7,b
  5966   001DD0  EFF3  F00E         	goto	u5061
  5967   001DD4  51FC               	movf	(Demux_control@angleCondition+1)& (0+255),w,b
  5968   001DD6  E109               	bnz	u5060
  5969   001DD8  0E0B               	movlw	11
  5970   001DDA  5DFB               	subwf	Demux_control@angleCondition& (0+255),w,b
  5971   001DDC  A0D8               	btfss	status,0,c
  5972   001DDE  EFF3  F00E         	goto	u5061
  5973   001DE2  EFF5  F00E         	goto	u5060
  5974   001DE6                     u5061:
  5975   001DE6  EF08  F00F         	goto	l4221
  5976   001DEA                     u5060:
  5977   001DEA                     
  5978                           ; BSR set to: 0
  5979   001DEA  BFFC               	btfsc	(Demux_control@angleCondition+1)& (0+255),7,b
  5980   001DEC  EF03  F00F         	goto	u5070
  5981   001DF0  51FC               	movf	(Demux_control@angleCondition+1)& (0+255),w,b
  5982   001DF2  E107               	bnz	u5071
  5983   001DF4  0E1F               	movlw	31
  5984   001DF6  5DFB               	subwf	Demux_control@angleCondition& (0+255),w,b
  5985   001DF8  B0D8               	btfsc	status,0,c
  5986   001DFA  EF01  F00F         	goto	u5071
  5987   001DFE  EF03  F00F         	goto	u5070
  5988   001E02                     u5071:
  5989   001E02  EF08  F00F         	goto	l4221
  5990   001E06                     u5070:
  5991   001E06                     
  5992                           ; BSR set to: 0
  5993                           ;main.c: 493:             RD5 = 1;
  5994   001E06  8A83               	bsf	3971,5,c	;volatile
  5995                           
  5996                           ;main.c: 494:             RD6 = 0;
  5997   001E08  9C83               	bcf	3971,6,c	;volatile
  5998                           
  5999                           ;main.c: 495:             RD7 = 0;
  6000   001E0A  9E83               	bcf	3971,7,c	;volatile
  6001                           
  6002                           ;main.c: 496:         } else if (angleCondition > 30 && angleCondition <= 50) {
  6003   001E0C  EF4D  F00F         	goto	l321
  6004   001E10                     l4221:
  6005                           
  6006                           ; BSR set to: 0
  6007   001E10  BFFC               	btfsc	(Demux_control@angleCondition+1)& (0+255),7,b
  6008   001E12  EF14  F00F         	goto	u5081
  6009   001E16  51FC               	movf	(Demux_control@angleCondition+1)& (0+255),w,b
  6010   001E18  E109               	bnz	u5080
  6011   001E1A  0E1F               	movlw	31
  6012   001E1C  5DFB               	subwf	Demux_control@angleCondition& (0+255),w,b
  6013   001E1E  A0D8               	btfss	status,0,c
  6014   001E20  EF14  F00F         	goto	u5081
  6015   001E24  EF16  F00F         	goto	u5080
  6016   001E28                     u5081:
  6017   001E28  EF29  F00F         	goto	l4227
  6018   001E2C                     u5080:
  6019   001E2C                     
  6020                           ; BSR set to: 0
  6021   001E2C  BFFC               	btfsc	(Demux_control@angleCondition+1)& (0+255),7,b
  6022   001E2E  EF24  F00F         	goto	u5090
  6023   001E32  51FC               	movf	(Demux_control@angleCondition+1)& (0+255),w,b
  6024   001E34  E107               	bnz	u5091
  6025   001E36  0E33               	movlw	51
  6026   001E38  5DFB               	subwf	Demux_control@angleCondition& (0+255),w,b
  6027   001E3A  B0D8               	btfsc	status,0,c
  6028   001E3C  EF22  F00F         	goto	u5091
  6029   001E40  EF24  F00F         	goto	u5090
  6030   001E44                     u5091:
  6031   001E44  EF29  F00F         	goto	l4227
  6032   001E48                     u5090:
  6033   001E48                     
  6034                           ; BSR set to: 0
  6035                           ;main.c: 497:             RD5 = 1;
  6036   001E48  8A83               	bsf	3971,5,c	;volatile
  6037                           
  6038                           ;main.c: 498:             RD6 = 0;
  6039   001E4A  9C83               	bcf	3971,6,c	;volatile
  6040                           
  6041                           ;main.c: 499:             RD7 = 1;
  6042   001E4C  8E83               	bsf	3971,7,c	;volatile
  6043                           
  6044                           ;main.c: 500:         } else if (angleCondition > 50 && angleCondition <= 70) {
  6045   001E4E  EF4D  F00F         	goto	l321
  6046   001E52                     l4227:
  6047                           
  6048                           ; BSR set to: 0
  6049   001E52  BFFC               	btfsc	(Demux_control@angleCondition+1)& (0+255),7,b
  6050   001E54  EF35  F00F         	goto	u5101
  6051   001E58  51FC               	movf	(Demux_control@angleCondition+1)& (0+255),w,b
  6052   001E5A  E109               	bnz	u5100
  6053   001E5C  0E33               	movlw	51
  6054   001E5E  5DFB               	subwf	Demux_control@angleCondition& (0+255),w,b
  6055   001E60  A0D8               	btfss	status,0,c
  6056   001E62  EF35  F00F         	goto	u5101
  6057   001E66  EF37  F00F         	goto	u5100
  6058   001E6A                     u5101:
  6059   001E6A  EF4A  F00F         	goto	l319
  6060   001E6E                     u5100:
  6061   001E6E                     
  6062                           ; BSR set to: 0
  6063   001E6E  BFFC               	btfsc	(Demux_control@angleCondition+1)& (0+255),7,b
  6064   001E70  EF45  F00F         	goto	u5110
  6065   001E74  51FC               	movf	(Demux_control@angleCondition+1)& (0+255),w,b
  6066   001E76  E107               	bnz	u5111
  6067   001E78  0E47               	movlw	71
  6068   001E7A  5DFB               	subwf	Demux_control@angleCondition& (0+255),w,b
  6069   001E7C  B0D8               	btfsc	status,0,c
  6070   001E7E  EF43  F00F         	goto	u5111
  6071   001E82  EF45  F00F         	goto	u5110
  6072   001E86                     u5111:
  6073   001E86  EF4A  F00F         	goto	l319
  6074   001E8A                     u5110:
  6075   001E8A                     
  6076                           ; BSR set to: 0
  6077                           ;main.c: 501:             RD5 = 1;
  6078   001E8A  8A83               	bsf	3971,5,c	;volatile
  6079                           
  6080                           ;main.c: 502:             RD6 = 1;
  6081   001E8C  8C83               	bsf	3971,6,c	;volatile
  6082                           
  6083                           ;main.c: 503:             RD7 = 0;
  6084   001E8E  9E83               	bcf	3971,7,c	;volatile
  6085                           
  6086                           ;main.c: 504:         } else {
  6087   001E90  EF4D  F00F         	goto	l321
  6088   001E94                     l319:
  6089                           
  6090                           ; BSR set to: 0
  6091                           ;main.c: 505:             RD5 = 1;
  6092   001E94  8A83               	bsf	3971,5,c	;volatile
  6093                           
  6094                           ;main.c: 506:             RD6 = 1;
  6095   001E96  8C83               	bsf	3971,6,c	;volatile
  6096                           
  6097                           ;main.c: 507:             RD7 = 1;
  6098   001E98  8E83               	bsf	3971,7,c	;volatile
  6099   001E9A                     l321:
  6100                           
  6101                           ; BSR set to: 0
  6102   001E9A  0012               	return		;funcret
  6103   001E9C                     __end_of_Demux_control:
  6104                           	callstack 0
  6105                           
  6106 ;; *************** function ___fltol *****************
  6107 ;; Defined at:
  6108 ;;		line 43 in file "C:\Program Files\Microchip\xc8\v3.00\pic\sources\c99\common\fltol.c"
  6109 ;; Parameters:    Size  Location     Type
  6110 ;;  f1              4  145[BANK0 ] void 
  6111 ;; Auto vars:     Size  Location     Type
  6112 ;;  exp1            1  154[BANK0 ] unsigned char 
  6113 ;;  sign1           1  153[BANK0 ] unsigned char 
  6114 ;; Return value:  Size  Location     Type
  6115 ;;                  4  145[BANK0 ] long 
  6116 ;; Registers used:
  6117 ;;		wreg, status,2, status,0
  6118 ;; Tracked objects:
  6119 ;;		On entry : 0/0
  6120 ;;		On exit  : 0/0
  6121 ;;		Unchanged: 0/0
  6122 ;; Data sizes:     COMRAM   BANK0   BANK1   BANK2   BANK3   BANK4   BANK5   BANK6   BANK7
  6123 ;;      Params:         0       4       0       0       0       0       0       0       0
  6124 ;;      Locals:         0       2       0       0       0       0       0       0       0
  6125 ;;      Temps:          0       4       0       0       0       0       0       0       0
  6126 ;;      Totals:         0      10       0       0       0       0       0       0       0
  6127 ;;Total ram usage:       10 bytes
  6128 ;; Hardware stack levels used: 1
  6129 ;; Hardware stack levels required when called: 7
  6130 ;; This function calls:
  6131 ;;		Nothing
  6132 ;; This function is called by:
  6133 ;;		_Demux_control
  6134 ;;		_main
  6135 ;; This function uses a non-reentrant model
  6136 ;;
  6137                           
  6138                           	psect	text31
  6139   0028F2                     __ptext31:
  6140                           	callstack 0
  6141   0028F2                     ___fltol:
  6142                           	callstack 23
  6143   0028F2  0100               	movlb	0	; () banked
  6144   0028F4  35F3               	rlcf	(___fltol@f1+2)& (0+255),w,b
  6145   0028F6  35F4               	rlcf	(___fltol@f1+3)& (0+255),w,b
  6146   0028F8  6FFA               	movwf	___fltol@exp1& (0+255),b
  6147   0028FA  51FA               	movf	___fltol@exp1& (0+255),w,b
  6148   0028FC  A4D8               	btfss	status,2,c
  6149   0028FE  EF83  F014         	goto	u4621
  6150   002902  EF85  F014         	goto	u4620
  6151   002906                     u4621:
  6152   002906  EF8F  F014         	goto	l3897
  6153   00290A                     u4620:
  6154   00290A                     l3893:
  6155                           
  6156                           ; BSR set to: 0
  6157   00290A  0E00               	movlw	0
  6158   00290C  6FF1               	movwf	?___fltol& (0+255),b
  6159   00290E  0E00               	movlw	0
  6160   002910  6FF2               	movwf	(?___fltol+1)& (0+255),b
  6161   002912  0E00               	movlw	0
  6162   002914  6FF3               	movwf	(?___fltol+2)& (0+255),b
  6163   002916  0E00               	movlw	0
  6164   002918  6FF4               	movwf	(?___fltol+3)& (0+255),b
  6165   00291A  EFFC  F014         	goto	l643
  6166   00291E                     l3897:
  6167                           
  6168                           ; BSR set to: 0
  6169   00291E  C0F1  F0F5         	movff	___fltol@f1,??___fltol
  6170   002922  C0F2  F0F6         	movff	___fltol@f1+1,??___fltol+1
  6171   002926  C0F3  F0F7         	movff	___fltol@f1+2,??___fltol+2
  6172   00292A  C0F4  F0F8         	movff	___fltol@f1+3,??___fltol+3
  6173   00292E  0E20               	movlw	32
  6174   002930  EF9F  F014         	goto	u4630
  6175   002934                     u4635:
  6176   002934  90D8               	bcf	status,0,c
  6177   002936  33F8               	rrcf	(??___fltol+3)& (0+255),f,b
  6178   002938  33F7               	rrcf	(??___fltol+2)& (0+255),f,b
  6179   00293A  33F6               	rrcf	(??___fltol+1)& (0+255),f,b
  6180   00293C  33F5               	rrcf	??___fltol& (0+255),f,b
  6181   00293E                     u4630:
  6182   00293E  2EE8               	decfsz	wreg,f,c
  6183   002940  EF9A  F014         	goto	u4635
  6184   002944  51F5               	movf	??___fltol& (0+255),w,b
  6185   002946  6FF9               	movwf	___fltol@sign1& (0+255),b
  6186   002948                     
  6187                           ; BSR set to: 0
  6188   002948  8FF3               	bsf	(___fltol@f1+2)& (0+255),7,b
  6189   00294A                     
  6190                           ; BSR set to: 0
  6191   00294A  0EFF               	movlw	255
  6192   00294C  17F1               	andwf	___fltol@f1& (0+255),f,b
  6193   00294E  0EFF               	movlw	255
  6194   002950  17F2               	andwf	(___fltol@f1+1)& (0+255),f,b
  6195   002952  0EFF               	movlw	255
  6196   002954  17F3               	andwf	(___fltol@f1+2)& (0+255),f,b
  6197   002956  0E00               	movlw	0
  6198   002958  17F4               	andwf	(___fltol@f1+3)& (0+255),f,b
  6199   00295A                     
  6200                           ; BSR set to: 0
  6201   00295A  0E96               	movlw	150
  6202   00295C  5FFA               	subwf	___fltol@exp1& (0+255),f,b
  6203   00295E                     
  6204                           ; BSR set to: 0
  6205   00295E  BFFA               	btfsc	___fltol@exp1& (0+255),7,b
  6206   002960  EFB6  F014         	goto	u4640
  6207   002964  EFB4  F014         	goto	u4641
  6208   002968                     u4641:
  6209   002968  EFCC  F014         	goto	l3917
  6210   00296C                     u4640:
  6211   00296C                     
  6212                           ; BSR set to: 0
  6213   00296C  51FA               	movf	___fltol@exp1& (0+255),w,b
  6214   00296E  0A80               	xorlw	128
  6215   002970  0F97               	addlw	151
  6216   002972  B0D8               	btfsc	status,0,c
  6217   002974  EFBE  F014         	goto	u4651
  6218   002978  EFC0  F014         	goto	u4650
  6219   00297C                     u4651:
  6220   00297C  EFC2  F014         	goto	l3913
  6221   002980                     u4650:
  6222   002980  EF85  F014         	goto	l3893
  6223   002984                     l3913:
  6224                           
  6225                           ; BSR set to: 0
  6226   002984  90D8               	bcf	status,0,c
  6227   002986  33F4               	rrcf	(___fltol@f1+3)& (0+255),f,b
  6228   002988  33F3               	rrcf	(___fltol@f1+2)& (0+255),f,b
  6229   00298A  33F2               	rrcf	(___fltol@f1+1)& (0+255),f,b
  6230   00298C  33F1               	rrcf	___fltol@f1& (0+255),f,b
  6231   00298E                     
  6232                           ; BSR set to: 0
  6233   00298E  3FFA               	incfsz	___fltol@exp1& (0+255),f,b
  6234   002990  EFC2  F014         	goto	l3913
  6235   002994  EFE4  F014         	goto	l3927
  6236   002998                     l3917:
  6237                           
  6238                           ; BSR set to: 0
  6239   002998  0E1F               	movlw	31
  6240   00299A  65FA               	cpfsgt	___fltol@exp1& (0+255),b
  6241   00299C  EFD2  F014         	goto	u4661
  6242   0029A0  EFD4  F014         	goto	u4660
  6243   0029A4                     u4661:
  6244   0029A4  EFDC  F014         	goto	l3925
  6245   0029A8                     u4660:
  6246   0029A8  EF85  F014         	goto	l3893
  6247   0029AC                     l3923:
  6248                           
  6249                           ; BSR set to: 0
  6250   0029AC  90D8               	bcf	status,0,c
  6251   0029AE  37F1               	rlcf	___fltol@f1& (0+255),f,b
  6252   0029B0  37F2               	rlcf	(___fltol@f1+1)& (0+255),f,b
  6253   0029B2  37F3               	rlcf	(___fltol@f1+2)& (0+255),f,b
  6254   0029B4  37F4               	rlcf	(___fltol@f1+3)& (0+255),f,b
  6255   0029B6  07FA               	decf	___fltol@exp1& (0+255),f,b
  6256   0029B8                     l3925:
  6257                           
  6258                           ; BSR set to: 0
  6259   0029B8  51FA               	movf	___fltol@exp1& (0+255),w,b
  6260   0029BA  A4D8               	btfss	status,2,c
  6261   0029BC  EFE2  F014         	goto	u4671
  6262   0029C0  EFE4  F014         	goto	u4670
  6263   0029C4                     u4671:
  6264   0029C4  EFD6  F014         	goto	l3923
  6265   0029C8                     u4670:
  6266   0029C8                     l3927:
  6267                           
  6268                           ; BSR set to: 0
  6269   0029C8  51F9               	movf	___fltol@sign1& (0+255),w,b
  6270   0029CA  B4D8               	btfsc	status,2,c
  6271   0029CC  EFEA  F014         	goto	u4681
  6272   0029D0  EFEC  F014         	goto	u4680
  6273   0029D4                     u4681:
  6274   0029D4  EFF4  F014         	goto	l3931
  6275   0029D8                     u4680:
  6276   0029D8                     
  6277                           ; BSR set to: 0
  6278   0029D8  1FF4               	comf	(___fltol@f1+3)& (0+255),f,b
  6279   0029DA  1FF3               	comf	(___fltol@f1+2)& (0+255),f,b
  6280   0029DC  1FF2               	comf	(___fltol@f1+1)& (0+255),f,b
  6281   0029DE  6DF1               	negf	___fltol@f1& (0+255),b
  6282   0029E0  0E00               	movlw	0
  6283   0029E2  23F2               	addwfc	(___fltol@f1+1)& (0+255),f,b
  6284   0029E4  23F3               	addwfc	(___fltol@f1+2)& (0+255),f,b
  6285   0029E6  23F4               	addwfc	(___fltol@f1+3)& (0+255),f,b
  6286   0029E8                     l3931:
  6287                           
  6288                           ; BSR set to: 0
  6289   0029E8  C0F1  F0F1         	movff	___fltol@f1,?___fltol
  6290   0029EC  C0F2  F0F2         	movff	___fltol@f1+1,?___fltol+1
  6291   0029F0  C0F3  F0F3         	movff	___fltol@f1+2,?___fltol+2
  6292   0029F4  C0F4  F0F4         	movff	___fltol@f1+3,?___fltol+3
  6293   0029F8                     l643:
  6294                           
  6295                           ; BSR set to: 0
  6296   0029F8  0012               	return		;funcret
  6297   0029FA                     __end_of___fltol:
  6298                           	callstack 0
  6299                           
  6300 ;; *************** function _GY_ADC *****************
  6301 ;; Defined at:
  6302 ;;		line 395 in file "main.c"
  6303 ;; Parameters:    Size  Location     Type
  6304 ;;		None
  6305 ;; Auto vars:     Size  Location     Type
  6306 ;;  gAcc            4   16[BANK1 ] float 
  6307 ;;  angle           4    8[BANK1 ] float 
  6308 ;;  voltage         4    4[BANK1 ] float 
  6309 ;;  rawy            4    0[BANK1 ] float 
  6310 ;; Return value:  Size  Location     Type
  6311 ;;                  4  141[BANK0 ] float 
  6312 ;; Registers used:
  6313 ;;		wreg, status,2, status,0, prodl, prodh, cstack
  6314 ;; Tracked objects:
  6315 ;;		On entry : 0/0
  6316 ;;		On exit  : 0/0
  6317 ;;		Unchanged: 0/0
  6318 ;; Data sizes:     COMRAM   BANK0   BANK1   BANK2   BANK3   BANK4   BANK5   BANK6   BANK7
  6319 ;;      Params:         0       4       0       0       0       0       0       0       0
  6320 ;;      Locals:         0       0      20       0       0       0       0       0       0
  6321 ;;      Temps:          0       0       0       0       0       0       0       0       0
  6322 ;;      Totals:         0       4      20       0       0       0       0       0       0
  6323 ;;Total ram usage:       24 bytes
  6324 ;; Hardware stack levels used: 1
  6325 ;; Hardware stack levels required when called: 10
  6326 ;; This function calls:
  6327 ;;		___fladd
  6328 ;;		___fldiv
  6329 ;;		___flge
  6330 ;;		___flmul
  6331 ;;		___xxtofl
  6332 ;;		_asinf
  6333 ;; This function is called by:
  6334 ;;		_Demux_control
  6335 ;;		_main
  6336 ;; This function uses a non-reentrant model
  6337 ;;
  6338                           
  6339                           	psect	text32
  6340   0017FA                     __ptext32:
  6341                           	callstack 0
  6342   0017FA                     _GY_ADC:
  6343                           	callstack 20
  6344   0017FA                     
  6345                           ;main.c: 397:     CHS2 = 0;
  6346   0017FA  98C2               	bcf	4034,4,c	;volatile
  6347                           
  6348                           ;main.c: 398:     CHS1 = 0;
  6349   0017FC  96C2               	bcf	4034,3,c	;volatile
  6350                           
  6351                           ;main.c: 399:     CHS0 = 1;
  6352   0017FE  84C2               	bsf	4034,2,c	;volatile
  6353                           
  6354                           ;main.c: 400:     GO_DONE = 1;
  6355   001800  82C2               	bsf	4034,1,c	;volatile
  6356   001802                     l280:
  6357   001802  B2C2               	btfsc	4034,1,c	;volatile
  6358   001804  EF06  F00C         	goto	u4591
  6359   001808  EF08  F00C         	goto	u4590
  6360   00180C                     u4591:
  6361   00180C  EF01  F00C         	goto	l280
  6362   001810                     u4590:
  6363   001810                     
  6364                           ;main.c: 402:     float rawy = ADRESH * 256.0f + ADRESL;
  6365   001810  0E00               	movlw	0
  6366   001812  0100               	movlb	0	; () banked
  6367   001814  6F72               	movwf	___flmul@a& (0+255),b
  6368   001816  0E00               	movlw	0
  6369   001818  6F73               	movwf	(___flmul@a+1)& (0+255),b
  6370   00181A  0E80               	movlw	128
  6371   00181C  6F74               	movwf	(___flmul@a+2)& (0+255),b
  6372   00181E  0E43               	movlw	67
  6373   001820  6F75               	movwf	(___flmul@a+3)& (0+255),b
  6374   001822  50C4               	movf	196,w,c	;volatile
  6375   001824  6F60               	movwf	___xxtofl@val& (0+255),b
  6376   001826  6B61               	clrf	(___xxtofl@val+1)& (0+255),b
  6377   001828  6B62               	clrf	(___xxtofl@val+2)& (0+255),b
  6378   00182A  6B63               	clrf	(___xxtofl@val+3)& (0+255),b
  6379   00182C  0E01               	movlw	1
  6380   00182E  EC49  F012         	call	___xxtofl
  6381   001832  C060  F06E         	movff	?___xxtofl,___flmul@b
  6382   001836  C061  F06F         	movff	?___xxtofl+1,___flmul@b+1
  6383   00183A  C062  F070         	movff	?___xxtofl+2,___flmul@b+2
  6384   00183E  C063  F071         	movff	?___xxtofl+3,___flmul@b+3
  6385   001842  EC65  F002         	call	___flmul	;wreg free
  6386   001846  C06E  F087         	movff	?___flmul,___fladd@b
  6387   00184A  C06F  F088         	movff	?___flmul+1,___fladd@b+1
  6388   00184E  C070  F089         	movff	?___flmul+2,___fladd@b+2
  6389   001852  C071  F08A         	movff	?___flmul+3,___fladd@b+3
  6390   001856  50C3               	movf	195,w,c	;volatile
  6391   001858  0100               	movlb	0	; () banked
  6392   00185A  6F60               	movwf	___xxtofl@val& (0+255),b
  6393   00185C  6B61               	clrf	(___xxtofl@val+1)& (0+255),b
  6394   00185E  6B62               	clrf	(___xxtofl@val+2)& (0+255),b
  6395   001860  6B63               	clrf	(___xxtofl@val+3)& (0+255),b
  6396   001862  0E01               	movlw	1
  6397   001864  EC49  F012         	call	___xxtofl
  6398   001868  C060  F08B         	movff	?___xxtofl,___fladd@a
  6399   00186C  C061  F08C         	movff	?___xxtofl+1,___fladd@a+1
  6400   001870  C062  F08D         	movff	?___xxtofl+2,___fladd@a+2
  6401   001874  C063  F08E         	movff	?___xxtofl+3,___fladd@a+3
  6402   001878  EC09  F000         	call	___fladd	;wreg free
  6403   00187C  C087  F100         	movff	?___fladd,GY_ADC@rawy
  6404   001880  C088  F101         	movff	?___fladd+1,GY_ADC@rawy+1
  6405   001884  C089  F102         	movff	?___fladd+2,GY_ADC@rawy+2
  6406   001888  C08A  F103         	movff	?___fladd+3,GY_ADC@rawy+3
  6407                           
  6408                           ;main.c: 403:     float voltage = (5.0f * rawy) / 1023.0f;
  6409   00188C  0E00               	movlw	0
  6410   00188E  0100               	movlb	0	; () banked
  6411   001890  6F72               	movwf	___flmul@a& (0+255),b
  6412   001892  0E00               	movlw	0
  6413   001894  6F73               	movwf	(___flmul@a+1)& (0+255),b
  6414   001896  0EA0               	movlw	160
  6415   001898  6F74               	movwf	(___flmul@a+2)& (0+255),b
  6416   00189A  0E40               	movlw	64
  6417   00189C  6F75               	movwf	(___flmul@a+3)& (0+255),b
  6418   00189E  C100  F06E         	movff	GY_ADC@rawy,___flmul@b
  6419   0018A2  C101  F06F         	movff	GY_ADC@rawy+1,___flmul@b+1
  6420   0018A6  C102  F070         	movff	GY_ADC@rawy+2,___flmul@b+2
  6421   0018AA  C103  F071         	movff	GY_ADC@rawy+3,___flmul@b+3
  6422   0018AE  EC65  F002         	call	___flmul	;wreg free
  6423   0018B2  C06E  F097         	movff	?___flmul,___fldiv@b
  6424   0018B6  C06F  F098         	movff	?___flmul+1,___fldiv@b+1
  6425   0018BA  C070  F099         	movff	?___flmul+2,___fldiv@b+2
  6426   0018BE  C071  F09A         	movff	?___flmul+3,___fldiv@b+3
  6427   0018C2  0E00               	movlw	0
  6428   0018C4  0100               	movlb	0	; () banked
  6429   0018C6  6F9B               	movwf	___fldiv@a& (0+255),b
  6430   0018C8  0EC0               	movlw	192
  6431   0018CA  6F9C               	movwf	(___fldiv@a+1)& (0+255),b
  6432   0018CC  0E7F               	movlw	127
  6433   0018CE  6F9D               	movwf	(___fldiv@a+2)& (0+255),b
  6434   0018D0  0E44               	movlw	68
  6435   0018D2  6F9E               	movwf	(___fldiv@a+3)& (0+255),b
  6436   0018D4  EC34  F00A         	call	___fldiv	;wreg free
  6437   0018D8  C097  F104         	movff	?___fldiv,GY_ADC@voltage
  6438   0018DC  C098  F105         	movff	?___fldiv+1,GY_ADC@voltage+1
  6439   0018E0  C099  F106         	movff	?___fldiv+2,GY_ADC@voltage+2
  6440   0018E4  C09A  F107         	movff	?___fldiv+3,GY_ADC@voltage+3
  6441   0018E8                     
  6442                           ;main.c: 404:     float gAcc = (voltage - 2.35f) / 0.76f;
  6443   0018E8  0E66               	movlw	102
  6444   0018EA  0100               	movlb	0	; () banked
  6445   0018EC  6F8B               	movwf	___fladd@a& (0+255),b
  6446   0018EE  0E66               	movlw	102
  6447   0018F0  6F8C               	movwf	(___fladd@a+1)& (0+255),b
  6448   0018F2  0E16               	movlw	22
  6449   0018F4  6F8D               	movwf	(___fladd@a+2)& (0+255),b
  6450   0018F6  0EC0               	movlw	192
  6451   0018F8  6F8E               	movwf	(___fladd@a+3)& (0+255),b
  6452   0018FA  C104  F087         	movff	GY_ADC@voltage,___fladd@b
  6453   0018FE  C105  F088         	movff	GY_ADC@voltage+1,___fladd@b+1
  6454   001902  C106  F089         	movff	GY_ADC@voltage+2,___fladd@b+2
  6455   001906  C107  F08A         	movff	GY_ADC@voltage+3,___fladd@b+3
  6456   00190A  EC09  F000         	call	___fladd	;wreg free
  6457   00190E  C087  F097         	movff	?___fladd,___fldiv@b
  6458   001912  C088  F098         	movff	?___fladd+1,___fldiv@b+1
  6459   001916  C089  F099         	movff	?___fladd+2,___fldiv@b+2
  6460   00191A  C08A  F09A         	movff	?___fladd+3,___fldiv@b+3
  6461   00191E  0E5C               	movlw	92
  6462   001920  0100               	movlb	0	; () banked
  6463   001922  6F9B               	movwf	___fldiv@a& (0+255),b
  6464   001924  0E8F               	movlw	143
  6465   001926  6F9C               	movwf	(___fldiv@a+1)& (0+255),b
  6466   001928  0E42               	movlw	66
  6467   00192A  6F9D               	movwf	(___fldiv@a+2)& (0+255),b
  6468   00192C  0E3F               	movlw	63
  6469   00192E  6F9E               	movwf	(___fldiv@a+3)& (0+255),b
  6470   001930  EC34  F00A         	call	___fldiv	;wreg free
  6471   001934  C097  F110         	movff	?___fldiv,GY_ADC@gAcc
  6472   001938  C098  F111         	movff	?___fldiv+1,GY_ADC@gAcc+1
  6473   00193C  C099  F112         	movff	?___fldiv+2,GY_ADC@gAcc+2
  6474   001940  C09A  F113         	movff	?___fldiv+3,GY_ADC@gAcc+3
  6475   001944                     
  6476                           ;main.c: 405:     if (gAcc > 1.0f) gAcc = 1.0f;
  6477   001944  0E00               	movlw	0
  6478   001946  0100               	movlb	0	; () banked
  6479   001948  6F60               	movwf	___flge@ff1& (0+255),b
  6480   00194A  0E00               	movlw	0
  6481   00194C  6F61               	movwf	(___flge@ff1+1)& (0+255),b
  6482   00194E  0E80               	movlw	128
  6483   001950  6F62               	movwf	(___flge@ff1+2)& (0+255),b
  6484   001952  0E3F               	movlw	63
  6485   001954  6F63               	movwf	(___flge@ff1+3)& (0+255),b
  6486   001956  C110  F064         	movff	GY_ADC@gAcc,___flge@ff2
  6487   00195A  C111  F065         	movff	GY_ADC@gAcc+1,___flge@ff2+1
  6488   00195E  C112  F066         	movff	GY_ADC@gAcc+2,___flge@ff2+2
  6489   001962  C113  F067         	movff	GY_ADC@gAcc+3,___flge@ff2+3
  6490   001966  ECFD  F014         	call	___flge	;wreg free
  6491   00196A  0100               	movlb	0	; () banked
  6492   00196C  B0D8               	btfsc	status,0,c
  6493   00196E  EFBB  F00C         	goto	u4601
  6494   001972  EFBD  F00C         	goto	u4600
  6495   001976                     u4601:
  6496   001976  EFC6  F00C         	goto	l3879
  6497   00197A                     u4600:
  6498   00197A                     
  6499                           ; BSR set to: 0
  6500   00197A  0E00               	movlw	0
  6501   00197C  0101               	movlb	1	; () banked
  6502   00197E  6F10               	movwf	GY_ADC@gAcc& (0+255),b
  6503   001980  0E00               	movlw	0
  6504   001982  6F11               	movwf	(GY_ADC@gAcc+1)& (0+255),b
  6505   001984  0E80               	movlw	128
  6506   001986  6F12               	movwf	(GY_ADC@gAcc+2)& (0+255),b
  6507   001988  0E3F               	movlw	63
  6508   00198A  6F13               	movwf	(GY_ADC@gAcc+3)& (0+255),b
  6509   00198C                     l3879:
  6510                           
  6511                           ;main.c: 406:     if (gAcc < -1.0f) gAcc = -1.0f;
  6512   00198C  C110  F060         	movff	GY_ADC@gAcc,___flge@ff1
  6513   001990  C111  F061         	movff	GY_ADC@gAcc+1,___flge@ff1+1
  6514   001994  C112  F062         	movff	GY_ADC@gAcc+2,___flge@ff1+2
  6515   001998  C113  F063         	movff	GY_ADC@gAcc+3,___flge@ff1+3
  6516   00199C  0E00               	movlw	0
  6517   00199E  0100               	movlb	0	; () banked
  6518   0019A0  6F64               	movwf	___flge@ff2& (0+255),b
  6519   0019A2  0E00               	movlw	0
  6520   0019A4  6F65               	movwf	(___flge@ff2+1)& (0+255),b
  6521   0019A6  0E80               	movlw	128
  6522   0019A8  6F66               	movwf	(___flge@ff2+2)& (0+255),b
  6523   0019AA  0EBF               	movlw	191
  6524   0019AC  6F67               	movwf	(___flge@ff2+3)& (0+255),b
  6525   0019AE  ECFD  F014         	call	___flge	;wreg free
  6526   0019B2  0100               	movlb	0	; () banked
  6527   0019B4  B0D8               	btfsc	status,0,c
  6528   0019B6  EFDF  F00C         	goto	u4611
  6529   0019BA  EFE1  F00C         	goto	u4610
  6530   0019BE                     u4611:
  6531   0019BE  EFEA  F00C         	goto	l3883
  6532   0019C2                     u4610:
  6533   0019C2                     
  6534                           ; BSR set to: 0
  6535   0019C2  0E00               	movlw	0
  6536   0019C4  0101               	movlb	1	; () banked
  6537   0019C6  6F10               	movwf	GY_ADC@gAcc& (0+255),b
  6538   0019C8  0E00               	movlw	0
  6539   0019CA  6F11               	movwf	(GY_ADC@gAcc+1)& (0+255),b
  6540   0019CC  0E80               	movlw	128
  6541   0019CE  6F12               	movwf	(GY_ADC@gAcc+2)& (0+255),b
  6542   0019D0  0EBF               	movlw	191
  6543   0019D2  6F13               	movwf	(GY_ADC@gAcc+3)& (0+255),b
  6544   0019D4                     l3883:
  6545                           
  6546                           ;main.c: 407:     float angle = asinf(gAcc) * (180.0f / 3.1415926f);
  6547   0019D4  C110  F0CC         	movff	GY_ADC@gAcc,asinf@x
  6548   0019D8  C111  F0CD         	movff	GY_ADC@gAcc+1,asinf@x+1
  6549   0019DC  C112  F0CE         	movff	GY_ADC@gAcc+2,asinf@x+2
  6550   0019E0  C113  F0CF         	movff	GY_ADC@gAcc+3,asinf@x+3
  6551   0019E4  EC63  F008         	call	_asinf	;wreg free
  6552   0019E8  C0CC  F10C         	movff	?_asinf,_GY_ADC$1291
  6553   0019EC  C0CD  F10D         	movff	?_asinf+1,_GY_ADC$1291+1
  6554   0019F0  C0CE  F10E         	movff	?_asinf+2,_GY_ADC$1291+2
  6555   0019F4  C0CF  F10F         	movff	?_asinf+3,_GY_ADC$1291+3
  6556   0019F8                     
  6557                           ;main.c: 407:     float angle = asinf(gAcc) * (180.0f / 3.1415926f);
  6558   0019F8  C10C  F06E         	movff	_GY_ADC$1291,___flmul@b
  6559   0019FC  C10D  F06F         	movff	_GY_ADC$1291+1,___flmul@b+1
  6560   001A00  C10E  F070         	movff	_GY_ADC$1291+2,___flmul@b+2
  6561   001A04  C10F  F071         	movff	_GY_ADC$1291+3,___flmul@b+3
  6562   001A08  0EE1               	movlw	225
  6563   001A0A  0100               	movlb	0	; () banked
  6564   001A0C  6F72               	movwf	___flmul@a& (0+255),b
  6565   001A0E  0E2E               	movlw	46
  6566   001A10  6F73               	movwf	(___flmul@a+1)& (0+255),b
  6567   001A12  0E65               	movlw	101
  6568   001A14  6F74               	movwf	(___flmul@a+2)& (0+255),b
  6569   001A16  0E42               	movlw	66
  6570   001A18  6F75               	movwf	(___flmul@a+3)& (0+255),b
  6571   001A1A  EC65  F002         	call	___flmul	;wreg free
  6572   001A1E  C06E  F108         	movff	?___flmul,GY_ADC@angle
  6573   001A22  C06F  F109         	movff	?___flmul+1,GY_ADC@angle+1
  6574   001A26  C070  F10A         	movff	?___flmul+2,GY_ADC@angle+2
  6575   001A2A  C071  F10B         	movff	?___flmul+3,GY_ADC@angle+3
  6576   001A2E                     
  6577                           ;main.c: 408:     return angle;
  6578   001A2E  C108  F0ED         	movff	GY_ADC@angle,?_GY_ADC
  6579   001A32  C109  F0EE         	movff	GY_ADC@angle+1,?_GY_ADC+1
  6580   001A36  C10A  F0EF         	movff	GY_ADC@angle+2,?_GY_ADC+2
  6581   001A3A  C10B  F0F0         	movff	GY_ADC@angle+3,?_GY_ADC+3
  6582   001A3E  0012               	return		;funcret
  6583   001A40                     __end_of_GY_ADC:
  6584                           	callstack 0
  6585                           
  6586 ;; *************** function _asinf *****************
  6587 ;; Defined at:
  6588 ;;		line 37 in file "C:\Program Files\Microchip\xc8\v3.00\pic\sources\c99\common\asinf.c"
  6589 ;; Parameters:    Size  Location     Type
  6590 ;;  x               4  108[BANK0 ] float 
  6591 ;; Auto vars:     Size  Location     Type
  6592 ;;  ix              4  137[BANK0 ] struct .
  6593 ;;  z               4  133[BANK0 ] float 
  6594 ;;  s               4  129[BANK0 ] float 
  6595 ;;  sign            1  128[BANK0 ] _Bool 
  6596 ;; Return value:  Size  Location     Type
  6597 ;;                  4  108[BANK0 ] float 
  6598 ;; Registers used:
  6599 ;;		wreg, status,2, status,0, prodl, prodh, cstack
  6600 ;; Tracked objects:
  6601 ;;		On entry : 0/0
  6602 ;;		On exit  : 0/0
  6603 ;;		Unchanged: 0/0
  6604 ;; Data sizes:     COMRAM   BANK0   BANK1   BANK2   BANK3   BANK4   BANK5   BANK6   BANK7
  6605 ;;      Params:         0       4       0       0       0       0       0       0       0
  6606 ;;      Locals:         0      29       0       0       0       0       0       0       0
  6607 ;;      Temps:          0       0       0       0       0       0       0       0       0
  6608 ;;      Totals:         0      33       0       0       0       0       0       0       0
  6609 ;;Total ram usage:       33 bytes
  6610 ;; Hardware stack levels used: 1
  6611 ;; Hardware stack levels required when called: 9
  6612 ;; This function calls:
  6613 ;;		_R
  6614 ;;		___fladd
  6615 ;;		___flmul
  6616 ;;		___flneg
  6617 ;;		___flsub
  6618 ;;		_fabsf
  6619 ;;		_sqrtf
  6620 ;; This function is called by:
  6621 ;;		_GY_ADC
  6622 ;; This function uses a non-reentrant model
  6623 ;;
  6624                           
  6625                           	psect	text33
  6626   0010C6                     __ptext33:
  6627                           	callstack 0
  6628   0010C6                     _asinf:
  6629                           	callstack 20
  6630   0010C6  C0CC  F0E9         	movff	asinf@x,asinf@ix
  6631   0010CA  C0CD  F0EA         	movff	asinf@x+1,asinf@ix+1
  6632   0010CE  C0CE  F0EB         	movff	asinf@x+2,asinf@ix+2
  6633   0010D2  C0CF  F0EC         	movff	asinf@x+3,asinf@ix+3
  6634   0010D6  0100               	movlb	0	; () banked
  6635   0010D8  BFEC               	btfsc	(asinf@ix+3)& (0+255),7,b
  6636   0010DA  EF71  F008         	goto	u3951
  6637   0010DE  EF74  F008         	goto	u3950
  6638   0010E2                     u3951:
  6639   0010E2  0E01               	movlw	1
  6640   0010E4  EF75  F008         	goto	u3960
  6641   0010E8                     u3950:
  6642   0010E8  0E00               	movlw	0
  6643   0010EA                     u3960:
  6644   0010EA  6FE0               	movwf	asinf@sign& (0+255),b
  6645   0010EC                     
  6646                           ; BSR set to: 0
  6647   0010EC  0EFF               	movlw	255
  6648   0010EE  15E9               	andwf	asinf@ix& (0+255),w,b
  6649   0010F0  6FE9               	movwf	asinf@ix& (0+255),b
  6650   0010F2  0EFF               	movlw	255
  6651   0010F4  15EA               	andwf	(asinf@ix+1)& (0+255),w,b
  6652   0010F6  6FEA               	movwf	(asinf@ix+1)& (0+255),b
  6653   0010F8  0EFF               	movlw	255
  6654   0010FA  15EB               	andwf	(asinf@ix+2)& (0+255),w,b
  6655   0010FC  6FEB               	movwf	(asinf@ix+2)& (0+255),b
  6656   0010FE  0E7F               	movlw	127
  6657   001100  15EC               	andwf	(asinf@ix+3)& (0+255),w,b
  6658   001102  6FEC               	movwf	(asinf@ix+3)& (0+255),b
  6659   001104                     
  6660                           ; BSR set to: 0
  6661   001104  0E80               	movlw	128
  6662   001106  5DEB               	subwf	(asinf@ix+2)& (0+255),w,b
  6663   001108  0E3F               	movlw	63
  6664   00110A  59EC               	subwfb	(asinf@ix+3)& (0+255),w,b
  6665   00110C  A0D8               	btfss	status,0,c
  6666   00110E  EF8B  F008         	goto	u3971
  6667   001112  EF8D  F008         	goto	u3970
  6668   001116                     u3971:
  6669   001116  EFE0  F008         	goto	l3529
  6670   00111A                     u3970:
  6671   00111A                     
  6672                           ; BSR set to: 0
  6673   00111A  0E80               	movlw	128
  6674   00111C  19EB               	xorwf	(asinf@ix+2)& (0+255),w,b
  6675   00111E  E109               	bnz	u3981
  6676   001120  0E3F               	movlw	63
  6677   001122  19EC               	xorwf	(asinf@ix+3)& (0+255),w,b
  6678   001124  11E9               	iorwf	asinf@ix& (0+255),w,b
  6679   001126  11EA               	iorwf	(asinf@ix+1)& (0+255),w,b
  6680   001128  A4D8               	btfss	status,2,c
  6681   00112A  EF99  F008         	goto	u3981
  6682   00112E  EF9B  F008         	goto	u3980
  6683   001132                     u3981:
  6684   001132  EFCA  F008         	goto	l3523
  6685   001136                     u3980:
  6686   001136                     
  6687                           ; BSR set to: 0
  6688   001136  0EDB               	movlw	219
  6689   001138  6F72               	movwf	___flmul@a& (0+255),b
  6690   00113A  0E0F               	movlw	15
  6691   00113C  6F73               	movwf	(___flmul@a+1)& (0+255),b
  6692   00113E  0EC9               	movlw	201
  6693   001140  6F74               	movwf	(___flmul@a+2)& (0+255),b
  6694   001142  0E3F               	movlw	63
  6695   001144  6F75               	movwf	(___flmul@a+3)& (0+255),b
  6696   001146  C0CC  F06E         	movff	asinf@x,___flmul@b
  6697   00114A  C0CD  F06F         	movff	asinf@x+1,___flmul@b+1
  6698   00114E  C0CE  F070         	movff	asinf@x+2,___flmul@b+2
  6699   001152  C0CF  F071         	movff	asinf@x+3,___flmul@b+3
  6700   001156  EC65  F002         	call	___flmul	;wreg free
  6701   00115A  C06E  F087         	movff	?___flmul,___fladd@b
  6702   00115E  C06F  F088         	movff	?___flmul+1,___fladd@b+1
  6703   001162  C070  F089         	movff	?___flmul+2,___fladd@b+2
  6704   001166  C071  F08A         	movff	?___flmul+3,___fladd@b+3
  6705   00116A  0E00               	movlw	0
  6706   00116C  0100               	movlb	0	; () banked
  6707   00116E  6F8B               	movwf	___fladd@a& (0+255),b
  6708   001170  0E00               	movlw	0
  6709   001172  6F8C               	movwf	(___fladd@a+1)& (0+255),b
  6710   001174  0E80               	movlw	128
  6711   001176  6F8D               	movwf	(___fladd@a+2)& (0+255),b
  6712   001178  0E03               	movlw	3
  6713   00117A  6F8E               	movwf	(___fladd@a+3)& (0+255),b
  6714   00117C  EC09  F000         	call	___fladd	;wreg free
  6715   001180  C087  F0CC         	movff	?___fladd,?_asinf
  6716   001184  C088  F0CD         	movff	?___fladd+1,?_asinf+1
  6717   001188  C089  F0CE         	movff	?___fladd+2,?_asinf+2
  6718   00118C  C08A  F0CF         	movff	?___fladd+3,?_asinf+3
  6719   001190  EF33  F00A         	goto	l1041
  6720   001194                     l3523:
  6721                           
  6722                           ; BSR set to: 0
  6723   001194  0E00               	movlw	0
  6724   001196  6E55               	movwf	(_errno+1)^0,c
  6725   001198  0E21               	movlw	33
  6726   00119A  6E54               	movwf	_errno^0,c
  6727   00119C  0EFF               	movlw	255
  6728   00119E  6FE9               	movwf	asinf@ix& (0+255),b
  6729   0011A0  0EFF               	movlw	255
  6730   0011A2  6FEA               	movwf	(asinf@ix+1)& (0+255),b
  6731   0011A4  0EFF               	movlw	255
  6732   0011A6  6FEB               	movwf	(asinf@ix+2)& (0+255),b
  6733   0011A8  0E7F               	movlw	127
  6734   0011AA  6FEC               	movwf	(asinf@ix+3)& (0+255),b
  6735   0011AC                     
  6736                           ; BSR set to: 0
  6737   0011AC  C0E9  F0CC         	movff	asinf@ix,?_asinf
  6738   0011B0  C0EA  F0CD         	movff	asinf@ix+1,?_asinf+1
  6739   0011B4  C0EB  F0CE         	movff	asinf@ix+2,?_asinf+2
  6740   0011B8  C0EC  F0CF         	movff	asinf@ix+3,?_asinf+3
  6741   0011BC  EF33  F00A         	goto	l1041
  6742   0011C0                     l3529:
  6743                           
  6744                           ; BSR set to: 0
  6745   0011C0  0E3F               	movlw	63
  6746   0011C2  5DEC               	subwf	(asinf@ix+3)& (0+255),w,b
  6747   0011C4  B0D8               	btfsc	status,0,c
  6748   0011C6  EFE7  F008         	goto	u3991
  6749   0011CA  EFE9  F008         	goto	u3990
  6750   0011CE                     u3991:
  6751   0011CE  EF63  F009         	goto	l3541
  6752   0011D2                     u3990:
  6753   0011D2                     
  6754                           ; BSR set to: 0
  6755   0011D2  0E80               	movlw	128
  6756   0011D4  5DEB               	subwf	(asinf@ix+2)& (0+255),w,b
  6757   0011D6  0E39               	movlw	57
  6758   0011D8  59EC               	subwfb	(asinf@ix+3)& (0+255),w,b
  6759   0011DA  B0D8               	btfsc	status,0,c
  6760   0011DC  EFF2  F008         	goto	u4001
  6761   0011E0  EFF4  F008         	goto	u4000
  6762   0011E4                     u4001:
  6763   0011E4  EF09  F009         	goto	l3537
  6764   0011E8                     u4000:
  6765   0011E8                     
  6766                           ; BSR set to: 0
  6767   0011E8  51EC               	movf	(asinf@ix+3)& (0+255),w,b
  6768   0011EA  E109               	bnz	u4010
  6769   0011EC  0E80               	movlw	128
  6770   0011EE  5DEB               	subwf	(asinf@ix+2)& (0+255),w,b
  6771   0011F0  A0D8               	btfss	status,0,c
  6772   0011F2  EFFD  F008         	goto	u4011
  6773   0011F6  EFFF  F008         	goto	u4010
  6774   0011FA                     u4011:
  6775   0011FA  EF09  F009         	goto	l3537
  6776   0011FE                     u4010:
  6777   0011FE                     l3535:
  6778                           
  6779                           ; BSR set to: 0
  6780   0011FE  C0CC  F0CC         	movff	asinf@x,?_asinf
  6781   001202  C0CD  F0CD         	movff	asinf@x+1,?_asinf+1
  6782   001206  C0CE  F0CE         	movff	asinf@x+2,?_asinf+2
  6783   00120A  C0CF  F0CF         	movff	asinf@x+3,?_asinf+3
  6784   00120E  EF33  F00A         	goto	l1041
  6785   001212                     l3537:
  6786                           
  6787                           ; BSR set to: 0
  6788   001212  C0CC  F072         	movff	asinf@x,___flmul@a
  6789   001216  C0CD  F073         	movff	asinf@x+1,___flmul@a+1
  6790   00121A  C0CE  F074         	movff	asinf@x+2,___flmul@a+2
  6791   00121E  C0CF  F075         	movff	asinf@x+3,___flmul@a+3
  6792   001222  C0CC  F06E         	movff	asinf@x,___flmul@b
  6793   001226  C0CD  F06F         	movff	asinf@x+1,___flmul@b+1
  6794   00122A  C0CE  F070         	movff	asinf@x+2,___flmul@b+2
  6795   00122E  C0CF  F071         	movff	asinf@x+3,___flmul@b+3
  6796   001232  EC65  F002         	call	___flmul	;wreg free
  6797   001236  C06E  F0D0         	movff	?___flmul,_asinf$1294
  6798   00123A  C06F  F0D1         	movff	?___flmul+1,_asinf$1294+1
  6799   00123E  C070  F0D2         	movff	?___flmul+2,_asinf$1294+2
  6800   001242  C071  F0D3         	movff	?___flmul+3,_asinf$1294+3
  6801   001246  C0D0  F0B0         	movff	_asinf$1294,R@z
  6802   00124A  C0D1  F0B1         	movff	_asinf$1294+1,R@z+1
  6803   00124E  C0D2  F0B2         	movff	_asinf$1294+2,R@z+2
  6804   001252  C0D3  F0B3         	movff	_asinf$1294+3,R@z+3
  6805   001256  EC25  F013         	call	_R	;wreg free
  6806   00125A  C0B0  F0D4         	movff	?_R,_asinf$1295
  6807   00125E  C0B1  F0D5         	movff	?_R+1,_asinf$1295+1
  6808   001262  C0B2  F0D6         	movff	?_R+2,_asinf$1295+2
  6809   001266  C0B3  F0D7         	movff	?_R+3,_asinf$1295+3
  6810   00126A  C0CC  F072         	movff	asinf@x,___flmul@a
  6811   00126E  C0CD  F073         	movff	asinf@x+1,___flmul@a+1
  6812   001272  C0CE  F074         	movff	asinf@x+2,___flmul@a+2
  6813   001276  C0CF  F075         	movff	asinf@x+3,___flmul@a+3
  6814   00127A  C0D4  F06E         	movff	_asinf$1295,___flmul@b
  6815   00127E  C0D5  F06F         	movff	_asinf$1295+1,___flmul@b+1
  6816   001282  C0D6  F070         	movff	_asinf$1295+2,___flmul@b+2
  6817   001286  C0D7  F071         	movff	_asinf$1295+3,___flmul@b+3
  6818   00128A  EC65  F002         	call	___flmul	;wreg free
  6819   00128E  C06E  F087         	movff	?___flmul,___fladd@b
  6820   001292  C06F  F088         	movff	?___flmul+1,___fladd@b+1
  6821   001296  C070  F089         	movff	?___flmul+2,___fladd@b+2
  6822   00129A  C071  F08A         	movff	?___flmul+3,___fladd@b+3
  6823   00129E  C0CC  F08B         	movff	asinf@x,___fladd@a
  6824   0012A2  C0CD  F08C         	movff	asinf@x+1,___fladd@a+1
  6825   0012A6  C0CE  F08D         	movff	asinf@x+2,___fladd@a+2
  6826   0012AA  C0CF  F08E         	movff	asinf@x+3,___fladd@a+3
  6827   0012AE  EC09  F000         	call	___fladd	;wreg free
  6828   0012B2  C087  F0CC         	movff	?___fladd,?_asinf
  6829   0012B6  C088  F0CD         	movff	?___fladd+1,?_asinf+1
  6830   0012BA  C089  F0CE         	movff	?___fladd+2,?_asinf+2
  6831   0012BE  C08A  F0CF         	movff	?___fladd+3,?_asinf+3
  6832   0012C2  EF33  F00A         	goto	l1041
  6833   0012C6                     l3541:
  6834                           
  6835                           ; BSR set to: 0
  6836   0012C6  C0CC  F060         	movff	asinf@x,fabsf@x
  6837   0012CA  C0CD  F061         	movff	asinf@x+1,fabsf@x+1
  6838   0012CE  C0CE  F062         	movff	asinf@x+2,fabsf@x+2
  6839   0012D2  C0CF  F063         	movff	asinf@x+3,fabsf@x+3
  6840   0012D6  EC74  F01A         	call	_fabsf	;wreg free
  6841   0012DA  C060  F0C8         	movff	?_fabsf,___flsub@a
  6842   0012DE  C061  F0C9         	movff	?_fabsf+1,___flsub@a+1
  6843   0012E2  C062  F0CA         	movff	?_fabsf+2,___flsub@a+2
  6844   0012E6  C063  F0CB         	movff	?_fabsf+3,___flsub@a+3
  6845   0012EA  0E00               	movlw	0
  6846   0012EC  0100               	movlb	0	; () banked
  6847   0012EE  6FC4               	movwf	___flsub@b& (0+255),b
  6848   0012F0  0E00               	movlw	0
  6849   0012F2  6FC5               	movwf	(___flsub@b+1)& (0+255),b
  6850   0012F4  0E80               	movlw	128
  6851   0012F6  6FC6               	movwf	(___flsub@b+2)& (0+255),b
  6852   0012F8  0E3F               	movlw	63
  6853   0012FA  6FC7               	movwf	(___flsub@b+3)& (0+255),b
  6854   0012FC  EC95  F019         	call	___flsub	;wreg free
  6855   001300  C0C4  F06E         	movff	?___flsub,___flmul@b
  6856   001304  C0C5  F06F         	movff	?___flsub+1,___flmul@b+1
  6857   001308  C0C6  F070         	movff	?___flsub+2,___flmul@b+2
  6858   00130C  C0C7  F071         	movff	?___flsub+3,___flmul@b+3
  6859   001310  0E00               	movlw	0
  6860   001312  0100               	movlb	0	; () banked
  6861   001314  6F72               	movwf	___flmul@a& (0+255),b
  6862   001316  0E00               	movlw	0
  6863   001318  6F73               	movwf	(___flmul@a+1)& (0+255),b
  6864   00131A  0E00               	movlw	0
  6865   00131C  6F74               	movwf	(___flmul@a+2)& (0+255),b
  6866   00131E  0E3F               	movlw	63
  6867   001320  6F75               	movwf	(___flmul@a+3)& (0+255),b
  6868   001322  EC65  F002         	call	___flmul	;wreg free
  6869   001326  C06E  F0E5         	movff	?___flmul,asinf@z
  6870   00132A  C06F  F0E6         	movff	?___flmul+1,asinf@z+1
  6871   00132E  C070  F0E7         	movff	?___flmul+2,asinf@z+2
  6872   001332  C071  F0E8         	movff	?___flmul+3,asinf@z+3
  6873   001336  C0E5  F060         	movff	asinf@z,sqrtf@x
  6874   00133A  C0E6  F061         	movff	asinf@z+1,sqrtf@x+1
  6875   00133E  C0E7  F062         	movff	asinf@z+2,sqrtf@x+2
  6876   001342  C0E8  F063         	movff	asinf@z+3,sqrtf@x+3
  6877   001346  EC73  F006         	call	_sqrtf	;wreg free
  6878   00134A  C060  F0E1         	movff	?_sqrtf,asinf@s
  6879   00134E  C061  F0E2         	movff	?_sqrtf+1,asinf@s+1
  6880   001352  C062  F0E3         	movff	?_sqrtf+2,asinf@s+2
  6881   001356  C063  F0E4         	movff	?_sqrtf+3,asinf@s+3
  6882   00135A  C0E5  F0B0         	movff	asinf@z,R@z
  6883   00135E  C0E6  F0B1         	movff	asinf@z+1,R@z+1
  6884   001362  C0E7  F0B2         	movff	asinf@z+2,R@z+2
  6885   001366  C0E8  F0B3         	movff	asinf@z+3,R@z+3
  6886   00136A  EC25  F013         	call	_R	;wreg free
  6887   00136E  C0B0  F0D8         	movff	?_R,_asinf$1296
  6888   001372  C0B1  F0D9         	movff	?_R+1,_asinf$1296+1
  6889   001376  C0B2  F0DA         	movff	?_R+2,_asinf$1296+2
  6890   00137A  C0B3  F0DB         	movff	?_R+3,_asinf$1296+3
  6891   00137E  C0E1  F08B         	movff	asinf@s,___fladd@a
  6892   001382  C0E2  F08C         	movff	asinf@s+1,___fladd@a+1
  6893   001386  C0E3  F08D         	movff	asinf@s+2,___fladd@a+2
  6894   00138A  C0E4  F08E         	movff	asinf@s+3,___fladd@a+3
  6895   00138E  C0E1  F072         	movff	asinf@s,___flmul@a
  6896   001392  C0E2  F073         	movff	asinf@s+1,___flmul@a+1
  6897   001396  C0E3  F074         	movff	asinf@s+2,___flmul@a+2
  6898   00139A  C0E4  F075         	movff	asinf@s+3,___flmul@a+3
  6899   00139E  C0D8  F06E         	movff	_asinf$1296,___flmul@b
  6900   0013A2  C0D9  F06F         	movff	_asinf$1296+1,___flmul@b+1
  6901   0013A6  C0DA  F070         	movff	_asinf$1296+2,___flmul@b+2
  6902   0013AA  C0DB  F071         	movff	_asinf$1296+3,___flmul@b+3
  6903   0013AE  EC65  F002         	call	___flmul	;wreg free
  6904   0013B2  C06E  F087         	movff	?___flmul,___fladd@b
  6905   0013B6  C06F  F088         	movff	?___flmul+1,___fladd@b+1
  6906   0013BA  C070  F089         	movff	?___flmul+2,___fladd@b+2
  6907   0013BE  C071  F08A         	movff	?___flmul+3,___fladd@b+3
  6908   0013C2  EC09  F000         	call	___fladd	;wreg free
  6909   0013C6  C087  F0DC         	movff	?___fladd,_asinf$1297
  6910   0013CA  C088  F0DD         	movff	?___fladd+1,_asinf$1297+1
  6911   0013CE  C089  F0DE         	movff	?___fladd+2,_asinf$1297+2
  6912   0013D2  C08A  F0DF         	movff	?___fladd+3,_asinf$1297+3
  6913   0013D6  0EDB               	movlw	219
  6914   0013D8  0100               	movlb	0	; () banked
  6915   0013DA  6FC4               	movwf	___flsub@b& (0+255),b
  6916   0013DC  0E0F               	movlw	15
  6917   0013DE  6FC5               	movwf	(___flsub@b+1)& (0+255),b
  6918   0013E0  0EC9               	movlw	201
  6919   0013E2  6FC6               	movwf	(___flsub@b+2)& (0+255),b
  6920   0013E4  0E3F               	movlw	63
  6921   0013E6  6FC7               	movwf	(___flsub@b+3)& (0+255),b
  6922   0013E8  0E00               	movlw	0
  6923   0013EA  6F72               	movwf	___flmul@a& (0+255),b
  6924   0013EC  0E00               	movlw	0
  6925   0013EE  6F73               	movwf	(___flmul@a+1)& (0+255),b
  6926   0013F0  0E00               	movlw	0
  6927   0013F2  6F74               	movwf	(___flmul@a+2)& (0+255),b
  6928   0013F4  0E40               	movlw	64
  6929   0013F6  6F75               	movwf	(___flmul@a+3)& (0+255),b
  6930   0013F8  C0DC  F06E         	movff	_asinf$1297,___flmul@b
  6931   0013FC  C0DD  F06F         	movff	_asinf$1297+1,___flmul@b+1
  6932   001400  C0DE  F070         	movff	_asinf$1297+2,___flmul@b+2
  6933   001404  C0DF  F071         	movff	_asinf$1297+3,___flmul@b+3
  6934   001408  EC65  F002         	call	___flmul	;wreg free
  6935   00140C  C06E  F0C8         	movff	?___flmul,___flsub@a
  6936   001410  C06F  F0C9         	movff	?___flmul+1,___flsub@a+1
  6937   001414  C070  F0CA         	movff	?___flmul+2,___flsub@a+2
  6938   001418  C071  F0CB         	movff	?___flmul+3,___flsub@a+3
  6939   00141C  EC95  F019         	call	___flsub	;wreg free
  6940   001420  C0C4  F0CC         	movff	?___flsub,asinf@x
  6941   001424  C0C5  F0CD         	movff	?___flsub+1,asinf@x+1
  6942   001428  C0C6  F0CE         	movff	?___flsub+2,asinf@x+2
  6943   00142C  C0C7  F0CF         	movff	?___flsub+3,asinf@x+3
  6944   001430  0100               	movlb	0	; () banked
  6945   001432  51E0               	movf	asinf@sign& (0+255),w,b
  6946   001434  B4D8               	btfsc	status,2,c
  6947   001436  EF1F  F00A         	goto	u4021
  6948   00143A  EF21  F00A         	goto	u4020
  6949   00143E                     u4021:
  6950   00143E  EFFF  F008         	goto	l3535
  6951   001442                     u4020:
  6952   001442                     
  6953                           ; BSR set to: 0
  6954   001442  C0CC  F060         	movff	asinf@x,___flneg@f1
  6955   001446  C0CD  F061         	movff	asinf@x+1,___flneg@f1+1
  6956   00144A  C0CE  F062         	movff	asinf@x+2,___flneg@f1+2
  6957   00144E  C0CF  F063         	movff	asinf@x+3,___flneg@f1+3
  6958   001452  EC20  F01A         	call	___flneg	;wreg free
  6959   001456  C060  F0CC         	movff	?___flneg,?_asinf
  6960   00145A  C061  F0CD         	movff	?___flneg+1,?_asinf+1
  6961   00145E  C062  F0CE         	movff	?___flneg+2,?_asinf+2
  6962   001462  C063  F0CF         	movff	?___flneg+3,?_asinf+3
  6963   001466                     l1041:
  6964   001466  0012               	return		;funcret
  6965   001468                     __end_of_asinf:
  6966                           	callstack 0
  6967                           
  6968 ;; *************** function _sqrtf *****************
  6969 ;; Defined at:
  6970 ;;		line 24 in file "C:\Program Files\Microchip\xc8\v3.00\pic\sources\c99\common\sqrtf.c"
  6971 ;; Parameters:    Size  Location     Type
  6972 ;;  x               4    0[BANK0 ] float 
  6973 ;; Auto vars:     Size  Location     Type
  6974 ;;  ix              4   33[BANK0 ] struct .
  6975 ;;  r               4   29[BANK0 ] unsigned long 
  6976 ;;  m               4   25[BANK0 ] long 
  6977 ;;  t               4   21[BANK0 ] long 
  6978 ;;  q               4   17[BANK0 ] long 
  6979 ;;  i               4   13[BANK0 ] long 
  6980 ;;  s               4    9[BANK0 ] long 
  6981 ;;  z               4    0        float 
  6982 ;; Return value:  Size  Location     Type
  6983 ;;                  4    0[BANK0 ] float 
  6984 ;; Registers used:
  6985 ;;		wreg, status,2, status,0
  6986 ;; Tracked objects:
  6987 ;;		On entry : 0/0
  6988 ;;		On exit  : 0/0
  6989 ;;		Unchanged: 0/0
  6990 ;; Data sizes:     COMRAM   BANK0   BANK1   BANK2   BANK3   BANK4   BANK5   BANK6   BANK7
  6991 ;;      Params:         0       4       0       0       0       0       0       0       0
  6992 ;;      Locals:         0      28       0       0       0       0       0       0       0
  6993 ;;      Temps:          0       5       0       0       0       0       0       0       0
  6994 ;;      Totals:         0      37       0       0       0       0       0       0       0
  6995 ;;Total ram usage:       37 bytes
  6996 ;; Hardware stack levels used: 1
  6997 ;; Hardware stack levels required when called: 7
  6998 ;; This function calls:
  6999 ;;		Nothing
  7000 ;; This function is called by:
  7001 ;;		_asinf
  7002 ;; This function uses a non-reentrant model
  7003 ;;
  7004                           
  7005                           	psect	text34
  7006   000CE6                     __ptext34:
  7007                           	callstack 0
  7008   000CE6                     _sqrtf:
  7009                           	callstack 21
  7010   000CE6  C060  F081         	movff	sqrtf@x,sqrtf@ix
  7011   000CEA  C061  F082         	movff	sqrtf@x+1,sqrtf@ix+1
  7012   000CEE  C062  F083         	movff	sqrtf@x+2,sqrtf@ix+2
  7013   000CF2  C063  F084         	movff	sqrtf@x+3,sqrtf@ix+3
  7014   000CF6  0E00               	movlw	0
  7015   000CF8  0100               	movlb	0	; () banked
  7016   000CFA  1581               	andwf	sqrtf@ix& (0+255),w,b
  7017   000CFC  6F64               	movwf	??_sqrtf& (0+255),b
  7018   000CFE  0E00               	movlw	0
  7019   000D00  1582               	andwf	(sqrtf@ix+1)& (0+255),w,b
  7020   000D02  6F65               	movwf	(??_sqrtf+1)& (0+255),b
  7021   000D04  0E80               	movlw	128
  7022   000D06  1583               	andwf	(sqrtf@ix+2)& (0+255),w,b
  7023   000D08  6F66               	movwf	(??_sqrtf+2)& (0+255),b
  7024   000D0A  0E7F               	movlw	127
  7025   000D0C  1584               	andwf	(sqrtf@ix+3)& (0+255),w,b
  7026   000D0E  6F67               	movwf	(??_sqrtf+3)& (0+255),b
  7027   000D10  0E80               	movlw	128
  7028   000D12  1966               	xorwf	(??_sqrtf+2)& (0+255),w,b
  7029   000D14  E109               	bnz	u3761
  7030   000D16  0E7F               	movlw	127
  7031   000D18  1967               	xorwf	(??_sqrtf+3)& (0+255),w,b
  7032   000D1A  1164               	iorwf	??_sqrtf& (0+255),w,b
  7033   000D1C  1165               	iorwf	(??_sqrtf+1)& (0+255),w,b
  7034   000D1E  A4D8               	btfss	status,2,c
  7035   000D20  EF94  F006         	goto	u3761
  7036   000D24  EF96  F006         	goto	u3760
  7037   000D28                     u3761:
  7038   000D28  EFC6  F006         	goto	l3435
  7039   000D2C                     u3760:
  7040   000D2C                     
  7041                           ; BSR set to: 0
  7042   000D2C  0EFF               	movlw	255
  7043   000D2E  1581               	andwf	sqrtf@ix& (0+255),w,b
  7044   000D30  6F64               	movwf	??_sqrtf& (0+255),b
  7045   000D32  0EFF               	movlw	255
  7046   000D34  1582               	andwf	(sqrtf@ix+1)& (0+255),w,b
  7047   000D36  6F65               	movwf	(??_sqrtf+1)& (0+255),b
  7048   000D38  0E7F               	movlw	127
  7049   000D3A  1583               	andwf	(sqrtf@ix+2)& (0+255),w,b
  7050   000D3C  6F66               	movwf	(??_sqrtf+2)& (0+255),b
  7051   000D3E  0E00               	movlw	0
  7052   000D40  1584               	andwf	(sqrtf@ix+3)& (0+255),w,b
  7053   000D42  6F67               	movwf	(??_sqrtf+3)& (0+255),b
  7054   000D44  5164               	movf	??_sqrtf& (0+255),w,b
  7055   000D46  1165               	iorwf	(??_sqrtf+1)& (0+255),w,b
  7056   000D48  1166               	iorwf	(??_sqrtf+2)& (0+255),w,b
  7057   000D4A  1167               	iorwf	(??_sqrtf+3)& (0+255),w,b
  7058   000D4C  A4D8               	btfss	status,2,c
  7059   000D4E  EFAB  F006         	goto	u3771
  7060   000D52  EFAD  F006         	goto	u3770
  7061   000D56                     u3771:
  7062   000D56  EFB4  F006         	goto	l3429
  7063   000D5A                     u3770:
  7064   000D5A                     
  7065                           ; BSR set to: 0
  7066   000D5A  BF84               	btfsc	(sqrtf@ix+3)& (0+255),7,b
  7067   000D5C  EFB4  F006         	goto	u3780
  7068   000D60  EFB2  F006         	goto	u3781
  7069   000D64                     u3781:
  7070   000D64  EFBC  F006         	goto	l3431
  7071   000D68                     u3780:
  7072   000D68                     l3429:
  7073                           
  7074                           ; BSR set to: 0
  7075   000D68  0EFF               	movlw	255
  7076   000D6A  1381               	iorwf	sqrtf@ix& (0+255),f,b
  7077   000D6C  0EFF               	movlw	255
  7078   000D6E  1382               	iorwf	(sqrtf@ix+1)& (0+255),f,b
  7079   000D70  0E7F               	movlw	127
  7080   000D72  1383               	iorwf	(sqrtf@ix+2)& (0+255),f,b
  7081   000D74  0E00               	movlw	0
  7082   000D76  1384               	iorwf	(sqrtf@ix+3)& (0+255),f,b
  7083   000D78                     l3431:
  7084                           
  7085                           ; BSR set to: 0
  7086   000D78  C081  F060         	movff	sqrtf@ix,?_sqrtf
  7087   000D7C  C082  F061         	movff	sqrtf@ix+1,?_sqrtf+1
  7088   000D80  C083  F062         	movff	sqrtf@ix+2,?_sqrtf+2
  7089   000D84  C084  F063         	movff	sqrtf@ix+3,?_sqrtf+3
  7090   000D88  EF62  F008         	goto	l1142
  7091   000D8C                     l3435:
  7092                           
  7093                           ; BSR set to: 0
  7094   000D8C  BF84               	btfsc	(sqrtf@ix+3)& (0+255),7,b
  7095   000D8E  EFD5  F006         	goto	u3790
  7096   000D92  5184               	movf	(sqrtf@ix+3)& (0+255),w,b
  7097   000D94  1183               	iorwf	(sqrtf@ix+2)& (0+255),w,b
  7098   000D96  1182               	iorwf	(sqrtf@ix+1)& (0+255),w,b
  7099   000D98  E106               	bnz	u3791
  7100   000D9A  0581               	decf	sqrtf@ix& (0+255),w,b
  7101   000D9C  B0D8               	btfsc	status,0,c
  7102   000D9E  EFD3  F006         	goto	u3791
  7103   000DA2  EFD5  F006         	goto	u3790
  7104   000DA6                     u3791:
  7105   000DA6  EF0B  F007         	goto	l3451
  7106   000DAA                     u3790:
  7107   000DAA                     
  7108                           ; BSR set to: 0
  7109   000DAA  0EFF               	movlw	255
  7110   000DAC  1581               	andwf	sqrtf@ix& (0+255),w,b
  7111   000DAE  6F64               	movwf	??_sqrtf& (0+255),b
  7112   000DB0  0EFF               	movlw	255
  7113   000DB2  1582               	andwf	(sqrtf@ix+1)& (0+255),w,b
  7114   000DB4  6F65               	movwf	(??_sqrtf+1)& (0+255),b
  7115   000DB6  0EFF               	movlw	255
  7116   000DB8  1583               	andwf	(sqrtf@ix+2)& (0+255),w,b
  7117   000DBA  6F66               	movwf	(??_sqrtf+2)& (0+255),b
  7118   000DBC  0E7F               	movlw	127
  7119   000DBE  1584               	andwf	(sqrtf@ix+3)& (0+255),w,b
  7120   000DC0  6F67               	movwf	(??_sqrtf+3)& (0+255),b
  7121   000DC2  5164               	movf	??_sqrtf& (0+255),w,b
  7122   000DC4  1165               	iorwf	(??_sqrtf+1)& (0+255),w,b
  7123   000DC6  1166               	iorwf	(??_sqrtf+2)& (0+255),w,b
  7124   000DC8  1167               	iorwf	(??_sqrtf+3)& (0+255),w,b
  7125   000DCA  A4D8               	btfss	status,2,c
  7126   000DCC  EFEA  F006         	goto	u3801
  7127   000DD0  EFEC  F006         	goto	u3800
  7128   000DD4                     u3801:
  7129   000DD4  EFF6  F006         	goto	l3443
  7130   000DD8                     u3800:
  7131   000DD8                     
  7132                           ; BSR set to: 0
  7133   000DD8  0E00               	movlw	0
  7134   000DDA  6F60               	movwf	?_sqrtf& (0+255),b
  7135   000DDC  0E00               	movlw	0
  7136   000DDE  6F61               	movwf	(?_sqrtf+1)& (0+255),b
  7137   000DE0  0E00               	movlw	0
  7138   000DE2  6F62               	movwf	(?_sqrtf+2)& (0+255),b
  7139   000DE4  0E00               	movlw	0
  7140   000DE6  6F63               	movwf	(?_sqrtf+3)& (0+255),b
  7141   000DE8  EF62  F008         	goto	l1142
  7142   000DEC                     l3443:
  7143                           
  7144                           ; BSR set to: 0
  7145   000DEC  BF84               	btfsc	(sqrtf@ix+3)& (0+255),7,b
  7146   000DEE  EFFD  F006         	goto	u3810
  7147   000DF2  EFFB  F006         	goto	u3811
  7148   000DF6                     u3811:
  7149   000DF6  EF0B  F007         	goto	l3451
  7150   000DFA                     u3810:
  7151   000DFA                     
  7152                           ; BSR set to: 0
  7153   000DFA  0E00               	movlw	0
  7154   000DFC  6E55               	movwf	(_errno+1)^0,c
  7155   000DFE  0E21               	movlw	33
  7156   000E00  6E54               	movwf	_errno^0,c
  7157   000E02  0EFF               	movlw	255
  7158   000E04  6F81               	movwf	sqrtf@ix& (0+255),b
  7159   000E06  0EFF               	movlw	255
  7160   000E08  6F82               	movwf	(sqrtf@ix+1)& (0+255),b
  7161   000E0A  0EFF               	movlw	255
  7162   000E0C  6F83               	movwf	(sqrtf@ix+2)& (0+255),b
  7163   000E0E  0E7F               	movlw	127
  7164   000E10  6F84               	movwf	(sqrtf@ix+3)& (0+255),b
  7165   000E12  EFBC  F006         	goto	l3431
  7166   000E16                     l3451:
  7167                           
  7168                           ; BSR set to: 0
  7169   000E16  0E17               	movlw	23
  7170   000E18  6F64               	movwf	??_sqrtf& (0+255),b
  7171   000E1A  C081  F065         	movff	sqrtf@ix,??_sqrtf+1
  7172   000E1E  C082  F066         	movff	sqrtf@ix+1,??_sqrtf+2
  7173   000E22  C083  F067         	movff	sqrtf@ix+2,??_sqrtf+3
  7174   000E26  C084  F068         	movff	sqrtf@ix+3,??_sqrtf+4
  7175   000E2A                     u3825:
  7176   000E2A  6764               	tstfsz	??_sqrtf& (0+255),b
  7177   000E2C  EF1A  F007         	goto	u3826
  7178   000E30  EF22  F007         	goto	u3827
  7179   000E34                     u3826:
  7180   000E34  3568               	rlcf	(??_sqrtf+4)& (0+255),w,b
  7181   000E36  3368               	rrcf	(??_sqrtf+4)& (0+255),f,b
  7182   000E38  3367               	rrcf	(??_sqrtf+3)& (0+255),f,b
  7183   000E3A  3366               	rrcf	(??_sqrtf+2)& (0+255),f,b
  7184   000E3C  3365               	rrcf	(??_sqrtf+1)& (0+255),f,b
  7185   000E3E  2F64               	decfsz	??_sqrtf& (0+255),f,b
  7186   000E40  EF15  F007         	goto	u3825
  7187   000E44                     u3827:
  7188   000E44  C065  F079         	movff	??_sqrtf+1,sqrtf@m
  7189   000E48  C066  F07A         	movff	??_sqrtf+2,sqrtf@m+1
  7190   000E4C  C067  F07B         	movff	??_sqrtf+3,sqrtf@m+2
  7191   000E50  C068  F07C         	movff	??_sqrtf+4,sqrtf@m+3
  7192   000E54  0100               	movlb	0	; () banked
  7193   000E56  5179               	movf	sqrtf@m& (0+255),w,b
  7194   000E58  117A               	iorwf	(sqrtf@m+1)& (0+255),w,b
  7195   000E5A  117B               	iorwf	(sqrtf@m+2)& (0+255),w,b
  7196   000E5C  117C               	iorwf	(sqrtf@m+3)& (0+255),w,b
  7197   000E5E  A4D8               	btfss	status,2,c
  7198   000E60  EF34  F007         	goto	u3831
  7199   000E64  EF36  F007         	goto	u3830
  7200   000E68                     u3831:
  7201   000E68  EF66  F007         	goto	l1146
  7202   000E6C                     u3830:
  7203   000E6C                     
  7204                           ; BSR set to: 0
  7205   000E6C  0E00               	movlw	0
  7206   000E6E  6F6D               	movwf	sqrtf@i& (0+255),b
  7207   000E70  0E00               	movlw	0
  7208   000E72  6F6E               	movwf	(sqrtf@i+1)& (0+255),b
  7209   000E74  0E00               	movlw	0
  7210   000E76  6F6F               	movwf	(sqrtf@i+2)& (0+255),b
  7211   000E78  0E00               	movlw	0
  7212   000E7A  6F70               	movwf	(sqrtf@i+3)& (0+255),b
  7213   000E7C  EF4B  F007         	goto	l3459
  7214   000E80                     l3455:
  7215                           
  7216                           ; BSR set to: 0
  7217   000E80  90D8               	bcf	status,0,c
  7218   000E82  3781               	rlcf	sqrtf@ix& (0+255),f,b
  7219   000E84  3782               	rlcf	(sqrtf@ix+1)& (0+255),f,b
  7220   000E86  3783               	rlcf	(sqrtf@ix+2)& (0+255),f,b
  7221   000E88  3784               	rlcf	(sqrtf@ix+3)& (0+255),f,b
  7222   000E8A                     
  7223                           ; BSR set to: 0
  7224   000E8A  0E01               	movlw	1
  7225   000E8C  276D               	addwf	sqrtf@i& (0+255),f,b
  7226   000E8E  0E00               	movlw	0
  7227   000E90  236E               	addwfc	(sqrtf@i+1)& (0+255),f,b
  7228   000E92  236F               	addwfc	(sqrtf@i+2)& (0+255),f,b
  7229   000E94  2370               	addwfc	(sqrtf@i+3)& (0+255),f,b
  7230   000E96                     l3459:
  7231                           
  7232                           ; BSR set to: 0
  7233   000E96  AF83               	btfss	(sqrtf@ix+2)& (0+255),7,b
  7234   000E98  EF50  F007         	goto	u3841
  7235   000E9C  EF52  F007         	goto	u3840
  7236   000EA0                     u3841:
  7237   000EA0  EF40  F007         	goto	l3455
  7238   000EA4                     u3840:
  7239   000EA4                     
  7240                           ; BSR set to: 0
  7241   000EA4  0EFF               	movlw	255
  7242   000EA6  256D               	addwf	sqrtf@i& (0+255),w,b
  7243   000EA8  6F64               	movwf	??_sqrtf& (0+255),b
  7244   000EAA  0EFF               	movlw	255
  7245   000EAC  216E               	addwfc	(sqrtf@i+1)& (0+255),w,b
  7246   000EAE  6F65               	movwf	(??_sqrtf+1)& (0+255),b
  7247   000EB0  0EFF               	movlw	255
  7248   000EB2  216F               	addwfc	(sqrtf@i+2)& (0+255),w,b
  7249   000EB4  6F66               	movwf	(??_sqrtf+2)& (0+255),b
  7250   000EB6  0EFF               	movlw	255
  7251   000EB8  2170               	addwfc	(sqrtf@i+3)& (0+255),w,b
  7252   000EBA  6F67               	movwf	(??_sqrtf+3)& (0+255),b
  7253   000EBC  5164               	movf	??_sqrtf& (0+255),w,b
  7254   000EBE  5F79               	subwf	sqrtf@m& (0+255),f,b
  7255   000EC0  5165               	movf	(??_sqrtf+1)& (0+255),w,b
  7256   000EC2  5B7A               	subwfb	(sqrtf@m+1)& (0+255),f,b
  7257   000EC4  5166               	movf	(??_sqrtf+2)& (0+255),w,b
  7258   000EC6  5B7B               	subwfb	(sqrtf@m+2)& (0+255),f,b
  7259   000EC8  5167               	movf	(??_sqrtf+3)& (0+255),w,b
  7260   000ECA  5B7C               	subwfb	(sqrtf@m+3)& (0+255),f,b
  7261   000ECC                     l1146:
  7262                           
  7263                           ; BSR set to: 0
  7264   000ECC  0E81               	movlw	129
  7265   000ECE  2779               	addwf	sqrtf@m& (0+255),f,b
  7266   000ED0  0EFF               	movlw	255
  7267   000ED2  237A               	addwfc	(sqrtf@m+1)& (0+255),f,b
  7268   000ED4  0EFF               	movlw	255
  7269   000ED6  237B               	addwfc	(sqrtf@m+2)& (0+255),f,b
  7270   000ED8  0EFF               	movlw	255
  7271   000EDA  237C               	addwfc	(sqrtf@m+3)& (0+255),f,b
  7272   000EDC  0EFF               	movlw	255
  7273   000EDE  1581               	andwf	sqrtf@ix& (0+255),w,b
  7274   000EE0  6F64               	movwf	??_sqrtf& (0+255),b
  7275   000EE2  0EFF               	movlw	255
  7276   000EE4  1582               	andwf	(sqrtf@ix+1)& (0+255),w,b
  7277   000EE6  6F65               	movwf	(??_sqrtf+1)& (0+255),b
  7278   000EE8  0E7F               	movlw	127
  7279   000EEA  1583               	andwf	(sqrtf@ix+2)& (0+255),w,b
  7280   000EEC  6F66               	movwf	(??_sqrtf+2)& (0+255),b
  7281   000EEE  0E00               	movlw	0
  7282   000EF0  1584               	andwf	(sqrtf@ix+3)& (0+255),w,b
  7283   000EF2  6F67               	movwf	(??_sqrtf+3)& (0+255),b
  7284   000EF4  0E00               	movlw	0
  7285   000EF6  1164               	iorwf	??_sqrtf& (0+255),w,b
  7286   000EF8  6F81               	movwf	sqrtf@ix& (0+255),b
  7287   000EFA  0E00               	movlw	0
  7288   000EFC  1165               	iorwf	(??_sqrtf+1)& (0+255),w,b
  7289   000EFE  6F82               	movwf	(sqrtf@ix+1)& (0+255),b
  7290   000F00  0E80               	movlw	128
  7291   000F02  1166               	iorwf	(??_sqrtf+2)& (0+255),w,b
  7292   000F04  6F83               	movwf	(sqrtf@ix+2)& (0+255),b
  7293   000F06  0E00               	movlw	0
  7294   000F08  1167               	iorwf	(??_sqrtf+3)& (0+255),w,b
  7295   000F0A  6F84               	movwf	(sqrtf@ix+3)& (0+255),b
  7296   000F0C                     
  7297                           ; BSR set to: 0
  7298   000F0C  A179               	btfss	sqrtf@m& (0+255),0,b
  7299   000F0E  EF8B  F007         	goto	u3851
  7300   000F12  EF8D  F007         	goto	u3850
  7301   000F16                     u3851:
  7302   000F16  EF95  F007         	goto	l1150
  7303   000F1A                     u3850:
  7304   000F1A                     
  7305                           ; BSR set to: 0
  7306   000F1A  5181               	movf	sqrtf@ix& (0+255),w,b
  7307   000F1C  2781               	addwf	sqrtf@ix& (0+255),f,b
  7308   000F1E  5182               	movf	(sqrtf@ix+1)& (0+255),w,b
  7309   000F20  2382               	addwfc	(sqrtf@ix+1)& (0+255),f,b
  7310   000F22  5183               	movf	(sqrtf@ix+2)& (0+255),w,b
  7311   000F24  2383               	addwfc	(sqrtf@ix+2)& (0+255),f,b
  7312   000F26  5184               	movf	(sqrtf@ix+3)& (0+255),w,b
  7313   000F28  2384               	addwfc	(sqrtf@ix+3)& (0+255),f,b
  7314   000F2A                     l1150:
  7315                           
  7316                           ; BSR set to: 0
  7317   000F2A  357C               	rlcf	(sqrtf@m+3)& (0+255),w,b
  7318   000F2C  337C               	rrcf	(sqrtf@m+3)& (0+255),f,b
  7319   000F2E  337B               	rrcf	(sqrtf@m+2)& (0+255),f,b
  7320   000F30  337A               	rrcf	(sqrtf@m+1)& (0+255),f,b
  7321   000F32  3379               	rrcf	sqrtf@m& (0+255),f,b
  7322   000F34  5181               	movf	sqrtf@ix& (0+255),w,b
  7323   000F36  2781               	addwf	sqrtf@ix& (0+255),f,b
  7324   000F38  5182               	movf	(sqrtf@ix+1)& (0+255),w,b
  7325   000F3A  2382               	addwfc	(sqrtf@ix+1)& (0+255),f,b
  7326   000F3C  5183               	movf	(sqrtf@ix+2)& (0+255),w,b
  7327   000F3E  2383               	addwfc	(sqrtf@ix+2)& (0+255),f,b
  7328   000F40  5184               	movf	(sqrtf@ix+3)& (0+255),w,b
  7329   000F42  2384               	addwfc	(sqrtf@ix+3)& (0+255),f,b
  7330   000F44                     
  7331                           ; BSR set to: 0
  7332   000F44  0E00               	movlw	0
  7333   000F46  6F69               	movwf	sqrtf@s& (0+255),b
  7334   000F48  0E00               	movlw	0
  7335   000F4A  6F6A               	movwf	(sqrtf@s+1)& (0+255),b
  7336   000F4C  0E00               	movlw	0
  7337   000F4E  6F6B               	movwf	(sqrtf@s+2)& (0+255),b
  7338   000F50  0E00               	movlw	0
  7339   000F52  6F6C               	movwf	(sqrtf@s+3)& (0+255),b
  7340   000F54  C069  F071         	movff	sqrtf@s,sqrtf@q
  7341   000F58  C06A  F072         	movff	sqrtf@s+1,sqrtf@q+1
  7342   000F5C  C06B  F073         	movff	sqrtf@s+2,sqrtf@q+2
  7343   000F60  C06C  F074         	movff	sqrtf@s+3,sqrtf@q+3
  7344   000F64                     
  7345                           ; BSR set to: 0
  7346   000F64  0E00               	movlw	0
  7347   000F66  6F7D               	movwf	sqrtf@r& (0+255),b
  7348   000F68  0E00               	movlw	0
  7349   000F6A  6F7E               	movwf	(sqrtf@r+1)& (0+255),b
  7350   000F6C  0E00               	movlw	0
  7351   000F6E  6F7F               	movwf	(sqrtf@r+2)& (0+255),b
  7352   000F70  0E01               	movlw	1
  7353   000F72  6F80               	movwf	(sqrtf@r+3)& (0+255),b
  7354   000F74  EF04  F008         	goto	l3477
  7355   000F78                     l3471:
  7356                           
  7357                           ; BSR set to: 0
  7358   000F78  5169               	movf	sqrtf@s& (0+255),w,b
  7359   000F7A  257D               	addwf	sqrtf@r& (0+255),w,b
  7360   000F7C  6F75               	movwf	sqrtf@t& (0+255),b
  7361   000F7E  516A               	movf	(sqrtf@s+1)& (0+255),w,b
  7362   000F80  217E               	addwfc	(sqrtf@r+1)& (0+255),w,b
  7363   000F82  6F76               	movwf	(sqrtf@t+1)& (0+255),b
  7364   000F84  516B               	movf	(sqrtf@s+2)& (0+255),w,b
  7365   000F86  217F               	addwfc	(sqrtf@r+2)& (0+255),w,b
  7366   000F88  6F77               	movwf	(sqrtf@t+2)& (0+255),b
  7367   000F8A  516C               	movf	(sqrtf@s+3)& (0+255),w,b
  7368   000F8C  2180               	addwfc	(sqrtf@r+3)& (0+255),w,b
  7369   000F8E  6F78               	movwf	(sqrtf@t+3)& (0+255),b
  7370   000F90  5175               	movf	sqrtf@t& (0+255),w,b
  7371   000F92  5D81               	subwf	sqrtf@ix& (0+255),w,b
  7372   000F94  5176               	movf	(sqrtf@t+1)& (0+255),w,b
  7373   000F96  5982               	subwfb	(sqrtf@ix+1)& (0+255),w,b
  7374   000F98  5177               	movf	(sqrtf@t+2)& (0+255),w,b
  7375   000F9A  5983               	subwfb	(sqrtf@ix+2)& (0+255),w,b
  7376   000F9C  5184               	movf	(sqrtf@ix+3)& (0+255),w,b
  7377   000F9E  0A80               	xorlw	128
  7378   000FA0  6F64               	movwf	??_sqrtf& (0+255),b
  7379   000FA2  5178               	movf	(sqrtf@t+3)& (0+255),w,b
  7380   000FA4  0A80               	xorlw	128
  7381   000FA6  5964               	subwfb	??_sqrtf& (0+255),w,b
  7382   000FA8  A0D8               	btfss	status,0,c
  7383   000FAA  EFD9  F007         	goto	u3861
  7384   000FAE  EFDB  F007         	goto	u3860
  7385   000FB2                     u3861:
  7386   000FB2  EFF7  F007         	goto	l1153
  7387   000FB6                     u3860:
  7388   000FB6                     
  7389                           ; BSR set to: 0
  7390   000FB6  5175               	movf	sqrtf@t& (0+255),w,b
  7391   000FB8  257D               	addwf	sqrtf@r& (0+255),w,b
  7392   000FBA  6F69               	movwf	sqrtf@s& (0+255),b
  7393   000FBC  5176               	movf	(sqrtf@t+1)& (0+255),w,b
  7394   000FBE  217E               	addwfc	(sqrtf@r+1)& (0+255),w,b
  7395   000FC0  6F6A               	movwf	(sqrtf@s+1)& (0+255),b
  7396   000FC2  5177               	movf	(sqrtf@t+2)& (0+255),w,b
  7397   000FC4  217F               	addwfc	(sqrtf@r+2)& (0+255),w,b
  7398   000FC6  6F6B               	movwf	(sqrtf@s+2)& (0+255),b
  7399   000FC8  5178               	movf	(sqrtf@t+3)& (0+255),w,b
  7400   000FCA  2180               	addwfc	(sqrtf@r+3)& (0+255),w,b
  7401   000FCC  6F6C               	movwf	(sqrtf@s+3)& (0+255),b
  7402   000FCE  5175               	movf	sqrtf@t& (0+255),w,b
  7403   000FD0  5F81               	subwf	sqrtf@ix& (0+255),f,b
  7404   000FD2  5176               	movf	(sqrtf@t+1)& (0+255),w,b
  7405   000FD4  5B82               	subwfb	(sqrtf@ix+1)& (0+255),f,b
  7406   000FD6  5177               	movf	(sqrtf@t+2)& (0+255),w,b
  7407   000FD8  5B83               	subwfb	(sqrtf@ix+2)& (0+255),f,b
  7408   000FDA  5178               	movf	(sqrtf@t+3)& (0+255),w,b
  7409   000FDC  5B84               	subwfb	(sqrtf@ix+3)& (0+255),f,b
  7410   000FDE  517D               	movf	sqrtf@r& (0+255),w,b
  7411   000FE0  2771               	addwf	sqrtf@q& (0+255),f,b
  7412   000FE2  517E               	movf	(sqrtf@r+1)& (0+255),w,b
  7413   000FE4  2372               	addwfc	(sqrtf@q+1)& (0+255),f,b
  7414   000FE6  517F               	movf	(sqrtf@r+2)& (0+255),w,b
  7415   000FE8  2373               	addwfc	(sqrtf@q+2)& (0+255),f,b
  7416   000FEA  5180               	movf	(sqrtf@r+3)& (0+255),w,b
  7417   000FEC  2374               	addwfc	(sqrtf@q+3)& (0+255),f,b
  7418   000FEE                     l1153:
  7419                           
  7420                           ; BSR set to: 0
  7421   000FEE  5181               	movf	sqrtf@ix& (0+255),w,b
  7422   000FF0  2781               	addwf	sqrtf@ix& (0+255),f,b
  7423   000FF2  5182               	movf	(sqrtf@ix+1)& (0+255),w,b
  7424   000FF4  2382               	addwfc	(sqrtf@ix+1)& (0+255),f,b
  7425   000FF6  5183               	movf	(sqrtf@ix+2)& (0+255),w,b
  7426   000FF8  2383               	addwfc	(sqrtf@ix+2)& (0+255),f,b
  7427   000FFA  5184               	movf	(sqrtf@ix+3)& (0+255),w,b
  7428   000FFC  2384               	addwfc	(sqrtf@ix+3)& (0+255),f,b
  7429   000FFE                     
  7430                           ; BSR set to: 0
  7431   000FFE  90D8               	bcf	status,0,c
  7432   001000  3380               	rrcf	(sqrtf@r+3)& (0+255),f,b
  7433   001002  337F               	rrcf	(sqrtf@r+2)& (0+255),f,b
  7434   001004  337E               	rrcf	(sqrtf@r+1)& (0+255),f,b
  7435   001006  337D               	rrcf	sqrtf@r& (0+255),f,b
  7436   001008                     l3477:
  7437                           
  7438                           ; BSR set to: 0
  7439   001008  517D               	movf	sqrtf@r& (0+255),w,b
  7440   00100A  117E               	iorwf	(sqrtf@r+1)& (0+255),w,b
  7441   00100C  117F               	iorwf	(sqrtf@r+2)& (0+255),w,b
  7442   00100E  1180               	iorwf	(sqrtf@r+3)& (0+255),w,b
  7443   001010  A4D8               	btfss	status,2,c
  7444   001012  EF0D  F008         	goto	u3871
  7445   001016  EF0F  F008         	goto	u3870
  7446   00101A                     u3871:
  7447   00101A  EFBC  F007         	goto	l3471
  7448   00101E                     u3870:
  7449   00101E                     
  7450                           ; BSR set to: 0
  7451   00101E  5181               	movf	sqrtf@ix& (0+255),w,b
  7452   001020  1182               	iorwf	(sqrtf@ix+1)& (0+255),w,b
  7453   001022  1183               	iorwf	(sqrtf@ix+2)& (0+255),w,b
  7454   001024  1184               	iorwf	(sqrtf@ix+3)& (0+255),w,b
  7455   001026  B4D8               	btfsc	status,2,c
  7456   001028  EF18  F008         	goto	u3881
  7457   00102C  EF1A  F008         	goto	u3880
  7458   001030                     u3881:
  7459   001030  EF2E  F008         	goto	l1155
  7460   001034                     u3880:
  7461   001034                     
  7462                           ; BSR set to: 0
  7463   001034  0E01               	movlw	1
  7464   001036  1571               	andwf	sqrtf@q& (0+255),w,b
  7465   001038  6F64               	movwf	??_sqrtf& (0+255),b
  7466   00103A  0E00               	movlw	0
  7467   00103C  1572               	andwf	(sqrtf@q+1)& (0+255),w,b
  7468   00103E  6F65               	movwf	(??_sqrtf+1)& (0+255),b
  7469   001040  0E00               	movlw	0
  7470   001042  1573               	andwf	(sqrtf@q+2)& (0+255),w,b
  7471   001044  6F66               	movwf	(??_sqrtf+2)& (0+255),b
  7472   001046  0E00               	movlw	0
  7473   001048  1574               	andwf	(sqrtf@q+3)& (0+255),w,b
  7474   00104A  6F67               	movwf	(??_sqrtf+3)& (0+255),b
  7475   00104C  5164               	movf	??_sqrtf& (0+255),w,b
  7476   00104E  2771               	addwf	sqrtf@q& (0+255),f,b
  7477   001050  5165               	movf	(??_sqrtf+1)& (0+255),w,b
  7478   001052  2372               	addwfc	(sqrtf@q+1)& (0+255),f,b
  7479   001054  5166               	movf	(??_sqrtf+2)& (0+255),w,b
  7480   001056  2373               	addwfc	(sqrtf@q+2)& (0+255),f,b
  7481   001058  5167               	movf	(??_sqrtf+3)& (0+255),w,b
  7482   00105A  2374               	addwfc	(sqrtf@q+3)& (0+255),f,b
  7483   00105C                     l1155:
  7484                           
  7485                           ; BSR set to: 0
  7486   00105C  C071  F064         	movff	sqrtf@q,??_sqrtf
  7487   001060  C072  F065         	movff	sqrtf@q+1,??_sqrtf+1
  7488   001064  C073  F066         	movff	sqrtf@q+2,??_sqrtf+2
  7489   001068  C074  F067         	movff	sqrtf@q+3,??_sqrtf+3
  7490   00106C  3567               	rlcf	(??_sqrtf+3)& (0+255),w,b
  7491   00106E  3367               	rrcf	(??_sqrtf+3)& (0+255),f,b
  7492   001070  3366               	rrcf	(??_sqrtf+2)& (0+255),f,b
  7493   001072  3365               	rrcf	(??_sqrtf+1)& (0+255),f,b
  7494   001074  3364               	rrcf	??_sqrtf& (0+255),f,b
  7495   001076  0E00               	movlw	0
  7496   001078  2564               	addwf	??_sqrtf& (0+255),w,b
  7497   00107A  6F81               	movwf	sqrtf@ix& (0+255),b
  7498   00107C  0E00               	movlw	0
  7499   00107E  2165               	addwfc	(??_sqrtf+1)& (0+255),w,b
  7500   001080  6F82               	movwf	(sqrtf@ix+1)& (0+255),b
  7501   001082  0E00               	movlw	0
  7502   001084  2166               	addwfc	(??_sqrtf+2)& (0+255),w,b
  7503   001086  6F83               	movwf	(sqrtf@ix+2)& (0+255),b
  7504   001088  0E3F               	movlw	63
  7505   00108A  2167               	addwfc	(??_sqrtf+3)& (0+255),w,b
  7506   00108C  6F84               	movwf	(sqrtf@ix+3)& (0+255),b
  7507   00108E  C079  F064         	movff	sqrtf@m,??_sqrtf
  7508   001092  C07A  F065         	movff	sqrtf@m+1,??_sqrtf+1
  7509   001096  C07B  F066         	movff	sqrtf@m+2,??_sqrtf+2
  7510   00109A  C07C  F067         	movff	sqrtf@m+3,??_sqrtf+3
  7511   00109E  0E17               	movlw	23
  7512   0010A0                     u3895:
  7513   0010A0  90D8               	bcf	status,0,c
  7514   0010A2  3764               	rlcf	??_sqrtf& (0+255),f,b
  7515   0010A4  3765               	rlcf	(??_sqrtf+1)& (0+255),f,b
  7516   0010A6  3766               	rlcf	(??_sqrtf+2)& (0+255),f,b
  7517   0010A8  3767               	rlcf	(??_sqrtf+3)& (0+255),f,b
  7518   0010AA  2EE8               	decfsz	wreg,f,c
  7519   0010AC  EF50  F008         	goto	u3895
  7520   0010B0  5164               	movf	??_sqrtf& (0+255),w,b
  7521   0010B2  2781               	addwf	sqrtf@ix& (0+255),f,b
  7522   0010B4  5165               	movf	(??_sqrtf+1)& (0+255),w,b
  7523   0010B6  2382               	addwfc	(sqrtf@ix+1)& (0+255),f,b
  7524   0010B8  5166               	movf	(??_sqrtf+2)& (0+255),w,b
  7525   0010BA  2383               	addwfc	(sqrtf@ix+2)& (0+255),f,b
  7526   0010BC  5167               	movf	(??_sqrtf+3)& (0+255),w,b
  7527   0010BE  2384               	addwfc	(sqrtf@ix+3)& (0+255),f,b
  7528   0010C0  EFBC  F006         	goto	l3431
  7529   0010C4                     l1142:
  7530                           
  7531                           ; BSR set to: 0
  7532   0010C4  0012               	return		;funcret
  7533   0010C6                     __end_of_sqrtf:
  7534                           	callstack 0
  7535                           
  7536 ;; *************** function _fabsf *****************
  7537 ;; Defined at:
  7538 ;;		line 4 in file "C:\Program Files\Microchip\xc8\v3.00\pic\sources\c99\common\fabsf.c"
  7539 ;; Parameters:    Size  Location     Type
  7540 ;;  x               4    0[BANK0 ] float 
  7541 ;; Auto vars:     Size  Location     Type
  7542 ;;  u               4    4[BANK0 ] struct .
  7543 ;; Return value:  Size  Location     Type
  7544 ;;                  4    0[BANK0 ] float 
  7545 ;; Registers used:
  7546 ;;		status,2, status,0
  7547 ;; Tracked objects:
  7548 ;;		On entry : 0/0
  7549 ;;		On exit  : 0/0
  7550 ;;		Unchanged: 0/0
  7551 ;; Data sizes:     COMRAM   BANK0   BANK1   BANK2   BANK3   BANK4   BANK5   BANK6   BANK7
  7552 ;;      Params:         0       4       0       0       0       0       0       0       0
  7553 ;;      Locals:         0       4       0       0       0       0       0       0       0
  7554 ;;      Temps:          0       0       0       0       0       0       0       0       0
  7555 ;;      Totals:         0       8       0       0       0       0       0       0       0
  7556 ;;Total ram usage:        8 bytes
  7557 ;; Hardware stack levels used: 1
  7558 ;; Hardware stack levels required when called: 7
  7559 ;; This function calls:
  7560 ;;		Nothing
  7561 ;; This function is called by:
  7562 ;;		_asinf
  7563 ;; This function uses a non-reentrant model
  7564 ;;
  7565                           
  7566                           	psect	text35
  7567   0034E8                     __ptext35:
  7568                           	callstack 0
  7569   0034E8                     _fabsf:
  7570                           	callstack 21
  7571   0034E8  C049  F064         	movff	fabsf@F465,fabsf@u
  7572   0034EC  C04A  F065         	movff	fabsf@F465+1,fabsf@u+1
  7573   0034F0  C04B  F066         	movff	fabsf@F465+2,fabsf@u+2
  7574   0034F4  C04C  F067         	movff	fabsf@F465+3,fabsf@u+3
  7575   0034F8  C060  F064         	movff	fabsf@x,fabsf@u
  7576   0034FC  C061  F065         	movff	fabsf@x+1,fabsf@u+1
  7577   003500  C062  F066         	movff	fabsf@x+2,fabsf@u+2
  7578   003504  C063  F067         	movff	fabsf@x+3,fabsf@u+3
  7579   003508  0100               	movlb	0	; () banked
  7580   00350A  9F67               	bcf	(fabsf@u+3)& (0+255),7,b
  7581   00350C                     
  7582                           ; BSR set to: 0
  7583   00350C  C064  F060         	movff	fabsf@u,?_fabsf
  7584   003510  C065  F061         	movff	fabsf@u+1,?_fabsf+1
  7585   003514  C066  F062         	movff	fabsf@u+2,?_fabsf+2
  7586   003518  C067  F063         	movff	fabsf@u+3,?_fabsf+3
  7587   00351C                     
  7588                           ; BSR set to: 0
  7589   00351C  0012               	return		;funcret
  7590   00351E                     __end_of_fabsf:
  7591                           	callstack 0
  7592                           
  7593 ;; *************** function ___flsub *****************
  7594 ;; Defined at:
  7595 ;;		line 245 in file "C:\Program Files\Microchip\xc8\v3.00\pic\sources\c99\common\sprcadd.c"
  7596 ;; Parameters:    Size  Location     Type
  7597 ;;  b               4  100[BANK0 ] float 
  7598 ;;  a               4  104[BANK0 ] float 
  7599 ;; Auto vars:     Size  Location     Type
  7600 ;;		None
  7601 ;; Return value:  Size  Location     Type
  7602 ;;                  4  100[BANK0 ] float 
  7603 ;; Registers used:
  7604 ;;		wreg, status,2, status,0, cstack
  7605 ;; Tracked objects:
  7606 ;;		On entry : 0/0
  7607 ;;		On exit  : 0/0
  7608 ;;		Unchanged: 0/0
  7609 ;; Data sizes:     COMRAM   BANK0   BANK1   BANK2   BANK3   BANK4   BANK5   BANK6   BANK7
  7610 ;;      Params:         0       8       0       0       0       0       0       0       0
  7611 ;;      Locals:         0       0       0       0       0       0       0       0       0
  7612 ;;      Temps:          0       0       0       0       0       0       0       0       0
  7613 ;;      Totals:         0       8       0       0       0       0       0       0       0
  7614 ;;Total ram usage:        8 bytes
  7615 ;; Hardware stack levels used: 1
  7616 ;; Hardware stack levels required when called: 8
  7617 ;; This function calls:
  7618 ;;		___fladd
  7619 ;; This function is called by:
  7620 ;;		_asinf
  7621 ;; This function uses a non-reentrant model
  7622 ;;
  7623                           
  7624                           	psect	text36
  7625   00332A                     __ptext36:
  7626                           	callstack 0
  7627   00332A                     ___flsub:
  7628                           	callstack 20
  7629   00332A  0E00               	movlw	0
  7630   00332C  0100               	movlb	0	; () banked
  7631   00332E  1BC8               	xorwf	___flsub@a& (0+255),f,b
  7632   003330  0E00               	movlw	0
  7633   003332  1BC9               	xorwf	(___flsub@a+1)& (0+255),f,b
  7634   003334  0E00               	movlw	0
  7635   003336  1BCA               	xorwf	(___flsub@a+2)& (0+255),f,b
  7636   003338  0E80               	movlw	128
  7637   00333A  1BCB               	xorwf	(___flsub@a+3)& (0+255),f,b
  7638   00333C                     
  7639                           ; BSR set to: 0
  7640   00333C  C0C4  F087         	movff	___flsub@b,___fladd@b
  7641   003340  C0C5  F088         	movff	___flsub@b+1,___fladd@b+1
  7642   003344  C0C6  F089         	movff	___flsub@b+2,___fladd@b+2
  7643   003348  C0C7  F08A         	movff	___flsub@b+3,___fladd@b+3
  7644   00334C  C0C8  F08B         	movff	___flsub@a,___fladd@a
  7645   003350  C0C9  F08C         	movff	___flsub@a+1,___fladd@a+1
  7646   003354  C0CA  F08D         	movff	___flsub@a+2,___fladd@a+2
  7647   003358  C0CB  F08E         	movff	___flsub@a+3,___fladd@a+3
  7648   00335C  EC09  F000         	call	___fladd	;wreg free
  7649   003360  C087  F0C4         	movff	?___fladd,?___flsub
  7650   003364  C088  F0C5         	movff	?___fladd+1,?___flsub+1
  7651   003368  C089  F0C6         	movff	?___fladd+2,?___flsub+2
  7652   00336C  C08A  F0C7         	movff	?___fladd+3,?___flsub+3
  7653   003370  0012               	return		;funcret
  7654   003372                     __end_of___flsub:
  7655                           	callstack 0
  7656                           
  7657 ;; *************** function ___flneg *****************
  7658 ;; Defined at:
  7659 ;;		line 15 in file "C:\Program Files\Microchip\xc8\v3.00\pic\sources\c99\common\flneg.c"
  7660 ;; Parameters:    Size  Location     Type
  7661 ;;  f1              4    0[BANK0 ] float 
  7662 ;; Auto vars:     Size  Location     Type
  7663 ;;		None
  7664 ;; Return value:  Size  Location     Type
  7665 ;;                  4    0[BANK0 ] float 
  7666 ;; Registers used:
  7667 ;;		wreg, status,2, status,0
  7668 ;; Tracked objects:
  7669 ;;		On entry : 0/0
  7670 ;;		On exit  : 0/0
  7671 ;;		Unchanged: 0/0
  7672 ;; Data sizes:     COMRAM   BANK0   BANK1   BANK2   BANK3   BANK4   BANK5   BANK6   BANK7
  7673 ;;      Params:         0       4       0       0       0       0       0       0       0
  7674 ;;      Locals:         0       0       0       0       0       0       0       0       0
  7675 ;;      Temps:          0       0       0       0       0       0       0       0       0
  7676 ;;      Totals:         0       4       0       0       0       0       0       0       0
  7677 ;;Total ram usage:        4 bytes
  7678 ;; Hardware stack levels used: 1
  7679 ;; Hardware stack levels required when called: 7
  7680 ;; This function calls:
  7681 ;;		Nothing
  7682 ;; This function is called by:
  7683 ;;		_asinf
  7684 ;; This function uses a non-reentrant model
  7685 ;;
  7686                           
  7687                           	psect	text37
  7688   003440                     __ptext37:
  7689                           	callstack 0
  7690   003440                     ___flneg:
  7691                           	callstack 21
  7692   003440  0100               	movlb	0	; () banked
  7693   003442  5160               	movf	___flneg@f1& (0+255),w,b
  7694   003444  1161               	iorwf	(___flneg@f1+1)& (0+255),w,b
  7695   003446  1162               	iorwf	(___flneg@f1+2)& (0+255),w,b
  7696   003448  1163               	iorwf	(___flneg@f1+3)& (0+255),w,b
  7697   00344A  B4D8               	btfsc	status,2,c
  7698   00344C  EF2A  F01A         	goto	u3751
  7699   003450  EF2C  F01A         	goto	u3750
  7700   003454                     u3751:
  7701   003454  EF34  F01A         	goto	l3403
  7702   003458                     u3750:
  7703   003458                     
  7704                           ; BSR set to: 0
  7705   003458  0E00               	movlw	0
  7706   00345A  1B60               	xorwf	___flneg@f1& (0+255),f,b
  7707   00345C  0E00               	movlw	0
  7708   00345E  1B61               	xorwf	(___flneg@f1+1)& (0+255),f,b
  7709   003460  0E00               	movlw	0
  7710   003462  1B62               	xorwf	(___flneg@f1+2)& (0+255),f,b
  7711   003464  0E80               	movlw	128
  7712   003466  1B63               	xorwf	(___flneg@f1+3)& (0+255),f,b
  7713   003468                     l3403:
  7714                           
  7715                           ; BSR set to: 0
  7716   003468  C060  F060         	movff	___flneg@f1,?___flneg
  7717   00346C  C061  F061         	movff	___flneg@f1+1,?___flneg+1
  7718   003470  C062  F062         	movff	___flneg@f1+2,?___flneg+2
  7719   003474  C063  F063         	movff	___flneg@f1+3,?___flneg+3
  7720   003478                     
  7721                           ; BSR set to: 0
  7722   003478  0012               	return		;funcret
  7723   00347A                     __end_of___flneg:
  7724                           	callstack 0
  7725                           
  7726 ;; *************** function _R *****************
  7727 ;; Defined at:
  7728 ;;		line 29 in file "C:\Program Files\Microchip\xc8\v3.00\pic\sources\c99\common\asinf.c"
  7729 ;; Parameters:    Size  Location     Type
  7730 ;;  z               4   80[BANK0 ] float 
  7731 ;; Auto vars:     Size  Location     Type
  7732 ;;  q               4   88[BANK0 ] float 
  7733 ;;  p               4   84[BANK0 ] float 
  7734 ;; Return value:  Size  Location     Type
  7735 ;;                  4   80[BANK0 ] float 
  7736 ;; Registers used:
  7737 ;;		wreg, status,2, status,0, prodl, prodh, cstack
  7738 ;; Tracked objects:
  7739 ;;		On entry : 0/0
  7740 ;;		On exit  : 0/0
  7741 ;;		Unchanged: 0/0
  7742 ;; Data sizes:     COMRAM   BANK0   BANK1   BANK2   BANK3   BANK4   BANK5   BANK6   BANK7
  7743 ;;      Params:         0       4       0       0       0       0       0       0       0
  7744 ;;      Locals:         0      16       0       0       0       0       0       0       0
  7745 ;;      Temps:          0       0       0       0       0       0       0       0       0
  7746 ;;      Totals:         0      20       0       0       0       0       0       0       0
  7747 ;;Total ram usage:       20 bytes
  7748 ;; Hardware stack levels used: 1
  7749 ;; Hardware stack levels required when called: 8
  7750 ;; This function calls:
  7751 ;;		___fladd
  7752 ;;		___fldiv
  7753 ;;		___flmul
  7754 ;; This function is called by:
  7755 ;;		_asinf
  7756 ;; This function uses a non-reentrant model
  7757 ;;
  7758                           
  7759                           	psect	text38
  7760   00264A                     __ptext38:
  7761                           	callstack 0
  7762   00264A                     _R:
  7763                           	callstack 20
  7764   00264A  0EBA               	movlw	186
  7765   00264C  0100               	movlb	0	; () banked
  7766   00264E  6F8B               	movwf	___fladd@a& (0+255),b
  7767   002650  0E13               	movlw	19
  7768   002652  6F8C               	movwf	(___fladd@a+1)& (0+255),b
  7769   002654  0E2F               	movlw	47
  7770   002656  6F8D               	movwf	(___fladd@a+2)& (0+255),b
  7771   002658  0EBD               	movlw	189
  7772   00265A  6F8E               	movwf	(___fladd@a+3)& (0+255),b
  7773   00265C  0E6B               	movlw	107
  7774   00265E  6F72               	movwf	___flmul@a& (0+255),b
  7775   002660  0ED3               	movlw	211
  7776   002662  6F73               	movwf	(___flmul@a+1)& (0+255),b
  7777   002664  0E0D               	movlw	13
  7778   002666  6F74               	movwf	(___flmul@a+2)& (0+255),b
  7779   002668  0EBC               	movlw	188
  7780   00266A  6F75               	movwf	(___flmul@a+3)& (0+255),b
  7781   00266C  C0B0  F06E         	movff	R@z,___flmul@b
  7782   002670  C0B1  F06F         	movff	R@z+1,___flmul@b+1
  7783   002674  C0B2  F070         	movff	R@z+2,___flmul@b+2
  7784   002678  C0B3  F071         	movff	R@z+3,___flmul@b+3
  7785   00267C  EC65  F002         	call	___flmul	;wreg free
  7786   002680  C06E  F087         	movff	?___flmul,___fladd@b
  7787   002684  C06F  F088         	movff	?___flmul+1,___fladd@b+1
  7788   002688  C070  F089         	movff	?___flmul+2,___fladd@b+2
  7789   00268C  C071  F08A         	movff	?___flmul+3,___fladd@b+3
  7790   002690  EC09  F000         	call	___fladd	;wreg free
  7791   002694  C087  F0BC         	movff	?___fladd,_R$1292
  7792   002698  C088  F0BD         	movff	?___fladd+1,_R$1292+1
  7793   00269C  C089  F0BE         	movff	?___fladd+2,_R$1292+2
  7794   0026A0  C08A  F0BF         	movff	?___fladd+3,_R$1292+3
  7795   0026A4  0E75               	movlw	117
  7796   0026A6  0100               	movlb	0	; () banked
  7797   0026A8  6F8B               	movwf	___fladd@a& (0+255),b
  7798   0026AA  0EAA               	movlw	170
  7799   0026AC  6F8C               	movwf	(___fladd@a+1)& (0+255),b
  7800   0026AE  0E2A               	movlw	42
  7801   0026B0  6F8D               	movwf	(___fladd@a+2)& (0+255),b
  7802   0026B2  0E3E               	movlw	62
  7803   0026B4  6F8E               	movwf	(___fladd@a+3)& (0+255),b
  7804   0026B6  C0B0  F072         	movff	R@z,___flmul@a
  7805   0026BA  C0B1  F073         	movff	R@z+1,___flmul@a+1
  7806   0026BE  C0B2  F074         	movff	R@z+2,___flmul@a+2
  7807   0026C2  C0B3  F075         	movff	R@z+3,___flmul@a+3
  7808   0026C6  C0BC  F06E         	movff	_R$1292,___flmul@b
  7809   0026CA  C0BD  F06F         	movff	_R$1292+1,___flmul@b+1
  7810   0026CE  C0BE  F070         	movff	_R$1292+2,___flmul@b+2
  7811   0026D2  C0BF  F071         	movff	_R$1292+3,___flmul@b+3
  7812   0026D6  EC65  F002         	call	___flmul	;wreg free
  7813   0026DA  C06E  F087         	movff	?___flmul,___fladd@b
  7814   0026DE  C06F  F088         	movff	?___flmul+1,___fladd@b+1
  7815   0026E2  C070  F089         	movff	?___flmul+2,___fladd@b+2
  7816   0026E6  C071  F08A         	movff	?___flmul+3,___fladd@b+3
  7817   0026EA  EC09  F000         	call	___fladd	;wreg free
  7818   0026EE  C087  F0C0         	movff	?___fladd,_R$1293
  7819   0026F2  C088  F0C1         	movff	?___fladd+1,_R$1293+1
  7820   0026F6  C089  F0C2         	movff	?___fladd+2,_R$1293+2
  7821   0026FA  C08A  F0C3         	movff	?___fladd+3,_R$1293+3
  7822   0026FE  C0C0  F06E         	movff	_R$1293,___flmul@b
  7823   002702  C0C1  F06F         	movff	_R$1293+1,___flmul@b+1
  7824   002706  C0C2  F070         	movff	_R$1293+2,___flmul@b+2
  7825   00270A  C0C3  F071         	movff	_R$1293+3,___flmul@b+3
  7826   00270E  C0B0  F072         	movff	R@z,___flmul@a
  7827   002712  C0B1  F073         	movff	R@z+1,___flmul@a+1
  7828   002716  C0B2  F074         	movff	R@z+2,___flmul@a+2
  7829   00271A  C0B3  F075         	movff	R@z+3,___flmul@a+3
  7830   00271E  EC65  F002         	call	___flmul	;wreg free
  7831   002722  C06E  F0B4         	movff	?___flmul,R@p
  7832   002726  C06F  F0B5         	movff	?___flmul+1,R@p+1
  7833   00272A  C070  F0B6         	movff	?___flmul+2,R@p+2
  7834   00272E  C071  F0B7         	movff	?___flmul+3,R@p+3
  7835   002732  0EAE               	movlw	174
  7836   002734  0100               	movlb	0	; () banked
  7837   002736  6F72               	movwf	___flmul@a& (0+255),b
  7838   002738  0EE5               	movlw	229
  7839   00273A  6F73               	movwf	(___flmul@a+1)& (0+255),b
  7840   00273C  0E34               	movlw	52
  7841   00273E  6F74               	movwf	(___flmul@a+2)& (0+255),b
  7842   002740  0EBF               	movlw	191
  7843   002742  6F75               	movwf	(___flmul@a+3)& (0+255),b
  7844   002744  C0B0  F06E         	movff	R@z,___flmul@b
  7845   002748  C0B1  F06F         	movff	R@z+1,___flmul@b+1
  7846   00274C  C0B2  F070         	movff	R@z+2,___flmul@b+2
  7847   002750  C0B3  F071         	movff	R@z+3,___flmul@b+3
  7848   002754  EC65  F002         	call	___flmul	;wreg free
  7849   002758  C06E  F087         	movff	?___flmul,___fladd@b
  7850   00275C  C06F  F088         	movff	?___flmul+1,___fladd@b+1
  7851   002760  C070  F089         	movff	?___flmul+2,___fladd@b+2
  7852   002764  C071  F08A         	movff	?___flmul+3,___fladd@b+3
  7853   002768  0E00               	movlw	0
  7854   00276A  0100               	movlb	0	; () banked
  7855   00276C  6F8B               	movwf	___fladd@a& (0+255),b
  7856   00276E  0E00               	movlw	0
  7857   002770  6F8C               	movwf	(___fladd@a+1)& (0+255),b
  7858   002772  0E80               	movlw	128
  7859   002774  6F8D               	movwf	(___fladd@a+2)& (0+255),b
  7860   002776  0E3F               	movlw	63
  7861   002778  6F8E               	movwf	(___fladd@a+3)& (0+255),b
  7862   00277A  EC09  F000         	call	___fladd	;wreg free
  7863   00277E  C087  F0B8         	movff	?___fladd,R@q
  7864   002782  C088  F0B9         	movff	?___fladd+1,R@q+1
  7865   002786  C089  F0BA         	movff	?___fladd+2,R@q+2
  7866   00278A  C08A  F0BB         	movff	?___fladd+3,R@q+3
  7867   00278E  C0B4  F097         	movff	R@p,___fldiv@b
  7868   002792  C0B5  F098         	movff	R@p+1,___fldiv@b+1
  7869   002796  C0B6  F099         	movff	R@p+2,___fldiv@b+2
  7870   00279A  C0B7  F09A         	movff	R@p+3,___fldiv@b+3
  7871   00279E  C0B8  F09B         	movff	R@q,___fldiv@a
  7872   0027A2  C0B9  F09C         	movff	R@q+1,___fldiv@a+1
  7873   0027A6  C0BA  F09D         	movff	R@q+2,___fldiv@a+2
  7874   0027AA  C0BB  F09E         	movff	R@q+3,___fldiv@a+3
  7875   0027AE  EC34  F00A         	call	___fldiv	;wreg free
  7876   0027B2  C097  F0B0         	movff	?___fldiv,?_R
  7877   0027B6  C098  F0B1         	movff	?___fldiv+1,?_R+1
  7878   0027BA  C099  F0B2         	movff	?___fldiv+2,?_R+2
  7879   0027BE  C09A  F0B3         	movff	?___fldiv+3,?_R+3
  7880   0027C2  0012               	return		;funcret
  7881   0027C4                     __end_of_R:
  7882                           	callstack 0
  7883                           
  7884 ;; *************** function ___flmul *****************
  7885 ;; Defined at:
  7886 ;;		line 8 in file "C:\Program Files\Microchip\xc8\v3.00\pic\sources\c99\common\sprcmul.c"
  7887 ;; Parameters:    Size  Location     Type
  7888 ;;  b               4   14[BANK0 ] float 
  7889 ;;  a               4   18[BANK0 ] float 
  7890 ;; Auto vars:     Size  Location     Type
  7891 ;;  prod            4   33[BANK0 ] struct .
  7892 ;;  grs             4   27[BANK0 ] unsigned long 
  7893 ;;  temp            2   37[BANK0 ] struct .
  7894 ;;  bexp            1   32[BANK0 ] unsigned char 
  7895 ;;  aexp            1   31[BANK0 ] unsigned char 
  7896 ;;  sign            1   26[BANK0 ] unsigned char 
  7897 ;; Return value:  Size  Location     Type
  7898 ;;                  4   14[BANK0 ] unsigned char 
  7899 ;; Registers used:
  7900 ;;		wreg, status,2, status,0, prodl, prodh
  7901 ;; Tracked objects:
  7902 ;;		On entry : 0/0
  7903 ;;		On exit  : 0/0
  7904 ;;		Unchanged: 0/0
  7905 ;; Data sizes:     COMRAM   BANK0   BANK1   BANK2   BANK3   BANK4   BANK5   BANK6   BANK7
  7906 ;;      Params:         0       8       0       0       0       0       0       0       0
  7907 ;;      Locals:         0      13       0       0       0       0       0       0       0
  7908 ;;      Temps:          0       4       0       0       0       0       0       0       0
  7909 ;;      Totals:         0      25       0       0       0       0       0       0       0
  7910 ;;Total ram usage:       25 bytes
  7911 ;; Hardware stack levels used: 1
  7912 ;; Hardware stack levels required when called: 7
  7913 ;; This function calls:
  7914 ;;		Nothing
  7915 ;; This function is called by:
  7916 ;;		_Joystick_ADC
  7917 ;;		_GY_ADC
  7918 ;;		_R
  7919 ;;		_asinf
  7920 ;; This function uses a non-reentrant model
  7921 ;;
  7922                           
  7923                           	psect	text39
  7924   0004CA                     __ptext39:
  7925                           	callstack 0
  7926   0004CA                     ___flmul:
  7927                           	callstack 22
  7928   0004CA  0100               	movlb	0	; () banked
  7929   0004CC  5171               	movf	(___flmul@b+3)& (0+255),w,b
  7930   0004CE  0B80               	andlw	128
  7931   0004D0  6F7A               	movwf	___flmul@sign& (0+255),b
  7932   0004D2  5171               	movf	(___flmul@b+3)& (0+255),w,b
  7933   0004D4  2571               	addwf	(___flmul@b+3)& (0+255),w,b
  7934   0004D6  6F80               	movwf	___flmul@bexp& (0+255),b
  7935   0004D8                     
  7936                           ; BSR set to: 0
  7937   0004D8  AF70               	btfss	(___flmul@b+2)& (0+255),7,b
  7938   0004DA  EF71  F002         	goto	u3411
  7939   0004DE  EF73  F002         	goto	u3410
  7940   0004E2                     u3411:
  7941   0004E2  EF74  F002         	goto	l3177
  7942   0004E6                     u3410:
  7943   0004E6                     
  7944                           ; BSR set to: 0
  7945   0004E6  8180               	bsf	___flmul@bexp& (0+255),0,b
  7946   0004E8                     l3177:
  7947                           
  7948                           ; BSR set to: 0
  7949   0004E8  5180               	movf	___flmul@bexp& (0+255),w,b
  7950   0004EA  B4D8               	btfsc	status,2,c
  7951   0004EC  EF7A  F002         	goto	u3421
  7952   0004F0  EF7C  F002         	goto	u3420
  7953   0004F4                     u3421:
  7954   0004F4  EF8F  F002         	goto	l3185
  7955   0004F8                     u3420:
  7956   0004F8                     
  7957                           ; BSR set to: 0
  7958   0004F8  2980               	incf	___flmul@bexp& (0+255),w,b
  7959   0004FA  A4D8               	btfss	status,2,c
  7960   0004FC  EF82  F002         	goto	u3431
  7961   000500  EF84  F002         	goto	u3430
  7962   000504                     u3431:
  7963   000504  EF8C  F002         	goto	l3183
  7964   000508                     u3430:
  7965   000508                     
  7966                           ; BSR set to: 0
  7967   000508  0E00               	movlw	0
  7968   00050A  6F6E               	movwf	___flmul@b& (0+255),b
  7969   00050C  0E00               	movlw	0
  7970   00050E  6F6F               	movwf	(___flmul@b+1)& (0+255),b
  7971   000510  0E00               	movlw	0
  7972   000512  6F70               	movwf	(___flmul@b+2)& (0+255),b
  7973   000514  0E00               	movlw	0
  7974   000516  6F71               	movwf	(___flmul@b+3)& (0+255),b
  7975   000518                     l3183:
  7976                           
  7977                           ; BSR set to: 0
  7978   000518  8F70               	bsf	(___flmul@b+2)& (0+255),7,b
  7979   00051A  EF97  F002         	goto	l3187
  7980   00051E                     l3185:
  7981                           
  7982                           ; BSR set to: 0
  7983   00051E  0E00               	movlw	0
  7984   000520  6F6E               	movwf	___flmul@b& (0+255),b
  7985   000522  0E00               	movlw	0
  7986   000524  6F6F               	movwf	(___flmul@b+1)& (0+255),b
  7987   000526  0E00               	movlw	0
  7988   000528  6F70               	movwf	(___flmul@b+2)& (0+255),b
  7989   00052A  0E00               	movlw	0
  7990   00052C  6F71               	movwf	(___flmul@b+3)& (0+255),b
  7991   00052E                     l3187:
  7992                           
  7993                           ; BSR set to: 0
  7994   00052E  5175               	movf	(___flmul@a+3)& (0+255),w,b
  7995   000530  0B80               	andlw	128
  7996   000532  1B7A               	xorwf	___flmul@sign& (0+255),f,b
  7997   000534                     
  7998                           ; BSR set to: 0
  7999   000534  5175               	movf	(___flmul@a+3)& (0+255),w,b
  8000   000536  2575               	addwf	(___flmul@a+3)& (0+255),w,b
  8001   000538  6F7F               	movwf	___flmul@aexp& (0+255),b
  8002   00053A                     
  8003                           ; BSR set to: 0
  8004   00053A  AF74               	btfss	(___flmul@a+2)& (0+255),7,b
  8005   00053C  EFA2  F002         	goto	u3441
  8006   000540  EFA4  F002         	goto	u3440
  8007   000544                     u3441:
  8008   000544  EFA5  F002         	goto	l3195
  8009   000548                     u3440:
  8010   000548                     
  8011                           ; BSR set to: 0
  8012   000548  817F               	bsf	___flmul@aexp& (0+255),0,b
  8013   00054A                     l3195:
  8014                           
  8015                           ; BSR set to: 0
  8016   00054A  517F               	movf	___flmul@aexp& (0+255),w,b
  8017   00054C  B4D8               	btfsc	status,2,c
  8018   00054E  EFAB  F002         	goto	u3451
  8019   000552  EFAD  F002         	goto	u3450
  8020   000556                     u3451:
  8021   000556  EFC0  F002         	goto	l3203
  8022   00055A                     u3450:
  8023   00055A                     
  8024                           ; BSR set to: 0
  8025   00055A  297F               	incf	___flmul@aexp& (0+255),w,b
  8026   00055C  A4D8               	btfss	status,2,c
  8027   00055E  EFB3  F002         	goto	u3461
  8028   000562  EFB5  F002         	goto	u3460
  8029   000566                     u3461:
  8030   000566  EFBD  F002         	goto	l3201
  8031   00056A                     u3460:
  8032   00056A                     
  8033                           ; BSR set to: 0
  8034   00056A  0E00               	movlw	0
  8035   00056C  6F72               	movwf	___flmul@a& (0+255),b
  8036   00056E  0E00               	movlw	0
  8037   000570  6F73               	movwf	(___flmul@a+1)& (0+255),b
  8038   000572  0E00               	movlw	0
  8039   000574  6F74               	movwf	(___flmul@a+2)& (0+255),b
  8040   000576  0E00               	movlw	0
  8041   000578  6F75               	movwf	(___flmul@a+3)& (0+255),b
  8042   00057A                     l3201:
  8043                           
  8044                           ; BSR set to: 0
  8045   00057A  8F74               	bsf	(___flmul@a+2)& (0+255),7,b
  8046   00057C  EFC8  F002         	goto	l960
  8047   000580                     l3203:
  8048                           
  8049                           ; BSR set to: 0
  8050   000580  0E00               	movlw	0
  8051   000582  6F72               	movwf	___flmul@a& (0+255),b
  8052   000584  0E00               	movlw	0
  8053   000586  6F73               	movwf	(___flmul@a+1)& (0+255),b
  8054   000588  0E00               	movlw	0
  8055   00058A  6F74               	movwf	(___flmul@a+2)& (0+255),b
  8056   00058C  0E00               	movlw	0
  8057   00058E  6F75               	movwf	(___flmul@a+3)& (0+255),b
  8058   000590                     l960:
  8059                           
  8060                           ; BSR set to: 0
  8061   000590  517F               	movf	___flmul@aexp& (0+255),w,b
  8062   000592  B4D8               	btfsc	status,2,c
  8063   000594  EFCE  F002         	goto	u3471
  8064   000598  EFD0  F002         	goto	u3470
  8065   00059C                     u3471:
  8066   00059C  EFD8  F002         	goto	l3207
  8067   0005A0                     u3470:
  8068   0005A0                     
  8069                           ; BSR set to: 0
  8070   0005A0  5180               	movf	___flmul@bexp& (0+255),w,b
  8071   0005A2  A4D8               	btfss	status,2,c
  8072   0005A4  EFD6  F002         	goto	u3481
  8073   0005A8  EFD8  F002         	goto	u3480
  8074   0005AC                     u3481:
  8075   0005AC  EFE2  F002         	goto	l3211
  8076   0005B0                     u3480:
  8077   0005B0                     l3207:
  8078                           
  8079                           ; BSR set to: 0
  8080   0005B0  0E00               	movlw	0
  8081   0005B2  6F6E               	movwf	?___flmul& (0+255),b
  8082   0005B4  0E00               	movlw	0
  8083   0005B6  6F6F               	movwf	(?___flmul+1)& (0+255),b
  8084   0005B8  0E00               	movlw	0
  8085   0005BA  6F70               	movwf	(?___flmul+2)& (0+255),b
  8086   0005BC  0E00               	movlw	0
  8087   0005BE  6F71               	movwf	(?___flmul+3)& (0+255),b
  8088   0005C0  EF78  F004         	goto	l964
  8089   0005C4                     l3211:
  8090                           
  8091                           ; BSR set to: 0
  8092   0005C4  5174               	movf	(___flmul@a+2)& (0+255),w,b
  8093   0005C6  036E               	mulwf	___flmul@b& (0+255),b
  8094   0005C8  CFF3 F085          	movff	prodl,___flmul@temp
  8095   0005CC  CFF4 F086          	movff	prodh,___flmul@temp+1
  8096   0005D0                     
  8097                           ; BSR set to: 0
  8098   0005D0  5185               	movf	___flmul@temp& (0+255),w,b
  8099   0005D2  6F7B               	movwf	___flmul@grs& (0+255),b
  8100   0005D4  6B7C               	clrf	(___flmul@grs+1)& (0+255),b
  8101   0005D6  6B7D               	clrf	(___flmul@grs+2)& (0+255),b
  8102   0005D8  6B7E               	clrf	(___flmul@grs+3)& (0+255),b
  8103   0005DA                     
  8104                           ; BSR set to: 0
  8105   0005DA  5186               	movf	(___flmul@temp+1)& (0+255),w,b
  8106   0005DC  6F81               	movwf	___flmul@prod& (0+255),b
  8107   0005DE  6B82               	clrf	(___flmul@prod+1)& (0+255),b
  8108   0005E0  6B83               	clrf	(___flmul@prod+2)& (0+255),b
  8109   0005E2  6B84               	clrf	(___flmul@prod+3)& (0+255),b
  8110   0005E4  5173               	movf	(___flmul@a+1)& (0+255),w,b
  8111   0005E6  036F               	mulwf	(___flmul@b+1)& (0+255),b
  8112   0005E8  CFF3 F085          	movff	prodl,___flmul@temp
  8113   0005EC  CFF4 F086          	movff	prodh,___flmul@temp+1
  8114   0005F0                     
  8115                           ; BSR set to: 0
  8116   0005F0  5185               	movf	___flmul@temp& (0+255),w,b
  8117   0005F2  277B               	addwf	___flmul@grs& (0+255),f,b
  8118   0005F4  0E00               	movlw	0
  8119   0005F6  237C               	addwfc	(___flmul@grs+1)& (0+255),f,b
  8120   0005F8  237D               	addwfc	(___flmul@grs+2)& (0+255),f,b
  8121   0005FA  237E               	addwfc	(___flmul@grs+3)& (0+255),f,b
  8122   0005FC                     
  8123                           ; BSR set to: 0
  8124   0005FC  5186               	movf	(___flmul@temp+1)& (0+255),w,b
  8125   0005FE  2781               	addwf	___flmul@prod& (0+255),f,b
  8126   000600  0E00               	movlw	0
  8127   000602  2382               	addwfc	(___flmul@prod+1)& (0+255),f,b
  8128   000604  2383               	addwfc	(___flmul@prod+2)& (0+255),f,b
  8129   000606  2384               	addwfc	(___flmul@prod+3)& (0+255),f,b
  8130   000608  5172               	movf	___flmul@a& (0+255),w,b
  8131   00060A  0370               	mulwf	(___flmul@b+2)& (0+255),b
  8132   00060C  CFF3 F085          	movff	prodl,___flmul@temp
  8133   000610  CFF4 F086          	movff	prodh,___flmul@temp+1
  8134   000614                     
  8135                           ; BSR set to: 0
  8136   000614  5185               	movf	___flmul@temp& (0+255),w,b
  8137   000616  277B               	addwf	___flmul@grs& (0+255),f,b
  8138   000618  0E00               	movlw	0
  8139   00061A  237C               	addwfc	(___flmul@grs+1)& (0+255),f,b
  8140   00061C  237D               	addwfc	(___flmul@grs+2)& (0+255),f,b
  8141   00061E  237E               	addwfc	(___flmul@grs+3)& (0+255),f,b
  8142   000620                     
  8143                           ; BSR set to: 0
  8144   000620  5186               	movf	(___flmul@temp+1)& (0+255),w,b
  8145   000622  2781               	addwf	___flmul@prod& (0+255),f,b
  8146   000624  0E00               	movlw	0
  8147   000626  2382               	addwfc	(___flmul@prod+1)& (0+255),f,b
  8148   000628  2383               	addwfc	(___flmul@prod+2)& (0+255),f,b
  8149   00062A  2384               	addwfc	(___flmul@prod+3)& (0+255),f,b
  8150   00062C                     
  8151                           ; BSR set to: 0
  8152   00062C  C07D  F07E         	movff	___flmul@grs+2,___flmul@grs+3
  8153   000630  C07C  F07D         	movff	___flmul@grs+1,___flmul@grs+2
  8154   000634  C07B  F07C         	movff	___flmul@grs,___flmul@grs+1
  8155   000638  6B7B               	clrf	___flmul@grs& (0+255),b
  8156   00063A                     
  8157                           ; BSR set to: 0
  8158   00063A  5172               	movf	___flmul@a& (0+255),w,b
  8159   00063C  036F               	mulwf	(___flmul@b+1)& (0+255),b
  8160   00063E  CFF3 F085          	movff	prodl,___flmul@temp
  8161   000642  CFF4 F086          	movff	prodh,___flmul@temp+1
  8162   000646                     
  8163                           ; BSR set to: 0
  8164   000646  5185               	movf	___flmul@temp& (0+255),w,b
  8165   000648  277B               	addwf	___flmul@grs& (0+255),f,b
  8166   00064A  5186               	movf	(___flmul@temp+1)& (0+255),w,b
  8167   00064C  237C               	addwfc	(___flmul@grs+1)& (0+255),f,b
  8168   00064E  0E00               	movlw	0
  8169   000650  237D               	addwfc	(___flmul@grs+2)& (0+255),f,b
  8170   000652  0E00               	movlw	0
  8171   000654  237E               	addwfc	(___flmul@grs+3)& (0+255),f,b
  8172   000656                     
  8173                           ; BSR set to: 0
  8174   000656  5173               	movf	(___flmul@a+1)& (0+255),w,b
  8175   000658  036E               	mulwf	___flmul@b& (0+255),b
  8176   00065A  CFF3 F085          	movff	prodl,___flmul@temp
  8177   00065E  CFF4 F086          	movff	prodh,___flmul@temp+1
  8178   000662                     
  8179                           ; BSR set to: 0
  8180   000662  5185               	movf	___flmul@temp& (0+255),w,b
  8181   000664  277B               	addwf	___flmul@grs& (0+255),f,b
  8182   000666  5186               	movf	(___flmul@temp+1)& (0+255),w,b
  8183   000668  237C               	addwfc	(___flmul@grs+1)& (0+255),f,b
  8184   00066A  0E00               	movlw	0
  8185   00066C  237D               	addwfc	(___flmul@grs+2)& (0+255),f,b
  8186   00066E  0E00               	movlw	0
  8187   000670  237E               	addwfc	(___flmul@grs+3)& (0+255),f,b
  8188   000672                     
  8189                           ; BSR set to: 0
  8190   000672  C07D  F07E         	movff	___flmul@grs+2,___flmul@grs+3
  8191   000676  C07C  F07D         	movff	___flmul@grs+1,___flmul@grs+2
  8192   00067A  C07B  F07C         	movff	___flmul@grs,___flmul@grs+1
  8193   00067E  6B7B               	clrf	___flmul@grs& (0+255),b
  8194   000680  5172               	movf	___flmul@a& (0+255),w,b
  8195   000682  036E               	mulwf	___flmul@b& (0+255),b
  8196   000684  CFF3 F085          	movff	prodl,___flmul@temp
  8197   000688  CFF4 F086          	movff	prodh,___flmul@temp+1
  8198   00068C                     
  8199                           ; BSR set to: 0
  8200   00068C  5185               	movf	___flmul@temp& (0+255),w,b
  8201   00068E  277B               	addwf	___flmul@grs& (0+255),f,b
  8202   000690  5186               	movf	(___flmul@temp+1)& (0+255),w,b
  8203   000692  237C               	addwfc	(___flmul@grs+1)& (0+255),f,b
  8204   000694  0E00               	movlw	0
  8205   000696  237D               	addwfc	(___flmul@grs+2)& (0+255),f,b
  8206   000698  0E00               	movlw	0
  8207   00069A  237E               	addwfc	(___flmul@grs+3)& (0+255),f,b
  8208   00069C                     
  8209                           ; BSR set to: 0
  8210   00069C  5174               	movf	(___flmul@a+2)& (0+255),w,b
  8211   00069E  036F               	mulwf	(___flmul@b+1)& (0+255),b
  8212   0006A0  CFF3 F085          	movff	prodl,___flmul@temp
  8213   0006A4  CFF4 F086          	movff	prodh,___flmul@temp+1
  8214   0006A8  5185               	movf	___flmul@temp& (0+255),w,b
  8215   0006AA  2781               	addwf	___flmul@prod& (0+255),f,b
  8216   0006AC  5186               	movf	(___flmul@temp+1)& (0+255),w,b
  8217   0006AE  2382               	addwfc	(___flmul@prod+1)& (0+255),f,b
  8218   0006B0  0E00               	movlw	0
  8219   0006B2  2383               	addwfc	(___flmul@prod+2)& (0+255),f,b
  8220   0006B4  0E00               	movlw	0
  8221   0006B6  2384               	addwfc	(___flmul@prod+3)& (0+255),f,b
  8222   0006B8                     
  8223                           ; BSR set to: 0
  8224   0006B8  5173               	movf	(___flmul@a+1)& (0+255),w,b
  8225   0006BA  0370               	mulwf	(___flmul@b+2)& (0+255),b
  8226   0006BC  CFF3 F085          	movff	prodl,___flmul@temp
  8227   0006C0  CFF4 F086          	movff	prodh,___flmul@temp+1
  8228   0006C4                     
  8229                           ; BSR set to: 0
  8230   0006C4  5185               	movf	___flmul@temp& (0+255),w,b
  8231   0006C6  2781               	addwf	___flmul@prod& (0+255),f,b
  8232   0006C8  5186               	movf	(___flmul@temp+1)& (0+255),w,b
  8233   0006CA  2382               	addwfc	(___flmul@prod+1)& (0+255),f,b
  8234   0006CC  0E00               	movlw	0
  8235   0006CE  2383               	addwfc	(___flmul@prod+2)& (0+255),f,b
  8236   0006D0  0E00               	movlw	0
  8237   0006D2  2384               	addwfc	(___flmul@prod+3)& (0+255),f,b
  8238   0006D4  5174               	movf	(___flmul@a+2)& (0+255),w,b
  8239   0006D6  0370               	mulwf	(___flmul@b+2)& (0+255),b
  8240   0006D8  CFF3 F085          	movff	prodl,___flmul@temp
  8241   0006DC  CFF4 F086          	movff	prodh,___flmul@temp+1
  8242   0006E0                     
  8243                           ; BSR set to: 0
  8244   0006E0  5185               	movf	___flmul@temp& (0+255),w,b
  8245   0006E2  6F76               	movwf	??___flmul& (0+255),b
  8246   0006E4  5186               	movf	(___flmul@temp+1)& (0+255),w,b
  8247   0006E6  6F77               	movwf	(??___flmul+1)& (0+255),b
  8248   0006E8  6B78               	clrf	(??___flmul+2)& (0+255),b
  8249   0006EA  6B79               	clrf	(??___flmul+3)& (0+255),b
  8250   0006EC  C078  F079         	movff	??___flmul+2,??___flmul+3
  8251   0006F0  C077  F078         	movff	??___flmul+1,??___flmul+2
  8252   0006F4  C076  F077         	movff	??___flmul,??___flmul+1
  8253   0006F8  6B76               	clrf	??___flmul& (0+255),b
  8254   0006FA  5176               	movf	??___flmul& (0+255),w,b
  8255   0006FC  2781               	addwf	___flmul@prod& (0+255),f,b
  8256   0006FE  5177               	movf	(??___flmul+1)& (0+255),w,b
  8257   000700  2382               	addwfc	(___flmul@prod+1)& (0+255),f,b
  8258   000702  5178               	movf	(??___flmul+2)& (0+255),w,b
  8259   000704  2383               	addwfc	(___flmul@prod+2)& (0+255),f,b
  8260   000706  5179               	movf	(??___flmul+3)& (0+255),w,b
  8261   000708  2384               	addwfc	(___flmul@prod+3)& (0+255),f,b
  8262   00070A                     
  8263                           ; BSR set to: 0
  8264   00070A  C07B  F076         	movff	___flmul@grs,??___flmul
  8265   00070E  C07C  F077         	movff	___flmul@grs+1,??___flmul+1
  8266   000712  C07D  F078         	movff	___flmul@grs+2,??___flmul+2
  8267   000716  C07E  F079         	movff	___flmul@grs+3,??___flmul+3
  8268   00071A  0E19               	movlw	25
  8269   00071C  EF95  F003         	goto	u3490
  8270   000720                     u3495:
  8271   000720  90D8               	bcf	status,0,c
  8272   000722  3379               	rrcf	(??___flmul+3)& (0+255),f,b
  8273   000724  3378               	rrcf	(??___flmul+2)& (0+255),f,b
  8274   000726  3377               	rrcf	(??___flmul+1)& (0+255),f,b
  8275   000728  3376               	rrcf	??___flmul& (0+255),f,b
  8276   00072A                     u3490:
  8277   00072A  2EE8               	decfsz	wreg,f,c
  8278   00072C  EF90  F003         	goto	u3495
  8279   000730  5176               	movf	??___flmul& (0+255),w,b
  8280   000732  2781               	addwf	___flmul@prod& (0+255),f,b
  8281   000734  5177               	movf	(??___flmul+1)& (0+255),w,b
  8282   000736  2382               	addwfc	(___flmul@prod+1)& (0+255),f,b
  8283   000738  5178               	movf	(??___flmul+2)& (0+255),w,b
  8284   00073A  2383               	addwfc	(___flmul@prod+2)& (0+255),f,b
  8285   00073C  5179               	movf	(??___flmul+3)& (0+255),w,b
  8286   00073E  2384               	addwfc	(___flmul@prod+3)& (0+255),f,b
  8287   000740                     
  8288                           ; BSR set to: 0
  8289   000740  C07D  F07E         	movff	___flmul@grs+2,___flmul@grs+3
  8290   000744  C07C  F07D         	movff	___flmul@grs+1,___flmul@grs+2
  8291   000748  C07B  F07C         	movff	___flmul@grs,___flmul@grs+1
  8292   00074C  6B7B               	clrf	___flmul@grs& (0+255),b
  8293   00074E                     
  8294                           ; BSR set to: 0
  8295   00074E  517F               	movf	___flmul@aexp& (0+255),w,b
  8296   000750  C080  F076         	movff	___flmul@bexp,??___flmul
  8297   000754  6B77               	clrf	(??___flmul+1)& (0+255),b
  8298   000756  2776               	addwf	??___flmul& (0+255),f,b
  8299   000758  0E00               	movlw	0
  8300   00075A  2377               	addwfc	(??___flmul+1)& (0+255),f,b
  8301   00075C  0E82               	movlw	130
  8302   00075E  2576               	addwf	??___flmul& (0+255),w,b
  8303   000760  6F85               	movwf	___flmul@temp& (0+255),b
  8304   000762  0EFF               	movlw	255
  8305   000764  2177               	addwfc	(??___flmul+1)& (0+255),w,b
  8306   000766  6F86               	movwf	(___flmul@temp+1)& (0+255),b
  8307   000768  EFCB  F003         	goto	l3259
  8308   00076C                     l3253:
  8309                           
  8310                           ; BSR set to: 0
  8311   00076C  90D8               	bcf	status,0,c
  8312   00076E  3781               	rlcf	___flmul@prod& (0+255),f,b
  8313   000770  3782               	rlcf	(___flmul@prod+1)& (0+255),f,b
  8314   000772  3783               	rlcf	(___flmul@prod+2)& (0+255),f,b
  8315   000774  3784               	rlcf	(___flmul@prod+3)& (0+255),f,b
  8316   000776                     
  8317                           ; BSR set to: 0
  8318   000776  AF7E               	btfss	(___flmul@grs+3)& (0+255),7,b
  8319   000778  EFC0  F003         	goto	u3501
  8320   00077C  EFC2  F003         	goto	u3500
  8321   000780                     u3501:
  8322   000780  EFC3  F003         	goto	l967
  8323   000784                     u3500:
  8324   000784                     
  8325                           ; BSR set to: 0
  8326   000784  8181               	bsf	___flmul@prod& (0+255),0,b
  8327   000786                     l967:
  8328                           
  8329                           ; BSR set to: 0
  8330   000786  90D8               	bcf	status,0,c
  8331   000788  377B               	rlcf	___flmul@grs& (0+255),f,b
  8332   00078A  377C               	rlcf	(___flmul@grs+1)& (0+255),f,b
  8333   00078C  377D               	rlcf	(___flmul@grs+2)& (0+255),f,b
  8334   00078E  377E               	rlcf	(___flmul@grs+3)& (0+255),f,b
  8335   000790  0785               	decf	___flmul@temp& (0+255),f,b
  8336   000792  A0D8               	btfss	status,0,c
  8337   000794  0786               	decf	(___flmul@temp+1)& (0+255),f,b
  8338   000796                     l3259:
  8339                           
  8340                           ; BSR set to: 0
  8341   000796  AF83               	btfss	(___flmul@prod+2)& (0+255),7,b
  8342   000798  EFD0  F003         	goto	u3511
  8343   00079C  EFD2  F003         	goto	u3510
  8344   0007A0                     u3511:
  8345   0007A0  EFB6  F003         	goto	l3253
  8346   0007A4                     u3510:
  8347   0007A4                     
  8348                           ; BSR set to: 0
  8349   0007A4  6B7F               	clrf	___flmul@aexp& (0+255),b
  8350   0007A6  AF7E               	btfss	(___flmul@grs+3)& (0+255),7,b
  8351   0007A8  EFD8  F003         	goto	u3521
  8352   0007AC  EFDA  F003         	goto	u3520
  8353   0007B0                     u3521:
  8354   0007B0  EFFE  F003         	goto	l969
  8355   0007B4                     u3520:
  8356   0007B4                     
  8357                           ; BSR set to: 0
  8358   0007B4  0EFF               	movlw	255
  8359   0007B6  157B               	andwf	___flmul@grs& (0+255),w,b
  8360   0007B8  6F76               	movwf	??___flmul& (0+255),b
  8361   0007BA  0EFF               	movlw	255
  8362   0007BC  157C               	andwf	(___flmul@grs+1)& (0+255),w,b
  8363   0007BE  6F77               	movwf	(??___flmul+1)& (0+255),b
  8364   0007C0  0EFF               	movlw	255
  8365   0007C2  157D               	andwf	(___flmul@grs+2)& (0+255),w,b
  8366   0007C4  6F78               	movwf	(??___flmul+2)& (0+255),b
  8367   0007C6  0E7F               	movlw	127
  8368   0007C8  157E               	andwf	(___flmul@grs+3)& (0+255),w,b
  8369   0007CA  6F79               	movwf	(??___flmul+3)& (0+255),b
  8370   0007CC  5176               	movf	??___flmul& (0+255),w,b
  8371   0007CE  1177               	iorwf	(??___flmul+1)& (0+255),w,b
  8372   0007D0  1178               	iorwf	(??___flmul+2)& (0+255),w,b
  8373   0007D2  1179               	iorwf	(??___flmul+3)& (0+255),w,b
  8374   0007D4  B4D8               	btfsc	status,2,c
  8375   0007D6  EFEF  F003         	goto	u3531
  8376   0007DA  EFF1  F003         	goto	u3530
  8377   0007DE                     u3531:
  8378   0007DE  EFF5  F003         	goto	l970
  8379   0007E2                     u3530:
  8380   0007E2                     l3263:
  8381                           
  8382                           ; BSR set to: 0
  8383   0007E2  0E01               	movlw	1
  8384   0007E4  6F7F               	movwf	___flmul@aexp& (0+255),b
  8385   0007E6  EFFE  F003         	goto	l969
  8386   0007EA                     l970:
  8387                           
  8388                           ; BSR set to: 0
  8389   0007EA  A181               	btfss	___flmul@prod& (0+255),0,b
  8390   0007EC  EFFA  F003         	goto	u3541
  8391   0007F0  EFFC  F003         	goto	u3540
  8392   0007F4                     u3541:
  8393   0007F4  EFFE  F003         	goto	l969
  8394   0007F8                     u3540:
  8395   0007F8  EFF1  F003         	goto	l3263
  8396   0007FC                     l969:
  8397                           
  8398                           ; BSR set to: 0
  8399   0007FC  517F               	movf	___flmul@aexp& (0+255),w,b
  8400   0007FE  B4D8               	btfsc	status,2,c
  8401   000800  EF04  F004         	goto	u3551
  8402   000804  EF06  F004         	goto	u3550
  8403   000808                     u3551:
  8404   000808  EF2A  F004         	goto	l3275
  8405   00080C                     u3550:
  8406   00080C                     
  8407                           ; BSR set to: 0
  8408   00080C  0E01               	movlw	1
  8409   00080E  2781               	addwf	___flmul@prod& (0+255),f,b
  8410   000810  0E00               	movlw	0
  8411   000812  2382               	addwfc	(___flmul@prod+1)& (0+255),f,b
  8412   000814  2383               	addwfc	(___flmul@prod+2)& (0+255),f,b
  8413   000816  2384               	addwfc	(___flmul@prod+3)& (0+255),f,b
  8414   000818                     
  8415                           ; BSR set to: 0
  8416   000818  A184               	btfss	(___flmul@prod+3)& (0+255),0,b
  8417   00081A  EF11  F004         	goto	u3561
  8418   00081E  EF13  F004         	goto	u3560
  8419   000822                     u3561:
  8420   000822  EF2A  F004         	goto	l3275
  8421   000826                     u3560:
  8422   000826                     
  8423                           ; BSR set to: 0
  8424   000826  C081  F076         	movff	___flmul@prod,??___flmul
  8425   00082A  C082  F077         	movff	___flmul@prod+1,??___flmul+1
  8426   00082E  C083  F078         	movff	___flmul@prod+2,??___flmul+2
  8427   000832  C084  F079         	movff	___flmul@prod+3,??___flmul+3
  8428   000836  3579               	rlcf	(??___flmul+3)& (0+255),w,b
  8429   000838  3379               	rrcf	(??___flmul+3)& (0+255),f,b
  8430   00083A  3378               	rrcf	(??___flmul+2)& (0+255),f,b
  8431   00083C  3377               	rrcf	(??___flmul+1)& (0+255),f,b
  8432   00083E  3376               	rrcf	??___flmul& (0+255),f,b
  8433   000840  C076  F081         	movff	??___flmul,___flmul@prod
  8434   000844  C077  F082         	movff	??___flmul+1,___flmul@prod+1
  8435   000848  C078  F083         	movff	??___flmul+2,___flmul@prod+2
  8436   00084C  C079  F084         	movff	??___flmul+3,___flmul@prod+3
  8437   000850                     
  8438                           ; BSR set to: 0
  8439   000850  4B85               	infsnz	___flmul@temp& (0+255),f,b
  8440   000852  2B86               	incf	(___flmul@temp+1)& (0+255),f,b
  8441   000854                     l3275:
  8442                           
  8443                           ; BSR set to: 0
  8444   000854  BF86               	btfsc	(___flmul@temp+1)& (0+255),7,b
  8445   000856  EF35  F004         	goto	u3571
  8446   00085A  5186               	movf	(___flmul@temp+1)& (0+255),w,b
  8447   00085C  E108               	bnz	u3570
  8448   00085E  2985               	incf	___flmul@temp& (0+255),w,b
  8449   000860  A0D8               	btfss	status,0,c
  8450   000862  EF35  F004         	goto	u3571
  8451   000866  EF37  F004         	goto	u3570
  8452   00086A                     u3571:
  8453   00086A  EF41  F004         	goto	l3279
  8454   00086E                     u3570:
  8455   00086E                     
  8456                           ; BSR set to: 0
  8457   00086E  0E00               	movlw	0
  8458   000870  6F81               	movwf	___flmul@prod& (0+255),b
  8459   000872  0E00               	movlw	0
  8460   000874  6F82               	movwf	(___flmul@prod+1)& (0+255),b
  8461   000876  0E80               	movlw	128
  8462   000878  6F83               	movwf	(___flmul@prod+2)& (0+255),b
  8463   00087A  0E7F               	movlw	127
  8464   00087C  6F84               	movwf	(___flmul@prod+3)& (0+255),b
  8465   00087E  EF6E  F004         	goto	l3293
  8466   000882                     l3279:
  8467                           
  8468                           ; BSR set to: 0
  8469   000882  BF86               	btfsc	(___flmul@temp+1)& (0+255),7,b
  8470   000884  EF4E  F004         	goto	u3580
  8471   000888  5186               	movf	(___flmul@temp+1)& (0+255),w,b
  8472   00088A  E106               	bnz	u3581
  8473   00088C  0585               	decf	___flmul@temp& (0+255),w,b
  8474   00088E  B0D8               	btfsc	status,0,c
  8475   000890  EF4C  F004         	goto	u3581
  8476   000894  EF4E  F004         	goto	u3580
  8477   000898                     u3581:
  8478   000898  EF59  F004         	goto	l977
  8479   00089C                     u3580:
  8480   00089C                     
  8481                           ; BSR set to: 0
  8482   00089C  0E00               	movlw	0
  8483   00089E  6F81               	movwf	___flmul@prod& (0+255),b
  8484   0008A0  0E00               	movlw	0
  8485   0008A2  6F82               	movwf	(___flmul@prod+1)& (0+255),b
  8486   0008A4  0E00               	movlw	0
  8487   0008A6  6F83               	movwf	(___flmul@prod+2)& (0+255),b
  8488   0008A8  0E00               	movlw	0
  8489   0008AA  6F84               	movwf	(___flmul@prod+3)& (0+255),b
  8490   0008AC                     
  8491                           ; BSR set to: 0
  8492   0008AC  6B7A               	clrf	___flmul@sign& (0+255),b
  8493   0008AE  EF6E  F004         	goto	l3293
  8494   0008B2                     l977:
  8495                           
  8496                           ; BSR set to: 0
  8497   0008B2  C085  F080         	movff	___flmul@temp,___flmul@bexp
  8498   0008B6                     
  8499                           ; BSR set to: 0
  8500   0008B6  0EFF               	movlw	255
  8501   0008B8  1781               	andwf	___flmul@prod& (0+255),f,b
  8502   0008BA  0EFF               	movlw	255
  8503   0008BC  1782               	andwf	(___flmul@prod+1)& (0+255),f,b
  8504   0008BE  0E7F               	movlw	127
  8505   0008C0  1783               	andwf	(___flmul@prod+2)& (0+255),f,b
  8506   0008C2  0E00               	movlw	0
  8507   0008C4  1784               	andwf	(___flmul@prod+3)& (0+255),f,b
  8508   0008C6                     
  8509                           ; BSR set to: 0
  8510   0008C6  A180               	btfss	___flmul@bexp& (0+255),0,b
  8511   0008C8  EF68  F004         	goto	u3591
  8512   0008CC  EF6A  F004         	goto	u3590
  8513   0008D0                     u3591:
  8514   0008D0  EF6B  F004         	goto	l3291
  8515   0008D4                     u3590:
  8516   0008D4                     
  8517                           ; BSR set to: 0
  8518   0008D4  8F83               	bsf	(___flmul@prod+2)& (0+255),7,b
  8519   0008D6                     l3291:
  8520                           
  8521                           ; BSR set to: 0
  8522   0008D6  90D8               	bcf	status,0,c
  8523   0008D8  3180               	rrcf	___flmul@bexp& (0+255),w,b
  8524   0008DA  6F84               	movwf	(___flmul@prod+3)& (0+255),b
  8525   0008DC                     l3293:
  8526                           
  8527                           ; BSR set to: 0
  8528   0008DC  517A               	movf	___flmul@sign& (0+255),w,b
  8529   0008DE  1384               	iorwf	(___flmul@prod+3)& (0+255),f,b
  8530   0008E0                     
  8531                           ; BSR set to: 0
  8532   0008E0  C081  F06E         	movff	___flmul@prod,?___flmul
  8533   0008E4  C082  F06F         	movff	___flmul@prod+1,?___flmul+1
  8534   0008E8  C083  F070         	movff	___flmul@prod+2,?___flmul+2
  8535   0008EC  C084  F071         	movff	___flmul@prod+3,?___flmul+3
  8536   0008F0                     l964:
  8537                           
  8538                           ; BSR set to: 0
  8539   0008F0  0012               	return		;funcret
  8540   0008F2                     __end_of___flmul:
  8541                           	callstack 0
  8542                           
  8543 ;; *************** function ___fldiv *****************
  8544 ;; Defined at:
  8545 ;;		line 11 in file "C:\Program Files\Microchip\xc8\v3.00\pic\sources\c99\common\sprcdiv.c"
  8546 ;; Parameters:    Size  Location     Type
  8547 ;;  b               4   55[BANK0 ] unsigned char 
  8548 ;;  a               4   59[BANK0 ] unsigned char 
  8549 ;; Auto vars:     Size  Location     Type
  8550 ;;  grs             4   74[BANK0 ] unsigned long 
  8551 ;;  rem             4   67[BANK0 ] unsigned long 
  8552 ;;  new_exp         2   72[BANK0 ] short 
  8553 ;;  aexp            1   79[BANK0 ] unsigned char 
  8554 ;;  bexp            1   78[BANK0 ] unsigned char 
  8555 ;;  sign            1   71[BANK0 ] unsigned char 
  8556 ;; Return value:  Size  Location     Type
  8557 ;;                  4   55[BANK0 ] unsigned char 
  8558 ;; Registers used:
  8559 ;;		wreg, status,2, status,0
  8560 ;; Tracked objects:
  8561 ;;		On entry : 0/0
  8562 ;;		On exit  : 0/0
  8563 ;;		Unchanged: 0/0
  8564 ;; Data sizes:     COMRAM   BANK0   BANK1   BANK2   BANK3   BANK4   BANK5   BANK6   BANK7
  8565 ;;      Params:         0       8       0       0       0       0       0       0       0
  8566 ;;      Locals:         0      13       0       0       0       0       0       0       0
  8567 ;;      Temps:          0       4       0       0       0       0       0       0       0
  8568 ;;      Totals:         0      25       0       0       0       0       0       0       0
  8569 ;;Total ram usage:       25 bytes
  8570 ;; Hardware stack levels used: 1
  8571 ;; Hardware stack levels required when called: 7
  8572 ;; This function calls:
  8573 ;;		Nothing
  8574 ;; This function is called by:
  8575 ;;		_GY_ADC
  8576 ;;		_R
  8577 ;; This function uses a non-reentrant model
  8578 ;;
  8579                           
  8580                           	psect	text40
  8581   001468                     __ptext40:
  8582                           	callstack 0
  8583   001468                     ___fldiv:
  8584                           	callstack 20
  8585   001468  0100               	movlb	0	; () banked
  8586   00146A  519A               	movf	(___fldiv@b+3)& (0+255),w,b
  8587   00146C  0B80               	andlw	128
  8588   00146E  6FA7               	movwf	___fldiv@sign& (0+255),b
  8589   001470  519A               	movf	(___fldiv@b+3)& (0+255),w,b
  8590   001472  259A               	addwf	(___fldiv@b+3)& (0+255),w,b
  8591   001474  6FAE               	movwf	___fldiv@bexp& (0+255),b
  8592   001476                     
  8593                           ; BSR set to: 0
  8594   001476  AF99               	btfss	(___fldiv@b+2)& (0+255),7,b
  8595   001478  EF40  F00A         	goto	u3181
  8596   00147C  EF42  F00A         	goto	u3180
  8597   001480                     u3181:
  8598   001480  EF43  F00A         	goto	l3041
  8599   001484                     u3180:
  8600   001484                     
  8601                           ; BSR set to: 0
  8602   001484  81AE               	bsf	___fldiv@bexp& (0+255),0,b
  8603   001486                     l3041:
  8604                           
  8605                           ; BSR set to: 0
  8606   001486  51AE               	movf	___fldiv@bexp& (0+255),w,b
  8607   001488  B4D8               	btfsc	status,2,c
  8608   00148A  EF49  F00A         	goto	u3191
  8609   00148E  EF4B  F00A         	goto	u3190
  8610   001492                     u3191:
  8611   001492  EF5F  F00A         	goto	l3051
  8612   001496                     u3190:
  8613   001496                     
  8614                           ; BSR set to: 0
  8615   001496  29AE               	incf	___fldiv@bexp& (0+255),w,b
  8616   001498  A4D8               	btfss	status,2,c
  8617   00149A  EF51  F00A         	goto	u3201
  8618   00149E  EF53  F00A         	goto	u3200
  8619   0014A2                     u3201:
  8620   0014A2  EF5B  F00A         	goto	l3047
  8621   0014A6                     u3200:
  8622   0014A6                     
  8623                           ; BSR set to: 0
  8624   0014A6  0E00               	movlw	0
  8625   0014A8  6F97               	movwf	___fldiv@b& (0+255),b
  8626   0014AA  0E00               	movlw	0
  8627   0014AC  6F98               	movwf	(___fldiv@b+1)& (0+255),b
  8628   0014AE  0E00               	movlw	0
  8629   0014B0  6F99               	movwf	(___fldiv@b+2)& (0+255),b
  8630   0014B2  0E00               	movlw	0
  8631   0014B4  6F9A               	movwf	(___fldiv@b+3)& (0+255),b
  8632   0014B6                     l3047:
  8633                           
  8634                           ; BSR set to: 0
  8635   0014B6  8F99               	bsf	(___fldiv@b+2)& (0+255),7,b
  8636   0014B8                     
  8637                           ; BSR set to: 0
  8638   0014B8  6B9A               	clrf	(___fldiv@b+3)& (0+255),b
  8639   0014BA  EF67  F00A         	goto	l3053
  8640   0014BE                     l3051:
  8641                           
  8642                           ; BSR set to: 0
  8643   0014BE  0E00               	movlw	0
  8644   0014C0  6F97               	movwf	___fldiv@b& (0+255),b
  8645   0014C2  0E00               	movlw	0
  8646   0014C4  6F98               	movwf	(___fldiv@b+1)& (0+255),b
  8647   0014C6  0E00               	movlw	0
  8648   0014C8  6F99               	movwf	(___fldiv@b+2)& (0+255),b
  8649   0014CA  0E00               	movlw	0
  8650   0014CC  6F9A               	movwf	(___fldiv@b+3)& (0+255),b
  8651   0014CE                     l3053:
  8652                           
  8653                           ; BSR set to: 0
  8654   0014CE  519E               	movf	(___fldiv@a+3)& (0+255),w,b
  8655   0014D0  0B80               	andlw	128
  8656   0014D2  1BA7               	xorwf	___fldiv@sign& (0+255),f,b
  8657   0014D4                     
  8658                           ; BSR set to: 0
  8659   0014D4  519E               	movf	(___fldiv@a+3)& (0+255),w,b
  8660   0014D6  259E               	addwf	(___fldiv@a+3)& (0+255),w,b
  8661   0014D8  6FAF               	movwf	___fldiv@aexp& (0+255),b
  8662   0014DA                     
  8663                           ; BSR set to: 0
  8664   0014DA  AF9D               	btfss	(___fldiv@a+2)& (0+255),7,b
  8665   0014DC  EF72  F00A         	goto	u3211
  8666   0014E0  EF74  F00A         	goto	u3210
  8667   0014E4                     u3211:
  8668   0014E4  EF75  F00A         	goto	l3061
  8669   0014E8                     u3210:
  8670   0014E8                     
  8671                           ; BSR set to: 0
  8672   0014E8  81AF               	bsf	___fldiv@aexp& (0+255),0,b
  8673   0014EA                     l3061:
  8674                           
  8675                           ; BSR set to: 0
  8676   0014EA  51AF               	movf	___fldiv@aexp& (0+255),w,b
  8677   0014EC  B4D8               	btfsc	status,2,c
  8678   0014EE  EF7B  F00A         	goto	u3221
  8679   0014F2  EF7D  F00A         	goto	u3220
  8680   0014F6                     u3221:
  8681   0014F6  EF91  F00A         	goto	l3071
  8682   0014FA                     u3220:
  8683   0014FA                     
  8684                           ; BSR set to: 0
  8685   0014FA  29AF               	incf	___fldiv@aexp& (0+255),w,b
  8686   0014FC  A4D8               	btfss	status,2,c
  8687   0014FE  EF83  F00A         	goto	u3231
  8688   001502  EF85  F00A         	goto	u3230
  8689   001506                     u3231:
  8690   001506  EF8D  F00A         	goto	l3067
  8691   00150A                     u3230:
  8692   00150A                     
  8693                           ; BSR set to: 0
  8694   00150A  0E00               	movlw	0
  8695   00150C  6F9B               	movwf	___fldiv@a& (0+255),b
  8696   00150E  0E00               	movlw	0
  8697   001510  6F9C               	movwf	(___fldiv@a+1)& (0+255),b
  8698   001512  0E00               	movlw	0
  8699   001514  6F9D               	movwf	(___fldiv@a+2)& (0+255),b
  8700   001516  0E00               	movlw	0
  8701   001518  6F9E               	movwf	(___fldiv@a+3)& (0+255),b
  8702   00151A                     l3067:
  8703                           
  8704                           ; BSR set to: 0
  8705   00151A  8F9D               	bsf	(___fldiv@a+2)& (0+255),7,b
  8706   00151C                     
  8707                           ; BSR set to: 0
  8708   00151C  6B9E               	clrf	(___fldiv@a+3)& (0+255),b
  8709   00151E  EF99  F00A         	goto	l3073
  8710   001522                     l3071:
  8711                           
  8712                           ; BSR set to: 0
  8713   001522  0E00               	movlw	0
  8714   001524  6F9B               	movwf	___fldiv@a& (0+255),b
  8715   001526  0E00               	movlw	0
  8716   001528  6F9C               	movwf	(___fldiv@a+1)& (0+255),b
  8717   00152A  0E00               	movlw	0
  8718   00152C  6F9D               	movwf	(___fldiv@a+2)& (0+255),b
  8719   00152E  0E00               	movlw	0
  8720   001530  6F9E               	movwf	(___fldiv@a+3)& (0+255),b
  8721   001532                     l3073:
  8722                           
  8723                           ; BSR set to: 0
  8724   001532  519B               	movf	___fldiv@a& (0+255),w,b
  8725   001534  119C               	iorwf	(___fldiv@a+1)& (0+255),w,b
  8726   001536  119D               	iorwf	(___fldiv@a+2)& (0+255),w,b
  8727   001538  119E               	iorwf	(___fldiv@a+3)& (0+255),w,b
  8728   00153A  A4D8               	btfss	status,2,c
  8729   00153C  EFA2  F00A         	goto	u3241
  8730   001540  EFA4  F00A         	goto	u3240
  8731   001544                     u3241:
  8732   001544  EFBC  F00A         	goto	l3085
  8733   001548                     u3240:
  8734   001548                     
  8735                           ; BSR set to: 0
  8736   001548  0E00               	movlw	0
  8737   00154A  6F97               	movwf	___fldiv@b& (0+255),b
  8738   00154C  0E00               	movlw	0
  8739   00154E  6F98               	movwf	(___fldiv@b+1)& (0+255),b
  8740   001550  0E00               	movlw	0
  8741   001552  6F99               	movwf	(___fldiv@b+2)& (0+255),b
  8742   001554  0E00               	movlw	0
  8743   001556  6F9A               	movwf	(___fldiv@b+3)& (0+255),b
  8744   001558                     
  8745                           ; BSR set to: 0
  8746   001558  0E80               	movlw	128
  8747   00155A  1399               	iorwf	(___fldiv@b+2)& (0+255),f,b
  8748   00155C  0E7F               	movlw	127
  8749   00155E  139A               	iorwf	(___fldiv@b+3)& (0+255),f,b
  8750   001560                     l3079:
  8751                           
  8752                           ; BSR set to: 0
  8753   001560  51A7               	movf	___fldiv@sign& (0+255),w,b
  8754   001562  139A               	iorwf	(___fldiv@b+3)& (0+255),f,b
  8755   001564                     
  8756                           ; BSR set to: 0
  8757   001564  C097  F097         	movff	___fldiv@b,?___fldiv
  8758   001568  C098  F098         	movff	___fldiv@b+1,?___fldiv+1
  8759   00156C  C099  F099         	movff	___fldiv@b+2,?___fldiv+2
  8760   001570  C09A  F09A         	movff	___fldiv@b+3,?___fldiv+3
  8761   001574  EFFC  F00B         	goto	l928
  8762   001578                     l3085:
  8763                           
  8764                           ; BSR set to: 0
  8765   001578  51AE               	movf	___fldiv@bexp& (0+255),w,b
  8766   00157A  A4D8               	btfss	status,2,c
  8767   00157C  EFC2  F00A         	goto	u3251
  8768   001580  EFC4  F00A         	goto	u3250
  8769   001584                     u3251:
  8770   001584  EFCE  F00A         	goto	l3093
  8771   001588                     u3250:
  8772   001588                     
  8773                           ; BSR set to: 0
  8774   001588  0E00               	movlw	0
  8775   00158A  6F97               	movwf	?___fldiv& (0+255),b
  8776   00158C  0E00               	movlw	0
  8777   00158E  6F98               	movwf	(?___fldiv+1)& (0+255),b
  8778   001590  0E00               	movlw	0
  8779   001592  6F99               	movwf	(?___fldiv+2)& (0+255),b
  8780   001594  0E00               	movlw	0
  8781   001596  6F9A               	movwf	(?___fldiv+3)& (0+255),b
  8782   001598  EFFC  F00B         	goto	l928
  8783   00159C                     l3093:
  8784                           
  8785                           ; BSR set to: 0
  8786   00159C  51AF               	movf	___fldiv@aexp& (0+255),w,b
  8787   00159E  C0AE  F09F         	movff	___fldiv@bexp,??___fldiv
  8788   0015A2  6BA0               	clrf	(??___fldiv+1)& (0+255),b
  8789   0015A4  5F9F               	subwf	??___fldiv& (0+255),f,b
  8790   0015A6  0E00               	movlw	0
  8791   0015A8  5BA0               	subwfb	(??___fldiv+1)& (0+255),f,b
  8792   0015AA  0E7F               	movlw	127
  8793   0015AC  259F               	addwf	??___fldiv& (0+255),w,b
  8794   0015AE  6FA8               	movwf	___fldiv@new_exp& (0+255),b
  8795   0015B0  0E00               	movlw	0
  8796   0015B2  21A0               	addwfc	(??___fldiv+1)& (0+255),w,b
  8797   0015B4  6FA9               	movwf	(___fldiv@new_exp+1)& (0+255),b
  8798   0015B6                     
  8799                           ; BSR set to: 0
  8800   0015B6  C097  F0A3         	movff	___fldiv@b,___fldiv@rem
  8801   0015BA  C098  F0A4         	movff	___fldiv@b+1,___fldiv@rem+1
  8802   0015BE  C099  F0A5         	movff	___fldiv@b+2,___fldiv@rem+2
  8803   0015C2  C09A  F0A6         	movff	___fldiv@b+3,___fldiv@rem+3
  8804   0015C6                     
  8805                           ; BSR set to: 0
  8806   0015C6  0E00               	movlw	0
  8807   0015C8  6F97               	movwf	___fldiv@b& (0+255),b
  8808   0015CA  0E00               	movlw	0
  8809   0015CC  6F98               	movwf	(___fldiv@b+1)& (0+255),b
  8810   0015CE  0E00               	movlw	0
  8811   0015D0  6F99               	movwf	(___fldiv@b+2)& (0+255),b
  8812   0015D2  0E00               	movlw	0
  8813   0015D4  6F9A               	movwf	(___fldiv@b+3)& (0+255),b
  8814   0015D6                     
  8815                           ; BSR set to: 0
  8816   0015D6  0E00               	movlw	0
  8817   0015D8  6FAA               	movwf	___fldiv@grs& (0+255),b
  8818   0015DA  0E00               	movlw	0
  8819   0015DC  6FAB               	movwf	(___fldiv@grs+1)& (0+255),b
  8820   0015DE  0E00               	movlw	0
  8821   0015E0  6FAC               	movwf	(___fldiv@grs+2)& (0+255),b
  8822   0015E2  0E00               	movlw	0
  8823   0015E4  6FAD               	movwf	(___fldiv@grs+3)& (0+255),b
  8824   0015E6                     
  8825                           ; BSR set to: 0
  8826   0015E6  6BAF               	clrf	___fldiv@aexp& (0+255),b
  8827   0015E8  EF2E  F00B         	goto	l930
  8828   0015EC                     l3103:
  8829                           
  8830                           ; BSR set to: 0
  8831   0015EC  51AF               	movf	___fldiv@aexp& (0+255),w,b
  8832   0015EE  B4D8               	btfsc	status,2,c
  8833   0015F0  EFFC  F00A         	goto	u3261
  8834   0015F4  EFFE  F00A         	goto	u3260
  8835   0015F8                     u3261:
  8836   0015F8  EF15  F00B         	goto	l3111
  8837   0015FC                     u3260:
  8838   0015FC                     
  8839                           ; BSR set to: 0
  8840   0015FC  90D8               	bcf	status,0,c
  8841   0015FE  37A3               	rlcf	___fldiv@rem& (0+255),f,b
  8842   001600  37A4               	rlcf	(___fldiv@rem+1)& (0+255),f,b
  8843   001602  37A5               	rlcf	(___fldiv@rem+2)& (0+255),f,b
  8844   001604  37A6               	rlcf	(___fldiv@rem+3)& (0+255),f,b
  8845   001606  90D8               	bcf	status,0,c
  8846   001608  3797               	rlcf	___fldiv@b& (0+255),f,b
  8847   00160A  3798               	rlcf	(___fldiv@b+1)& (0+255),f,b
  8848   00160C  3799               	rlcf	(___fldiv@b+2)& (0+255),f,b
  8849   00160E  379A               	rlcf	(___fldiv@b+3)& (0+255),f,b
  8850   001610                     
  8851                           ; BSR set to: 0
  8852   001610  AFAD               	btfss	(___fldiv@grs+3)& (0+255),7,b
  8853   001612  EF0D  F00B         	goto	u3271
  8854   001616  EF0F  F00B         	goto	u3270
  8855   00161A                     u3271:
  8856   00161A  EF10  F00B         	goto	l933
  8857   00161E                     u3270:
  8858   00161E                     
  8859                           ; BSR set to: 0
  8860   00161E  8197               	bsf	___fldiv@b& (0+255),0,b
  8861   001620                     l933:
  8862                           
  8863                           ; BSR set to: 0
  8864   001620  90D8               	bcf	status,0,c
  8865   001622  37AA               	rlcf	___fldiv@grs& (0+255),f,b
  8866   001624  37AB               	rlcf	(___fldiv@grs+1)& (0+255),f,b
  8867   001626  37AC               	rlcf	(___fldiv@grs+2)& (0+255),f,b
  8868   001628  37AD               	rlcf	(___fldiv@grs+3)& (0+255),f,b
  8869   00162A                     l3111:
  8870                           
  8871                           ; BSR set to: 0
  8872   00162A  519B               	movf	___fldiv@a& (0+255),w,b
  8873   00162C  5DA3               	subwf	___fldiv@rem& (0+255),w,b
  8874   00162E  519C               	movf	(___fldiv@a+1)& (0+255),w,b
  8875   001630  59A4               	subwfb	(___fldiv@rem+1)& (0+255),w,b
  8876   001632  519D               	movf	(___fldiv@a+2)& (0+255),w,b
  8877   001634  59A5               	subwfb	(___fldiv@rem+2)& (0+255),w,b
  8878   001636  519E               	movf	(___fldiv@a+3)& (0+255),w,b
  8879   001638  59A6               	subwfb	(___fldiv@rem+3)& (0+255),w,b
  8880   00163A  A0D8               	btfss	status,0,c
  8881   00163C  EF22  F00B         	goto	u3281
  8882   001640  EF24  F00B         	goto	u3280
  8883   001644                     u3281:
  8884   001644  EF2D  F00B         	goto	l3117
  8885   001648                     u3280:
  8886   001648                     
  8887                           ; BSR set to: 0
  8888   001648  8DAD               	bsf	(___fldiv@grs+3)& (0+255),6,b
  8889   00164A                     
  8890                           ; BSR set to: 0
  8891   00164A  519B               	movf	___fldiv@a& (0+255),w,b
  8892   00164C  5FA3               	subwf	___fldiv@rem& (0+255),f,b
  8893   00164E  519C               	movf	(___fldiv@a+1)& (0+255),w,b
  8894   001650  5BA4               	subwfb	(___fldiv@rem+1)& (0+255),f,b
  8895   001652  519D               	movf	(___fldiv@a+2)& (0+255),w,b
  8896   001654  5BA5               	subwfb	(___fldiv@rem+2)& (0+255),f,b
  8897   001656  519E               	movf	(___fldiv@a+3)& (0+255),w,b
  8898   001658  5BA6               	subwfb	(___fldiv@rem+3)& (0+255),f,b
  8899   00165A                     l3117:
  8900                           
  8901                           ; BSR set to: 0
  8902   00165A  2BAF               	incf	___fldiv@aexp& (0+255),f,b
  8903   00165C                     l930:
  8904                           
  8905                           ; BSR set to: 0
  8906   00165C  0E19               	movlw	25
  8907   00165E  65AF               	cpfsgt	___fldiv@aexp& (0+255),b
  8908   001660  EF34  F00B         	goto	u3291
  8909   001664  EF36  F00B         	goto	u3290
  8910   001668                     u3291:
  8911   001668  EFF6  F00A         	goto	l3103
  8912   00166C                     u3290:
  8913   00166C                     
  8914                           ; BSR set to: 0
  8915   00166C  51A3               	movf	___fldiv@rem& (0+255),w,b
  8916   00166E  11A4               	iorwf	(___fldiv@rem+1)& (0+255),w,b
  8917   001670  11A5               	iorwf	(___fldiv@rem+2)& (0+255),w,b
  8918   001672  11A6               	iorwf	(___fldiv@rem+3)& (0+255),w,b
  8919   001674  B4D8               	btfsc	status,2,c
  8920   001676  EF3F  F00B         	goto	u3301
  8921   00167A  EF41  F00B         	goto	u3300
  8922   00167E                     u3301:
  8923   00167E  EF59  F00B         	goto	l3129
  8924   001682                     u3300:
  8925   001682                     
  8926                           ; BSR set to: 0
  8927   001682  81AA               	bsf	___fldiv@grs& (0+255),0,b
  8928   001684  EF59  F00B         	goto	l3129
  8929   001688                     l3123:
  8930                           
  8931                           ; BSR set to: 0
  8932   001688  90D8               	bcf	status,0,c
  8933   00168A  3797               	rlcf	___fldiv@b& (0+255),f,b
  8934   00168C  3798               	rlcf	(___fldiv@b+1)& (0+255),f,b
  8935   00168E  3799               	rlcf	(___fldiv@b+2)& (0+255),f,b
  8936   001690  379A               	rlcf	(___fldiv@b+3)& (0+255),f,b
  8937   001692                     
  8938                           ; BSR set to: 0
  8939   001692  AFAD               	btfss	(___fldiv@grs+3)& (0+255),7,b
  8940   001694  EF4E  F00B         	goto	u3311
  8941   001698  EF50  F00B         	goto	u3310
  8942   00169C                     u3311:
  8943   00169C  EF51  F00B         	goto	l939
  8944   0016A0                     u3310:
  8945   0016A0                     
  8946                           ; BSR set to: 0
  8947   0016A0  8197               	bsf	___fldiv@b& (0+255),0,b
  8948   0016A2                     l939:
  8949                           
  8950                           ; BSR set to: 0
  8951   0016A2  90D8               	bcf	status,0,c
  8952   0016A4  37AA               	rlcf	___fldiv@grs& (0+255),f,b
  8953   0016A6  37AB               	rlcf	(___fldiv@grs+1)& (0+255),f,b
  8954   0016A8  37AC               	rlcf	(___fldiv@grs+2)& (0+255),f,b
  8955   0016AA  37AD               	rlcf	(___fldiv@grs+3)& (0+255),f,b
  8956   0016AC  07A8               	decf	___fldiv@new_exp& (0+255),f,b
  8957   0016AE  A0D8               	btfss	status,0,c
  8958   0016B0  07A9               	decf	(___fldiv@new_exp+1)& (0+255),f,b
  8959   0016B2                     l3129:
  8960                           
  8961                           ; BSR set to: 0
  8962   0016B2  AF99               	btfss	(___fldiv@b+2)& (0+255),7,b
  8963   0016B4  EF5E  F00B         	goto	u3321
  8964   0016B8  EF60  F00B         	goto	u3320
  8965   0016BC                     u3321:
  8966   0016BC  EF44  F00B         	goto	l3123
  8967   0016C0                     u3320:
  8968   0016C0                     
  8969                           ; BSR set to: 0
  8970   0016C0  6BAF               	clrf	___fldiv@aexp& (0+255),b
  8971   0016C2  AFAD               	btfss	(___fldiv@grs+3)& (0+255),7,b
  8972   0016C4  EF66  F00B         	goto	u3331
  8973   0016C8  EF68  F00B         	goto	u3330
  8974   0016CC                     u3331:
  8975   0016CC  EF8C  F00B         	goto	l941
  8976   0016D0                     u3330:
  8977   0016D0                     
  8978                           ; BSR set to: 0
  8979   0016D0  0EFF               	movlw	255
  8980   0016D2  15AA               	andwf	___fldiv@grs& (0+255),w,b
  8981   0016D4  6F9F               	movwf	??___fldiv& (0+255),b
  8982   0016D6  0EFF               	movlw	255
  8983   0016D8  15AB               	andwf	(___fldiv@grs+1)& (0+255),w,b
  8984   0016DA  6FA0               	movwf	(??___fldiv+1)& (0+255),b
  8985   0016DC  0EFF               	movlw	255
  8986   0016DE  15AC               	andwf	(___fldiv@grs+2)& (0+255),w,b
  8987   0016E0  6FA1               	movwf	(??___fldiv+2)& (0+255),b
  8988   0016E2  0E7F               	movlw	127
  8989   0016E4  15AD               	andwf	(___fldiv@grs+3)& (0+255),w,b
  8990   0016E6  6FA2               	movwf	(??___fldiv+3)& (0+255),b
  8991   0016E8  519F               	movf	??___fldiv& (0+255),w,b
  8992   0016EA  11A0               	iorwf	(??___fldiv+1)& (0+255),w,b
  8993   0016EC  11A1               	iorwf	(??___fldiv+2)& (0+255),w,b
  8994   0016EE  11A2               	iorwf	(??___fldiv+3)& (0+255),w,b
  8995   0016F0  B4D8               	btfsc	status,2,c
  8996   0016F2  EF7D  F00B         	goto	u3341
  8997   0016F6  EF7F  F00B         	goto	u3340
  8998   0016FA                     u3341:
  8999   0016FA  EF83  F00B         	goto	l942
  9000   0016FE                     u3340:
  9001   0016FE                     l3133:
  9002                           
  9003                           ; BSR set to: 0
  9004   0016FE  0E01               	movlw	1
  9005   001700  6FAF               	movwf	___fldiv@aexp& (0+255),b
  9006   001702  EF8C  F00B         	goto	l941
  9007   001706                     l942:
  9008                           
  9009                           ; BSR set to: 0
  9010   001706  A197               	btfss	___fldiv@b& (0+255),0,b
  9011   001708  EF88  F00B         	goto	u3351
  9012   00170C  EF8A  F00B         	goto	u3350
  9013   001710                     u3351:
  9014   001710  EF8C  F00B         	goto	l941
  9015   001714                     u3350:
  9016   001714  EF7F  F00B         	goto	l3133
  9017   001718                     l941:
  9018                           
  9019                           ; BSR set to: 0
  9020   001718  51AF               	movf	___fldiv@aexp& (0+255),w,b
  9021   00171A  B4D8               	btfsc	status,2,c
  9022   00171C  EF92  F00B         	goto	u3361
  9023   001720  EF94  F00B         	goto	u3360
  9024   001724                     u3361:
  9025   001724  EFB8  F00B         	goto	l3145
  9026   001728                     u3360:
  9027   001728                     
  9028                           ; BSR set to: 0
  9029   001728  0E01               	movlw	1
  9030   00172A  2797               	addwf	___fldiv@b& (0+255),f,b
  9031   00172C  0E00               	movlw	0
  9032   00172E  2398               	addwfc	(___fldiv@b+1)& (0+255),f,b
  9033   001730  2399               	addwfc	(___fldiv@b+2)& (0+255),f,b
  9034   001732  239A               	addwfc	(___fldiv@b+3)& (0+255),f,b
  9035   001734                     
  9036                           ; BSR set to: 0
  9037   001734  A19A               	btfss	(___fldiv@b+3)& (0+255),0,b
  9038   001736  EF9F  F00B         	goto	u3371
  9039   00173A  EFA1  F00B         	goto	u3370
  9040   00173E                     u3371:
  9041   00173E  EFB8  F00B         	goto	l3145
  9042   001742                     u3370:
  9043   001742                     
  9044                           ; BSR set to: 0
  9045   001742  C097  F09F         	movff	___fldiv@b,??___fldiv
  9046   001746  C098  F0A0         	movff	___fldiv@b+1,??___fldiv+1
  9047   00174A  C099  F0A1         	movff	___fldiv@b+2,??___fldiv+2
  9048   00174E  C09A  F0A2         	movff	___fldiv@b+3,??___fldiv+3
  9049   001752  35A2               	rlcf	(??___fldiv+3)& (0+255),w,b
  9050   001754  33A2               	rrcf	(??___fldiv+3)& (0+255),f,b
  9051   001756  33A1               	rrcf	(??___fldiv+2)& (0+255),f,b
  9052   001758  33A0               	rrcf	(??___fldiv+1)& (0+255),f,b
  9053   00175A  339F               	rrcf	??___fldiv& (0+255),f,b
  9054   00175C  C09F  F097         	movff	??___fldiv,___fldiv@b
  9055   001760  C0A0  F098         	movff	??___fldiv+1,___fldiv@b+1
  9056   001764  C0A1  F099         	movff	??___fldiv+2,___fldiv@b+2
  9057   001768  C0A2  F09A         	movff	??___fldiv+3,___fldiv@b+3
  9058   00176C                     
  9059                           ; BSR set to: 0
  9060   00176C  4BA8               	infsnz	___fldiv@new_exp& (0+255),f,b
  9061   00176E  2BA9               	incf	(___fldiv@new_exp+1)& (0+255),f,b
  9062   001770                     l3145:
  9063                           
  9064                           ; BSR set to: 0
  9065   001770  BFA9               	btfsc	(___fldiv@new_exp+1)& (0+255),7,b
  9066   001772  EFC3  F00B         	goto	u3381
  9067   001776  51A9               	movf	(___fldiv@new_exp+1)& (0+255),w,b
  9068   001778  E108               	bnz	u3380
  9069   00177A  29A8               	incf	___fldiv@new_exp& (0+255),w,b
  9070   00177C  A0D8               	btfss	status,0,c
  9071   00177E  EFC3  F00B         	goto	u3381
  9072   001782  EFC5  F00B         	goto	u3380
  9073   001786                     u3381:
  9074   001786  EFD0  F00B         	goto	l3149
  9075   00178A                     u3380:
  9076   00178A                     
  9077                           ; BSR set to: 0
  9078   00178A  0E00               	movlw	0
  9079   00178C  6FA9               	movwf	(___fldiv@new_exp+1)& (0+255),b
  9080   00178E  69A8               	setf	___fldiv@new_exp& (0+255),b
  9081   001790  0E00               	movlw	0
  9082   001792  6F97               	movwf	___fldiv@b& (0+255),b
  9083   001794  0E00               	movlw	0
  9084   001796  6F98               	movwf	(___fldiv@b+1)& (0+255),b
  9085   001798  0E00               	movlw	0
  9086   00179A  6F99               	movwf	(___fldiv@b+2)& (0+255),b
  9087   00179C  0E00               	movlw	0
  9088   00179E  6F9A               	movwf	(___fldiv@b+3)& (0+255),b
  9089   0017A0                     l3149:
  9090                           
  9091                           ; BSR set to: 0
  9092   0017A0  BFA9               	btfsc	(___fldiv@new_exp+1)& (0+255),7,b
  9093   0017A2  EFDD  F00B         	goto	u3390
  9094   0017A6  51A9               	movf	(___fldiv@new_exp+1)& (0+255),w,b
  9095   0017A8  E106               	bnz	u3391
  9096   0017AA  05A8               	decf	___fldiv@new_exp& (0+255),w,b
  9097   0017AC  B0D8               	btfsc	status,0,c
  9098   0017AE  EFDB  F00B         	goto	u3391
  9099   0017B2  EFDD  F00B         	goto	u3390
  9100   0017B6                     u3391:
  9101   0017B6  EFEA  F00B         	goto	l3155
  9102   0017BA                     u3390:
  9103   0017BA                     
  9104                           ; BSR set to: 0
  9105   0017BA  0E00               	movlw	0
  9106   0017BC  6FA9               	movwf	(___fldiv@new_exp+1)& (0+255),b
  9107   0017BE  0E00               	movlw	0
  9108   0017C0  6FA8               	movwf	___fldiv@new_exp& (0+255),b
  9109   0017C2  0E00               	movlw	0
  9110   0017C4  6F97               	movwf	___fldiv@b& (0+255),b
  9111   0017C6  0E00               	movlw	0
  9112   0017C8  6F98               	movwf	(___fldiv@b+1)& (0+255),b
  9113   0017CA  0E00               	movlw	0
  9114   0017CC  6F99               	movwf	(___fldiv@b+2)& (0+255),b
  9115   0017CE  0E00               	movlw	0
  9116   0017D0  6F9A               	movwf	(___fldiv@b+3)& (0+255),b
  9117   0017D2                     
  9118                           ; BSR set to: 0
  9119   0017D2  6BA7               	clrf	___fldiv@sign& (0+255),b
  9120   0017D4                     l3155:
  9121                           
  9122                           ; BSR set to: 0
  9123   0017D4  C0A8  F0AE         	movff	___fldiv@new_exp,___fldiv@bexp
  9124   0017D8                     
  9125                           ; BSR set to: 0
  9126   0017D8  A1AE               	btfss	___fldiv@bexp& (0+255),0,b
  9127   0017DA  EFF1  F00B         	goto	u3401
  9128   0017DE  EFF3  F00B         	goto	u3400
  9129   0017E2                     u3401:
  9130   0017E2  EFF6  F00B         	goto	l3161
  9131   0017E6                     u3400:
  9132   0017E6                     
  9133                           ; BSR set to: 0
  9134   0017E6  8F99               	bsf	(___fldiv@b+2)& (0+255),7,b
  9135   0017E8  EFF7  F00B         	goto	l3163
  9136   0017EC                     l3161:
  9137                           
  9138                           ; BSR set to: 0
  9139   0017EC  9F99               	bcf	(___fldiv@b+2)& (0+255),7,b
  9140   0017EE                     l3163:
  9141                           
  9142                           ; BSR set to: 0
  9143   0017EE  90D8               	bcf	status,0,c
  9144   0017F0  31AE               	rrcf	___fldiv@bexp& (0+255),w,b
  9145   0017F2  6F9A               	movwf	(___fldiv@b+3)& (0+255),b
  9146   0017F4  EFB0  F00A         	goto	l3079
  9147   0017F8                     l928:
  9148                           
  9149                           ; BSR set to: 0
  9150   0017F8  0012               	return		;funcret
  9151   0017FA                     __end_of___fldiv:
  9152                           	callstack 0
  9153                           
  9154 ;; *************** function ___fladd *****************
  9155 ;; Defined at:
  9156 ;;		line 10 in file "C:\Program Files\Microchip\xc8\v3.00\pic\sources\c99\common\sprcadd.c"
  9157 ;; Parameters:    Size  Location     Type
  9158 ;;  b               4   39[BANK0 ] unsigned char 
  9159 ;;  a               4   43[BANK0 ] unsigned char 
  9160 ;; Auto vars:     Size  Location     Type
  9161 ;;  grs             1   54[BANK0 ] unsigned char 
  9162 ;;  bexp            1   53[BANK0 ] unsigned char 
  9163 ;;  aexp            1   52[BANK0 ] unsigned char 
  9164 ;;  signs           1   51[BANK0 ] unsigned char 
  9165 ;; Return value:  Size  Location     Type
  9166 ;;                  4   39[BANK0 ] unsigned char 
  9167 ;; Registers used:
  9168 ;;		wreg, status,2, status,0
  9169 ;; Tracked objects:
  9170 ;;		On entry : 0/0
  9171 ;;		On exit  : 0/0
  9172 ;;		Unchanged: 0/0
  9173 ;; Data sizes:     COMRAM   BANK0   BANK1   BANK2   BANK3   BANK4   BANK5   BANK6   BANK7
  9174 ;;      Params:         0       8       0       0       0       0       0       0       0
  9175 ;;      Locals:         0       4       0       0       0       0       0       0       0
  9176 ;;      Temps:          0       4       0       0       0       0       0       0       0
  9177 ;;      Totals:         0      16       0       0       0       0       0       0       0
  9178 ;;Total ram usage:       16 bytes
  9179 ;; Hardware stack levels used: 1
  9180 ;; Hardware stack levels required when called: 7
  9181 ;; This function calls:
  9182 ;;		Nothing
  9183 ;; This function is called by:
  9184 ;;		_Joystick_ADC
  9185 ;;		_GY_ADC
  9186 ;;		___flsub
  9187 ;;		_R
  9188 ;;		_asinf
  9189 ;; This function uses a non-reentrant model
  9190 ;;
  9191                           
  9192                           	psect	text41
  9193   000012                     __ptext41:
  9194                           	callstack 0
  9195   000012                     ___fladd:
  9196                           	callstack 22
  9197   000012  0100               	movlb	0	; () banked
  9198   000014  518A               	movf	(___fladd@b+3)& (0+255),w,b
  9199   000016  0B80               	andlw	128
  9200   000018  6F93               	movwf	___fladd@signs& (0+255),b
  9201   00001A  518A               	movf	(___fladd@b+3)& (0+255),w,b
  9202   00001C  258A               	addwf	(___fladd@b+3)& (0+255),w,b
  9203   00001E  6F95               	movwf	___fladd@bexp& (0+255),b
  9204   000020                     
  9205                           ; BSR set to: 0
  9206   000020  AF89               	btfss	(___fladd@b+2)& (0+255),7,b
  9207   000022  EF15  F000         	goto	u2791
  9208   000026  EF17  F000         	goto	u2790
  9209   00002A                     u2791:
  9210   00002A  EF18  F000         	goto	l2847
  9211   00002E                     u2790:
  9212   00002E                     
  9213                           ; BSR set to: 0
  9214   00002E  8195               	bsf	___fladd@bexp& (0+255),0,b
  9215   000030                     l2847:
  9216                           
  9217                           ; BSR set to: 0
  9218   000030  5195               	movf	___fladd@bexp& (0+255),w,b
  9219   000032  B4D8               	btfsc	status,2,c
  9220   000034  EF1E  F000         	goto	u2801
  9221   000038  EF20  F000         	goto	u2800
  9222   00003C                     u2801:
  9223   00003C  EF34  F000         	goto	l2857
  9224   000040                     u2800:
  9225   000040                     
  9226                           ; BSR set to: 0
  9227   000040  2995               	incf	___fladd@bexp& (0+255),w,b
  9228   000042  A4D8               	btfss	status,2,c
  9229   000044  EF26  F000         	goto	u2811
  9230   000048  EF28  F000         	goto	u2810
  9231   00004C                     u2811:
  9232   00004C  EF30  F000         	goto	l2853
  9233   000050                     u2810:
  9234   000050                     
  9235                           ; BSR set to: 0
  9236   000050  0E00               	movlw	0
  9237   000052  6F87               	movwf	___fladd@b& (0+255),b
  9238   000054  0E00               	movlw	0
  9239   000056  6F88               	movwf	(___fladd@b+1)& (0+255),b
  9240   000058  0E00               	movlw	0
  9241   00005A  6F89               	movwf	(___fladd@b+2)& (0+255),b
  9242   00005C  0E00               	movlw	0
  9243   00005E  6F8A               	movwf	(___fladd@b+3)& (0+255),b
  9244   000060                     l2853:
  9245                           
  9246                           ; BSR set to: 0
  9247   000060  8F89               	bsf	(___fladd@b+2)& (0+255),7,b
  9248   000062                     
  9249                           ; BSR set to: 0
  9250   000062  6B8A               	clrf	(___fladd@b+3)& (0+255),b
  9251   000064  EF3C  F000         	goto	l2859
  9252   000068                     l2857:
  9253                           
  9254                           ; BSR set to: 0
  9255   000068  0E00               	movlw	0
  9256   00006A  6F87               	movwf	___fladd@b& (0+255),b
  9257   00006C  0E00               	movlw	0
  9258   00006E  6F88               	movwf	(___fladd@b+1)& (0+255),b
  9259   000070  0E00               	movlw	0
  9260   000072  6F89               	movwf	(___fladd@b+2)& (0+255),b
  9261   000074  0E00               	movlw	0
  9262   000076  6F8A               	movwf	(___fladd@b+3)& (0+255),b
  9263   000078                     l2859:
  9264                           
  9265                           ; BSR set to: 0
  9266   000078  518E               	movf	(___fladd@a+3)& (0+255),w,b
  9267   00007A  0B80               	andlw	128
  9268   00007C  6F94               	movwf	___fladd@aexp& (0+255),b
  9269   00007E                     
  9270                           ; BSR set to: 0
  9271   00007E  5193               	movf	___fladd@signs& (0+255),w,b
  9272   000080  1994               	xorwf	___fladd@aexp& (0+255),w,b
  9273   000082  B4D8               	btfsc	status,2,c
  9274   000084  EF46  F000         	goto	u2821
  9275   000088  EF48  F000         	goto	u2820
  9276   00008C                     u2821:
  9277   00008C  EF49  F000         	goto	l2865
  9278   000090                     u2820:
  9279   000090                     
  9280                           ; BSR set to: 0
  9281   000090  8D93               	bsf	___fladd@signs& (0+255),6,b
  9282   000092                     l2865:
  9283                           
  9284                           ; BSR set to: 0
  9285   000092  518E               	movf	(___fladd@a+3)& (0+255),w,b
  9286   000094  258E               	addwf	(___fladd@a+3)& (0+255),w,b
  9287   000096  6F94               	movwf	___fladd@aexp& (0+255),b
  9288   000098                     
  9289                           ; BSR set to: 0
  9290   000098  AF8D               	btfss	(___fladd@a+2)& (0+255),7,b
  9291   00009A  EF51  F000         	goto	u2831
  9292   00009E  EF53  F000         	goto	u2830
  9293   0000A2                     u2831:
  9294   0000A2  EF54  F000         	goto	l2871
  9295   0000A6                     u2830:
  9296   0000A6                     
  9297                           ; BSR set to: 0
  9298   0000A6  8194               	bsf	___fladd@aexp& (0+255),0,b
  9299   0000A8                     l2871:
  9300                           
  9301                           ; BSR set to: 0
  9302   0000A8  5194               	movf	___fladd@aexp& (0+255),w,b
  9303   0000AA  B4D8               	btfsc	status,2,c
  9304   0000AC  EF5A  F000         	goto	u2841
  9305   0000B0  EF5C  F000         	goto	u2840
  9306   0000B4                     u2841:
  9307   0000B4  EF70  F000         	goto	l2881
  9308   0000B8                     u2840:
  9309   0000B8                     
  9310                           ; BSR set to: 0
  9311   0000B8  2994               	incf	___fladd@aexp& (0+255),w,b
  9312   0000BA  A4D8               	btfss	status,2,c
  9313   0000BC  EF62  F000         	goto	u2851
  9314   0000C0  EF64  F000         	goto	u2850
  9315   0000C4                     u2851:
  9316   0000C4  EF6C  F000         	goto	l2877
  9317   0000C8                     u2850:
  9318   0000C8                     
  9319                           ; BSR set to: 0
  9320   0000C8  0E00               	movlw	0
  9321   0000CA  6F8B               	movwf	___fladd@a& (0+255),b
  9322   0000CC  0E00               	movlw	0
  9323   0000CE  6F8C               	movwf	(___fladd@a+1)& (0+255),b
  9324   0000D0  0E00               	movlw	0
  9325   0000D2  6F8D               	movwf	(___fladd@a+2)& (0+255),b
  9326   0000D4  0E00               	movlw	0
  9327   0000D6  6F8E               	movwf	(___fladd@a+3)& (0+255),b
  9328   0000D8                     l2877:
  9329                           
  9330                           ; BSR set to: 0
  9331   0000D8  8F8D               	bsf	(___fladd@a+2)& (0+255),7,b
  9332   0000DA                     
  9333                           ; BSR set to: 0
  9334   0000DA  6B8E               	clrf	(___fladd@a+3)& (0+255),b
  9335   0000DC  EF78  F000         	goto	l2883
  9336   0000E0                     l2881:
  9337                           
  9338                           ; BSR set to: 0
  9339   0000E0  0E00               	movlw	0
  9340   0000E2  6F8B               	movwf	___fladd@a& (0+255),b
  9341   0000E4  0E00               	movlw	0
  9342   0000E6  6F8C               	movwf	(___fladd@a+1)& (0+255),b
  9343   0000E8  0E00               	movlw	0
  9344   0000EA  6F8D               	movwf	(___fladd@a+2)& (0+255),b
  9345   0000EC  0E00               	movlw	0
  9346   0000EE  6F8E               	movwf	(___fladd@a+3)& (0+255),b
  9347   0000F0                     l2883:
  9348                           
  9349                           ; BSR set to: 0
  9350   0000F0  5195               	movf	___fladd@bexp& (0+255),w,b
  9351   0000F2  5D94               	subwf	___fladd@aexp& (0+255),w,b
  9352   0000F4  B0D8               	btfsc	status,0,c
  9353   0000F6  EF7F  F000         	goto	u2861
  9354   0000FA  EF81  F000         	goto	u2860
  9355   0000FE                     u2861:
  9356   0000FE  EFA8  F000         	goto	l2919
  9357   000102                     u2860:
  9358   000102                     
  9359                           ; BSR set to: 0
  9360   000102  AD93               	btfss	___fladd@signs& (0+255),6,b
  9361   000104  EF86  F000         	goto	u2871
  9362   000108  EF88  F000         	goto	u2870
  9363   00010C                     u2871:
  9364   00010C  EF8A  F000         	goto	l2889
  9365   000110                     u2870:
  9366   000110                     
  9367                           ; BSR set to: 0
  9368   000110  0E80               	movlw	128
  9369   000112  1B93               	xorwf	___fladd@signs& (0+255),f,b
  9370   000114                     l2889:
  9371                           
  9372                           ; BSR set to: 0
  9373   000114  C095  F096         	movff	___fladd@bexp,___fladd@grs
  9374   000118                     
  9375                           ; BSR set to: 0
  9376   000118  C094  F095         	movff	___fladd@aexp,___fladd@bexp
  9377   00011C                     
  9378                           ; BSR set to: 0
  9379   00011C  C096  F094         	movff	___fladd@grs,___fladd@aexp
  9380   000120                     
  9381                           ; BSR set to: 0
  9382   000120  C087  F096         	movff	___fladd@b,___fladd@grs
  9383   000124                     
  9384                           ; BSR set to: 0
  9385   000124  C08B  F087         	movff	___fladd@a,___fladd@b
  9386   000128                     
  9387                           ; BSR set to: 0
  9388   000128  C096  F08B         	movff	___fladd@grs,___fladd@a
  9389   00012C                     
  9390                           ; BSR set to: 0
  9391   00012C  C088  F096         	movff	___fladd@b+1,___fladd@grs
  9392   000130                     
  9393                           ; BSR set to: 0
  9394   000130  C08C  F088         	movff	___fladd@a+1,___fladd@b+1
  9395   000134                     
  9396                           ; BSR set to: 0
  9397   000134  C096  F08C         	movff	___fladd@grs,___fladd@a+1
  9398   000138                     
  9399                           ; BSR set to: 0
  9400   000138  C089  F096         	movff	___fladd@b+2,___fladd@grs
  9401   00013C                     
  9402                           ; BSR set to: 0
  9403   00013C  C08D  F089         	movff	___fladd@a+2,___fladd@b+2
  9404   000140                     
  9405                           ; BSR set to: 0
  9406   000140  C096  F08D         	movff	___fladd@grs,___fladd@a+2
  9407   000144                     
  9408                           ; BSR set to: 0
  9409   000144  C08A  F096         	movff	___fladd@b+3,___fladd@grs
  9410   000148                     
  9411                           ; BSR set to: 0
  9412   000148  C08E  F08A         	movff	___fladd@a+3,___fladd@b+3
  9413   00014C                     
  9414                           ; BSR set to: 0
  9415   00014C  C096  F08E         	movff	___fladd@grs,___fladd@a+3
  9416   000150                     l2919:
  9417                           
  9418                           ; BSR set to: 0
  9419   000150  6B96               	clrf	___fladd@grs& (0+255),b
  9420   000152  5195               	movf	___fladd@bexp& (0+255),w,b
  9421   000154  C094  F08F         	movff	___fladd@aexp,??___fladd
  9422   000158  6B90               	clrf	(??___fladd+1)& (0+255),b
  9423   00015A  5F8F               	subwf	??___fladd& (0+255),f,b
  9424   00015C  0E00               	movlw	0
  9425   00015E  5B90               	subwfb	(??___fladd+1)& (0+255),f,b
  9426   000160  BF90               	btfsc	(??___fladd+1)& (0+255),7,b
  9427   000162  EFBC  F000         	goto	u2881
  9428   000166  5190               	movf	(??___fladd+1)& (0+255),w,b
  9429   000168  E109               	bnz	u2880
  9430   00016A  0E1A               	movlw	26
  9431   00016C  5D8F               	subwf	??___fladd& (0+255),w,b
  9432   00016E  A0D8               	btfss	status,0,c
  9433   000170  EFBC  F000         	goto	u2881
  9434   000174  EFBE  F000         	goto	u2880
  9435   000178                     u2881:
  9436   000178  EFF5  F000         	goto	l875
  9437   00017C                     u2880:
  9438   00017C                     
  9439                           ; BSR set to: 0
  9440   00017C  5187               	movf	___fladd@b& (0+255),w,b
  9441   00017E  1188               	iorwf	(___fladd@b+1)& (0+255),w,b
  9442   000180  1189               	iorwf	(___fladd@b+2)& (0+255),w,b
  9443   000182  118A               	iorwf	(___fladd@b+3)& (0+255),w,b
  9444   000184  A4D8               	btfss	status,2,c
  9445   000186  EFC7  F000         	goto	u2891
  9446   00018A  EFCA  F000         	goto	u2890
  9447   00018E                     u2891:
  9448   00018E  0E01               	movlw	1
  9449   000190  EFCB  F000         	goto	u2900
  9450   000194                     u2890:
  9451   000194  0E00               	movlw	0
  9452   000196                     u2900:
  9453   000196  6F96               	movwf	___fladd@grs& (0+255),b
  9454   000198                     
  9455                           ; BSR set to: 0
  9456   000198  0E00               	movlw	0
  9457   00019A  6F87               	movwf	___fladd@b& (0+255),b
  9458   00019C  0E00               	movlw	0
  9459   00019E  6F88               	movwf	(___fladd@b+1)& (0+255),b
  9460   0001A0  0E00               	movlw	0
  9461   0001A2  6F89               	movwf	(___fladd@b+2)& (0+255),b
  9462   0001A4  0E00               	movlw	0
  9463   0001A6  6F8A               	movwf	(___fladd@b+3)& (0+255),b
  9464   0001A8                     
  9465                           ; BSR set to: 0
  9466   0001A8  C094  F095         	movff	___fladd@aexp,___fladd@bexp
  9467   0001AC  EFFE  F000         	goto	l874
  9468   0001B0                     l876:
  9469                           
  9470                           ; BSR set to: 0
  9471   0001B0  A196               	btfss	___fladd@grs& (0+255),0,b
  9472   0001B2  EFDD  F000         	goto	u2911
  9473   0001B6  EFDF  F000         	goto	u2910
  9474   0001BA                     u2911:
  9475   0001BA  EFE5  F000         	goto	l2929
  9476   0001BE                     u2910:
  9477   0001BE                     
  9478                           ; BSR set to: 0
  9479   0001BE  90D8               	bcf	status,0,c
  9480   0001C0  3196               	rrcf	___fladd@grs& (0+255),w,b
  9481   0001C2  0901               	iorlw	1
  9482   0001C4  6F96               	movwf	___fladd@grs& (0+255),b
  9483   0001C6  EFE7  F000         	goto	l2931
  9484   0001CA                     l2929:
  9485                           
  9486                           ; BSR set to: 0
  9487   0001CA  90D8               	bcf	status,0,c
  9488   0001CC  3396               	rrcf	___fladd@grs& (0+255),f,b
  9489   0001CE                     l2931:
  9490                           
  9491                           ; BSR set to: 0
  9492   0001CE  A187               	btfss	___fladd@b& (0+255),0,b
  9493   0001D0  EFEC  F000         	goto	u2921
  9494   0001D4  EFEE  F000         	goto	u2920
  9495   0001D8                     u2921:
  9496   0001D8  EFEF  F000         	goto	l2935
  9497   0001DC                     u2920:
  9498   0001DC                     
  9499                           ; BSR set to: 0
  9500   0001DC  8F96               	bsf	___fladd@grs& (0+255),7,b
  9501   0001DE                     l2935:
  9502                           
  9503                           ; BSR set to: 0
  9504   0001DE  358A               	rlcf	(___fladd@b+3)& (0+255),w,b
  9505   0001E0  338A               	rrcf	(___fladd@b+3)& (0+255),f,b
  9506   0001E2  3389               	rrcf	(___fladd@b+2)& (0+255),f,b
  9507   0001E4  3388               	rrcf	(___fladd@b+1)& (0+255),f,b
  9508   0001E6  3387               	rrcf	___fladd@b& (0+255),f,b
  9509   0001E8                     
  9510                           ; BSR set to: 0
  9511   0001E8  2B95               	incf	___fladd@bexp& (0+255),f,b
  9512   0001EA                     l875:
  9513                           
  9514                           ; BSR set to: 0
  9515   0001EA  5194               	movf	___fladd@aexp& (0+255),w,b
  9516   0001EC  5D95               	subwf	___fladd@bexp& (0+255),w,b
  9517   0001EE  A0D8               	btfss	status,0,c
  9518   0001F0  EFFC  F000         	goto	u2931
  9519   0001F4  EFFE  F000         	goto	u2930
  9520   0001F8                     u2931:
  9521   0001F8  EFD8  F000         	goto	l876
  9522   0001FC                     u2930:
  9523   0001FC                     l874:
  9524                           
  9525                           ; BSR set to: 0
  9526   0001FC  BD93               	btfsc	___fladd@signs& (0+255),6,b
  9527   0001FE  EF03  F001         	goto	u2941
  9528   000202  EF05  F001         	goto	u2940
  9529   000206                     u2941:
  9530   000206  EF45  F001         	goto	l2963
  9531   00020A                     u2940:
  9532   00020A                     
  9533                           ; BSR set to: 0
  9534   00020A  5195               	movf	___fladd@bexp& (0+255),w,b
  9535   00020C  A4D8               	btfss	status,2,c
  9536   00020E  EF0B  F001         	goto	u2951
  9537   000212  EF0D  F001         	goto	u2950
  9538   000216                     u2951:
  9539   000216  EF17  F001         	goto	l2945
  9540   00021A                     u2950:
  9541   00021A                     
  9542                           ; BSR set to: 0
  9543   00021A  0E00               	movlw	0
  9544   00021C  6F87               	movwf	?___fladd& (0+255),b
  9545   00021E  0E00               	movlw	0
  9546   000220  6F88               	movwf	(?___fladd+1)& (0+255),b
  9547   000222  0E00               	movlw	0
  9548   000224  6F89               	movwf	(?___fladd+2)& (0+255),b
  9549   000226  0E00               	movlw	0
  9550   000228  6F8A               	movwf	(?___fladd+3)& (0+255),b
  9551   00022A  EF64  F002         	goto	l883
  9552   00022E                     l2945:
  9553                           
  9554                           ; BSR set to: 0
  9555   00022E  518B               	movf	___fladd@a& (0+255),w,b
  9556   000230  2787               	addwf	___fladd@b& (0+255),f,b
  9557   000232  518C               	movf	(___fladd@a+1)& (0+255),w,b
  9558   000234  2388               	addwfc	(___fladd@b+1)& (0+255),f,b
  9559   000236  518D               	movf	(___fladd@a+2)& (0+255),w,b
  9560   000238  2389               	addwfc	(___fladd@b+2)& (0+255),f,b
  9561   00023A  518E               	movf	(___fladd@a+3)& (0+255),w,b
  9562   00023C  238A               	addwfc	(___fladd@b+3)& (0+255),f,b
  9563   00023E                     
  9564                           ; BSR set to: 0
  9565   00023E  A18A               	btfss	(___fladd@b+3)& (0+255),0,b
  9566   000240  EF24  F001         	goto	u2961
  9567   000244  EF26  F001         	goto	u2960
  9568   000248                     u2961:
  9569   000248  EFD2  F001         	goto	l888
  9570   00024C                     u2960:
  9571   00024C                     
  9572                           ; BSR set to: 0
  9573   00024C  A196               	btfss	___fladd@grs& (0+255),0,b
  9574   00024E  EF2B  F001         	goto	u2971
  9575   000252  EF2D  F001         	goto	u2970
  9576   000256                     u2971:
  9577   000256  EF33  F001         	goto	l2953
  9578   00025A                     u2970:
  9579   00025A                     
  9580                           ; BSR set to: 0
  9581   00025A  90D8               	bcf	status,0,c
  9582   00025C  3196               	rrcf	___fladd@grs& (0+255),w,b
  9583   00025E  0901               	iorlw	1
  9584   000260  6F96               	movwf	___fladd@grs& (0+255),b
  9585   000262  EF35  F001         	goto	l2955
  9586   000266                     l2953:
  9587                           
  9588                           ; BSR set to: 0
  9589   000266  90D8               	bcf	status,0,c
  9590   000268  3396               	rrcf	___fladd@grs& (0+255),f,b
  9591   00026A                     l2955:
  9592                           
  9593                           ; BSR set to: 0
  9594   00026A  A187               	btfss	___fladd@b& (0+255),0,b
  9595   00026C  EF3A  F001         	goto	u2981
  9596   000270  EF3C  F001         	goto	u2980
  9597   000274                     u2981:
  9598   000274  EF3D  F001         	goto	l2959
  9599   000278                     u2980:
  9600   000278                     
  9601                           ; BSR set to: 0
  9602   000278  8F96               	bsf	___fladd@grs& (0+255),7,b
  9603   00027A                     l2959:
  9604                           
  9605                           ; BSR set to: 0
  9606   00027A  358A               	rlcf	(___fladd@b+3)& (0+255),w,b
  9607   00027C  338A               	rrcf	(___fladd@b+3)& (0+255),f,b
  9608   00027E  3389               	rrcf	(___fladd@b+2)& (0+255),f,b
  9609   000280  3388               	rrcf	(___fladd@b+1)& (0+255),f,b
  9610   000282  3387               	rrcf	___fladd@b& (0+255),f,b
  9611   000284                     
  9612                           ; BSR set to: 0
  9613   000284  2B95               	incf	___fladd@bexp& (0+255),f,b
  9614   000286  EFD2  F001         	goto	l888
  9615   00028A                     l2963:
  9616                           
  9617                           ; BSR set to: 0
  9618   00028A  518B               	movf	___fladd@a& (0+255),w,b
  9619   00028C  5D87               	subwf	___fladd@b& (0+255),w,b
  9620   00028E  518C               	movf	(___fladd@a+1)& (0+255),w,b
  9621   000290  5988               	subwfb	(___fladd@b+1)& (0+255),w,b
  9622   000292  518D               	movf	(___fladd@a+2)& (0+255),w,b
  9623   000294  5989               	subwfb	(___fladd@b+2)& (0+255),w,b
  9624   000296  518A               	movf	(___fladd@b+3)& (0+255),w,b
  9625   000298  0A80               	xorlw	128
  9626   00029A  6F8F               	movwf	??___fladd& (0+255),b
  9627   00029C  518E               	movf	(___fladd@a+3)& (0+255),w,b
  9628   00029E  0A80               	xorlw	128
  9629   0002A0  598F               	subwfb	??___fladd& (0+255),w,b
  9630   0002A2  B0D8               	btfsc	status,0,c
  9631   0002A4  EF56  F001         	goto	u2991
  9632   0002A8  EF58  F001         	goto	u2990
  9633   0002AC                     u2991:
  9634   0002AC  EF83  F001         	goto	l2973
  9635   0002B0                     u2990:
  9636   0002B0                     
  9637                           ; BSR set to: 0
  9638   0002B0  5187               	movf	___fladd@b& (0+255),w,b
  9639   0002B2  5D8B               	subwf	___fladd@a& (0+255),w,b
  9640   0002B4  6F8F               	movwf	??___fladd& (0+255),b
  9641   0002B6  5188               	movf	(___fladd@b+1)& (0+255),w,b
  9642   0002B8  598C               	subwfb	(___fladd@a+1)& (0+255),w,b
  9643   0002BA  6F90               	movwf	(??___fladd+1)& (0+255),b
  9644   0002BC  5189               	movf	(___fladd@b+2)& (0+255),w,b
  9645   0002BE  598D               	subwfb	(___fladd@a+2)& (0+255),w,b
  9646   0002C0  6F91               	movwf	(??___fladd+2)& (0+255),b
  9647   0002C2  518A               	movf	(___fladd@b+3)& (0+255),w,b
  9648   0002C4  598E               	subwfb	(___fladd@a+3)& (0+255),w,b
  9649   0002C6  6F92               	movwf	(??___fladd+3)& (0+255),b
  9650   0002C8  0EFF               	movlw	255
  9651   0002CA  258F               	addwf	??___fladd& (0+255),w,b
  9652   0002CC  6F87               	movwf	___fladd@b& (0+255),b
  9653   0002CE  0EFF               	movlw	255
  9654   0002D0  2190               	addwfc	(??___fladd+1)& (0+255),w,b
  9655   0002D2  6F88               	movwf	(___fladd@b+1)& (0+255),b
  9656   0002D4  0EFF               	movlw	255
  9657   0002D6  2191               	addwfc	(??___fladd+2)& (0+255),w,b
  9658   0002D8  6F89               	movwf	(___fladd@b+2)& (0+255),b
  9659   0002DA  0EFF               	movlw	255
  9660   0002DC  2192               	addwfc	(??___fladd+3)& (0+255),w,b
  9661   0002DE  6F8A               	movwf	(___fladd@b+3)& (0+255),b
  9662   0002E0  0E80               	movlw	128
  9663   0002E2  1B93               	xorwf	___fladd@signs& (0+255),f,b
  9664   0002E4                     
  9665                           ; BSR set to: 0
  9666   0002E4  6D96               	negf	___fladd@grs& (0+255),b
  9667   0002E6                     
  9668                           ; BSR set to: 0
  9669   0002E6  5196               	movf	___fladd@grs& (0+255),w,b
  9670   0002E8  A4D8               	btfss	status,2,c
  9671   0002EA  EF79  F001         	goto	u3001
  9672   0002EE  EF7B  F001         	goto	u3000
  9673   0002F2                     u3001:
  9674   0002F2  EF8B  F001         	goto	l891
  9675   0002F6                     u3000:
  9676   0002F6                     
  9677                           ; BSR set to: 0
  9678   0002F6  0E01               	movlw	1
  9679   0002F8  2787               	addwf	___fladd@b& (0+255),f,b
  9680   0002FA  0E00               	movlw	0
  9681   0002FC  2388               	addwfc	(___fladd@b+1)& (0+255),f,b
  9682   0002FE  2389               	addwfc	(___fladd@b+2)& (0+255),f,b
  9683   000300  238A               	addwfc	(___fladd@b+3)& (0+255),f,b
  9684   000302  EF8B  F001         	goto	l891
  9685   000306                     l2973:
  9686                           
  9687                           ; BSR set to: 0
  9688   000306  518B               	movf	___fladd@a& (0+255),w,b
  9689   000308  5F87               	subwf	___fladd@b& (0+255),f,b
  9690   00030A  518C               	movf	(___fladd@a+1)& (0+255),w,b
  9691   00030C  5B88               	subwfb	(___fladd@b+1)& (0+255),f,b
  9692   00030E  518D               	movf	(___fladd@a+2)& (0+255),w,b
  9693   000310  5B89               	subwfb	(___fladd@b+2)& (0+255),f,b
  9694   000312  518E               	movf	(___fladd@a+3)& (0+255),w,b
  9695   000314  5B8A               	subwfb	(___fladd@b+3)& (0+255),f,b
  9696   000316                     l891:
  9697                           
  9698                           ; BSR set to: 0
  9699   000316  5187               	movf	___fladd@b& (0+255),w,b
  9700   000318  1188               	iorwf	(___fladd@b+1)& (0+255),w,b
  9701   00031A  1189               	iorwf	(___fladd@b+2)& (0+255),w,b
  9702   00031C  118A               	iorwf	(___fladd@b+3)& (0+255),w,b
  9703   00031E  A4D8               	btfss	status,2,c
  9704   000320  EF94  F001         	goto	u3011
  9705   000324  EF96  F001         	goto	u3010
  9706   000328                     u3011:
  9707   000328  EFCB  F001         	goto	l2997
  9708   00032C                     u3010:
  9709   00032C                     
  9710                           ; BSR set to: 0
  9711   00032C  5196               	movf	___fladd@grs& (0+255),w,b
  9712   00032E  A4D8               	btfss	status,2,c
  9713   000330  EF9C  F001         	goto	u3021
  9714   000334  EF9E  F001         	goto	u3020
  9715   000338                     u3021:
  9716   000338  EFCB  F001         	goto	l2997
  9717   00033C                     u3020:
  9718   00033C                     
  9719                           ; BSR set to: 0
  9720   00033C  0E00               	movlw	0
  9721   00033E  6F87               	movwf	?___fladd& (0+255),b
  9722   000340  0E00               	movlw	0
  9723   000342  6F88               	movwf	(?___fladd+1)& (0+255),b
  9724   000344  0E00               	movlw	0
  9725   000346  6F89               	movwf	(?___fladd+2)& (0+255),b
  9726   000348  0E00               	movlw	0
  9727   00034A  6F8A               	movwf	(?___fladd+3)& (0+255),b
  9728   00034C  EF64  F002         	goto	l883
  9729   000350                     l2981:
  9730                           
  9731                           ; BSR set to: 0
  9732   000350  90D8               	bcf	status,0,c
  9733   000352  3787               	rlcf	___fladd@b& (0+255),f,b
  9734   000354  3788               	rlcf	(___fladd@b+1)& (0+255),f,b
  9735   000356  3789               	rlcf	(___fladd@b+2)& (0+255),f,b
  9736   000358  378A               	rlcf	(___fladd@b+3)& (0+255),f,b
  9737   00035A                     
  9738                           ; BSR set to: 0
  9739   00035A  AF96               	btfss	___fladd@grs& (0+255),7,b
  9740   00035C  EFB2  F001         	goto	u3031
  9741   000360  EFB4  F001         	goto	u3030
  9742   000364                     u3031:
  9743   000364  EFB5  F001         	goto	l2987
  9744   000368                     u3030:
  9745   000368                     
  9746                           ; BSR set to: 0
  9747   000368  8187               	bsf	___fladd@b& (0+255),0,b
  9748   00036A                     l2987:
  9749                           
  9750                           ; BSR set to: 0
  9751   00036A  A196               	btfss	___fladd@grs& (0+255),0,b
  9752   00036C  EFBA  F001         	goto	u3041
  9753   000370  EFBC  F001         	goto	u3040
  9754   000374                     u3041:
  9755   000374  EFC0  F001         	goto	l2991
  9756   000378                     u3040:
  9757   000378                     
  9758                           ; BSR set to: 0
  9759   000378  80D8               	bsf	status,0,c
  9760   00037A  3796               	rlcf	___fladd@grs& (0+255),f,b
  9761   00037C  EFC2  F001         	goto	l2993
  9762   000380                     l2991:
  9763                           
  9764                           ; BSR set to: 0
  9765   000380  90D8               	bcf	status,0,c
  9766   000382  3796               	rlcf	___fladd@grs& (0+255),f,b
  9767   000384                     l2993:
  9768                           
  9769                           ; BSR set to: 0
  9770   000384  5195               	movf	___fladd@bexp& (0+255),w,b
  9771   000386  B4D8               	btfsc	status,2,c
  9772   000388  EFC8  F001         	goto	u3051
  9773   00038C  EFCA  F001         	goto	u3050
  9774   000390                     u3051:
  9775   000390  EFCB  F001         	goto	l2997
  9776   000394                     u3050:
  9777   000394                     
  9778                           ; BSR set to: 0
  9779   000394  0795               	decf	___fladd@bexp& (0+255),f,b
  9780   000396                     l2997:
  9781                           
  9782                           ; BSR set to: 0
  9783   000396  AF89               	btfss	(___fladd@b+2)& (0+255),7,b
  9784   000398  EFD0  F001         	goto	u3061
  9785   00039C  EFD2  F001         	goto	u3060
  9786   0003A0                     u3061:
  9787   0003A0  EFA8  F001         	goto	l2981
  9788   0003A4                     u3060:
  9789   0003A4                     l888:
  9790                           
  9791                           ; BSR set to: 0
  9792   0003A4  6B94               	clrf	___fladd@aexp& (0+255),b
  9793   0003A6  AF96               	btfss	___fladd@grs& (0+255),7,b
  9794   0003A8  EFD8  F001         	goto	u3071
  9795   0003AC  EFDA  F001         	goto	u3070
  9796   0003B0                     u3071:
  9797   0003B0  EFF2  F001         	goto	l900
  9798   0003B4                     u3070:
  9799   0003B4                     
  9800                           ; BSR set to: 0
  9801   0003B4  C096  F08F         	movff	___fladd@grs,??___fladd
  9802   0003B8  0E7F               	movlw	127
  9803   0003BA  178F               	andwf	??___fladd& (0+255),f,b
  9804   0003BC  B4D8               	btfsc	status,2,c
  9805   0003BE  EFE3  F001         	goto	u3081
  9806   0003C2  EFE5  F001         	goto	u3080
  9807   0003C6                     u3081:
  9808   0003C6  EFE9  F001         	goto	l901
  9809   0003CA                     u3080:
  9810   0003CA                     l3001:
  9811                           
  9812                           ; BSR set to: 0
  9813   0003CA  0E01               	movlw	1
  9814   0003CC  6F94               	movwf	___fladd@aexp& (0+255),b
  9815   0003CE  EFF2  F001         	goto	l900
  9816   0003D2                     l901:
  9817                           
  9818                           ; BSR set to: 0
  9819   0003D2  A187               	btfss	___fladd@b& (0+255),0,b
  9820   0003D4  EFEE  F001         	goto	u3091
  9821   0003D8  EFF0  F001         	goto	u3090
  9822   0003DC                     u3091:
  9823   0003DC  EFF2  F001         	goto	l900
  9824   0003E0                     u3090:
  9825   0003E0  EFE5  F001         	goto	l3001
  9826   0003E4                     l900:
  9827                           
  9828                           ; BSR set to: 0
  9829   0003E4  5194               	movf	___fladd@aexp& (0+255),w,b
  9830   0003E6  B4D8               	btfsc	status,2,c
  9831   0003E8  EFF8  F001         	goto	u3101
  9832   0003EC  EFFA  F001         	goto	u3100
  9833   0003F0                     u3101:
  9834   0003F0  EF25  F002         	goto	l3013
  9835   0003F4                     u3100:
  9836   0003F4                     
  9837                           ; BSR set to: 0
  9838   0003F4  0E01               	movlw	1
  9839   0003F6  2787               	addwf	___fladd@b& (0+255),f,b
  9840   0003F8  0E00               	movlw	0
  9841   0003FA  2388               	addwfc	(___fladd@b+1)& (0+255),f,b
  9842   0003FC  2389               	addwfc	(___fladd@b+2)& (0+255),f,b
  9843   0003FE  238A               	addwfc	(___fladd@b+3)& (0+255),f,b
  9844   000400                     
  9845                           ; BSR set to: 0
  9846   000400  A18A               	btfss	(___fladd@b+3)& (0+255),0,b
  9847   000402  EF05  F002         	goto	u3111
  9848   000406  EF07  F002         	goto	u3110
  9849   00040A                     u3111:
  9850   00040A  EF25  F002         	goto	l3013
  9851   00040E                     u3110:
  9852   00040E                     
  9853                           ; BSR set to: 0
  9854   00040E  C087  F08F         	movff	___fladd@b,??___fladd
  9855   000412  C088  F090         	movff	___fladd@b+1,??___fladd+1
  9856   000416  C089  F091         	movff	___fladd@b+2,??___fladd+2
  9857   00041A  C08A  F092         	movff	___fladd@b+3,??___fladd+3
  9858   00041E  3592               	rlcf	(??___fladd+3)& (0+255),w,b
  9859   000420  3392               	rrcf	(??___fladd+3)& (0+255),f,b
  9860   000422  3391               	rrcf	(??___fladd+2)& (0+255),f,b
  9861   000424  3390               	rrcf	(??___fladd+1)& (0+255),f,b
  9862   000426  338F               	rrcf	??___fladd& (0+255),f,b
  9863   000428  C08F  F087         	movff	??___fladd,___fladd@b
  9864   00042C  C090  F088         	movff	??___fladd+1,___fladd@b+1
  9865   000430  C091  F089         	movff	??___fladd+2,___fladd@b+2
  9866   000434  C092  F08A         	movff	??___fladd+3,___fladd@b+3
  9867   000438  2995               	incf	___fladd@bexp& (0+255),w,b
  9868   00043A  B4D8               	btfsc	status,2,c
  9869   00043C  EF22  F002         	goto	u3121
  9870   000440  EF24  F002         	goto	u3120
  9871   000444                     u3121:
  9872   000444  EF25  F002         	goto	l3013
  9873   000448                     u3120:
  9874   000448                     
  9875                           ; BSR set to: 0
  9876   000448  2B95               	incf	___fladd@bexp& (0+255),f,b
  9877   00044A                     l3013:
  9878                           
  9879                           ; BSR set to: 0
  9880   00044A  2995               	incf	___fladd@bexp& (0+255),w,b
  9881   00044C  B4D8               	btfsc	status,2,c
  9882   00044E  EF2B  F002         	goto	u3131
  9883   000452  EF2D  F002         	goto	u3130
  9884   000456                     u3131:
  9885   000456  EF35  F002         	goto	l3017
  9886   00045A                     u3130:
  9887   00045A                     
  9888                           ; BSR set to: 0
  9889   00045A  5195               	movf	___fladd@bexp& (0+255),w,b
  9890   00045C  A4D8               	btfss	status,2,c
  9891   00045E  EF33  F002         	goto	u3141
  9892   000462  EF35  F002         	goto	u3140
  9893   000466                     u3141:
  9894   000466  EF46  F002         	goto	l907
  9895   00046A                     u3140:
  9896   00046A                     l3017:
  9897                           
  9898                           ; BSR set to: 0
  9899   00046A  0E00               	movlw	0
  9900   00046C  6F87               	movwf	___fladd@b& (0+255),b
  9901   00046E  0E00               	movlw	0
  9902   000470  6F88               	movwf	(___fladd@b+1)& (0+255),b
  9903   000472  0E00               	movlw	0
  9904   000474  6F89               	movwf	(___fladd@b+2)& (0+255),b
  9905   000476  0E00               	movlw	0
  9906   000478  6F8A               	movwf	(___fladd@b+3)& (0+255),b
  9907   00047A  5195               	movf	___fladd@bexp& (0+255),w,b
  9908   00047C  A4D8               	btfss	status,2,c
  9909   00047E  EF43  F002         	goto	u3151
  9910   000482  EF45  F002         	goto	u3150
  9911   000486                     u3151:
  9912   000486  EF46  F002         	goto	l907
  9913   00048A                     u3150:
  9914   00048A                     
  9915                           ; BSR set to: 0
  9916   00048A  6B93               	clrf	___fladd@signs& (0+255),b
  9917   00048C                     l907:
  9918                           
  9919                           ; BSR set to: 0
  9920   00048C  A195               	btfss	___fladd@bexp& (0+255),0,b
  9921   00048E  EF4B  F002         	goto	u3161
  9922   000492  EF4D  F002         	goto	u3160
  9923   000496                     u3161:
  9924   000496  EF50  F002         	goto	l3023
  9925   00049A                     u3160:
  9926   00049A                     
  9927                           ; BSR set to: 0
  9928   00049A  8F89               	bsf	(___fladd@b+2)& (0+255),7,b
  9929   00049C  EF51  F002         	goto	l3025
  9930   0004A0                     l3023:
  9931                           
  9932                           ; BSR set to: 0
  9933   0004A0  9F89               	bcf	(___fladd@b+2)& (0+255),7,b
  9934   0004A2                     l3025:
  9935                           
  9936                           ; BSR set to: 0
  9937   0004A2  90D8               	bcf	status,0,c
  9938   0004A4  3195               	rrcf	___fladd@bexp& (0+255),w,b
  9939   0004A6  6F8A               	movwf	(___fladd@b+3)& (0+255),b
  9940   0004A8                     
  9941                           ; BSR set to: 0
  9942   0004A8  AF93               	btfss	___fladd@signs& (0+255),7,b
  9943   0004AA  EF59  F002         	goto	u3171
  9944   0004AE  EF5B  F002         	goto	u3170
  9945   0004B2                     u3171:
  9946   0004B2  EF5C  F002         	goto	l3031
  9947   0004B6                     u3170:
  9948   0004B6                     
  9949                           ; BSR set to: 0
  9950   0004B6  8F8A               	bsf	(___fladd@b+3)& (0+255),7,b
  9951   0004B8                     l3031:
  9952                           
  9953                           ; BSR set to: 0
  9954   0004B8  C087  F087         	movff	___fladd@b,?___fladd
  9955   0004BC  C088  F088         	movff	___fladd@b+1,?___fladd+1
  9956   0004C0  C089  F089         	movff	___fladd@b+2,?___fladd+2
  9957   0004C4  C08A  F08A         	movff	___fladd@b+3,?___fladd+3
  9958   0004C8                     l883:
  9959                           
  9960                           ; BSR set to: 0
  9961   0004C8  0012               	return		;funcret
  9962   0004CA                     __end_of___fladd:
  9963                           	callstack 0
  9964                           
  9965 ;; *************** function ___xxtofl *****************
  9966 ;; Defined at:
  9967 ;;		line 10 in file "C:\Program Files\Microchip\xc8\v3.00\pic\sources\c99\common\xxtofl.c"
  9968 ;; Parameters:    Size  Location     Type
  9969 ;;  sign            1    wreg     unsigned char 
  9970 ;;  val             4    0[BANK0 ] long 
  9971 ;; Auto vars:     Size  Location     Type
  9972 ;;  sign            1    8[BANK0 ] unsigned char 
  9973 ;;  arg             4   10[BANK0 ] unsigned long 
  9974 ;;  exp             1    9[BANK0 ] unsigned char 
  9975 ;; Return value:  Size  Location     Type
  9976 ;;                  4    0[BANK0 ] unsigned char 
  9977 ;; Registers used:
  9978 ;;		wreg, status,2, status,0
  9979 ;; Tracked objects:
  9980 ;;		On entry : 0/0
  9981 ;;		On exit  : 0/0
  9982 ;;		Unchanged: 0/0
  9983 ;; Data sizes:     COMRAM   BANK0   BANK1   BANK2   BANK3   BANK4   BANK5   BANK6   BANK7
  9984 ;;      Params:         0       4       0       0       0       0       0       0       0
  9985 ;;      Locals:         0       6       0       0       0       0       0       0       0
  9986 ;;      Temps:          0       4       0       0       0       0       0       0       0
  9987 ;;      Totals:         0      14       0       0       0       0       0       0       0
  9988 ;;Total ram usage:       14 bytes
  9989 ;; Hardware stack levels used: 1
  9990 ;; Hardware stack levels required when called: 7
  9991 ;; This function calls:
  9992 ;;		Nothing
  9993 ;; This function is called by:
  9994 ;;		_Joystick_ADC
  9995 ;;		_GY_ADC
  9996 ;; This function uses a non-reentrant model
  9997 ;;
  9998                           
  9999                           	psect	text42
 10000   002492                     __ptext42:
 10001                           	callstack 0
 10002   002492                     ___xxtofl:
 10003                           	callstack 22
 10004                           
 10005                           ; BSR set to: 0
 10006                           ;incstack = 0
 10007                           ;___xxtofl@sign stored from wreg
 10008   002492  0100               	movlb	0	; () banked
 10009   002494  6F68               	movwf	___xxtofl@sign& (0+255),b
 10010   002496  0100               	movlb	0	; () banked
 10011   002498  5168               	movf	___xxtofl@sign& (0+255),w,b
 10012   00249A  B4D8               	btfsc	status,2,c
 10013   00249C  EF52  F012         	goto	u4081
 10014   0024A0  EF54  F012         	goto	u4080
 10015   0024A4                     u4081:
 10016   0024A4  EF76  F012         	goto	l1001
 10017   0024A8                     u4080:
 10018   0024A8                     
 10019                           ; BSR set to: 0
 10020   0024A8  BF63               	btfsc	(___xxtofl@val+3)& (0+255),7,b
 10021   0024AA  EF5B  F012         	goto	u4090
 10022   0024AE  EF59  F012         	goto	u4091
 10023   0024B2                     u4091:
 10024   0024B2  EF76  F012         	goto	l1001
 10025   0024B6                     u4090:
 10026   0024B6                     
 10027                           ; BSR set to: 0
 10028   0024B6  C060  F064         	movff	___xxtofl@val,??___xxtofl
 10029   0024BA  C061  F065         	movff	___xxtofl@val+1,??___xxtofl+1
 10030   0024BE  C062  F066         	movff	___xxtofl@val+2,??___xxtofl+2
 10031   0024C2  C063  F067         	movff	___xxtofl@val+3,??___xxtofl+3
 10032   0024C6  1F64               	comf	??___xxtofl& (0+255),f,b
 10033   0024C8  1F65               	comf	(??___xxtofl+1)& (0+255),f,b
 10034   0024CA  1F66               	comf	(??___xxtofl+2)& (0+255),f,b
 10035   0024CC  1F67               	comf	(??___xxtofl+3)& (0+255),f,b
 10036   0024CE  2B64               	incf	??___xxtofl& (0+255),f,b
 10037   0024D0  0E00               	movlw	0
 10038   0024D2  2365               	addwfc	(??___xxtofl+1)& (0+255),f,b
 10039   0024D4  2366               	addwfc	(??___xxtofl+2)& (0+255),f,b
 10040   0024D6  2367               	addwfc	(??___xxtofl+3)& (0+255),f,b
 10041   0024D8  C064  F06A         	movff	??___xxtofl,___xxtofl@arg
 10042   0024DC  C065  F06B         	movff	??___xxtofl+1,___xxtofl@arg+1
 10043   0024E0  C066  F06C         	movff	??___xxtofl+2,___xxtofl@arg+2
 10044   0024E4  C067  F06D         	movff	??___xxtofl+3,___xxtofl@arg+3
 10045   0024E8  EF7E  F012         	goto	l3585
 10046   0024EC                     l1001:
 10047                           
 10048                           ; BSR set to: 0
 10049   0024EC  C060  F06A         	movff	___xxtofl@val,___xxtofl@arg
 10050   0024F0  C061  F06B         	movff	___xxtofl@val+1,___xxtofl@arg+1
 10051   0024F4  C062  F06C         	movff	___xxtofl@val+2,___xxtofl@arg+2
 10052   0024F8  C063  F06D         	movff	___xxtofl@val+3,___xxtofl@arg+3
 10053   0024FC                     l3585:
 10054                           
 10055                           ; BSR set to: 0
 10056   0024FC  5160               	movf	___xxtofl@val& (0+255),w,b
 10057   0024FE  1161               	iorwf	(___xxtofl@val+1)& (0+255),w,b
 10058   002500  1162               	iorwf	(___xxtofl@val+2)& (0+255),w,b
 10059   002502  1163               	iorwf	(___xxtofl@val+3)& (0+255),w,b
 10060   002504  A4D8               	btfss	status,2,c
 10061   002506  EF87  F012         	goto	u4101
 10062   00250A  EF89  F012         	goto	u4100
 10063   00250E                     u4101:
 10064   00250E  EF93  F012         	goto	l3591
 10065   002512                     u4100:
 10066   002512                     
 10067                           ; BSR set to: 0
 10068   002512  0E00               	movlw	0
 10069   002514  6F60               	movwf	?___xxtofl& (0+255),b
 10070   002516  0E00               	movlw	0
 10071   002518  6F61               	movwf	(?___xxtofl+1)& (0+255),b
 10072   00251A  0E00               	movlw	0
 10073   00251C  6F62               	movwf	(?___xxtofl+2)& (0+255),b
 10074   00251E  0E00               	movlw	0
 10075   002520  6F63               	movwf	(?___xxtofl+3)& (0+255),b
 10076   002522  EF24  F013         	goto	l1004
 10077   002526                     l3591:
 10078                           
 10079                           ; BSR set to: 0
 10080   002526  0E96               	movlw	150
 10081   002528  6F69               	movwf	___xxtofl@exp& (0+255),b
 10082   00252A  EF9D  F012         	goto	l3595
 10083   00252E                     l3593:
 10084                           
 10085                           ; BSR set to: 0
 10086   00252E  2B69               	incf	___xxtofl@exp& (0+255),f,b
 10087   002530  90D8               	bcf	status,0,c
 10088   002532  336D               	rrcf	(___xxtofl@arg+3)& (0+255),f,b
 10089   002534  336C               	rrcf	(___xxtofl@arg+2)& (0+255),f,b
 10090   002536  336B               	rrcf	(___xxtofl@arg+1)& (0+255),f,b
 10091   002538  336A               	rrcf	___xxtofl@arg& (0+255),f,b
 10092   00253A                     l3595:
 10093                           
 10094                           ; BSR set to: 0
 10095   00253A  0E00               	movlw	0
 10096   00253C  156A               	andwf	___xxtofl@arg& (0+255),w,b
 10097   00253E  6F64               	movwf	??___xxtofl& (0+255),b
 10098   002540  0E00               	movlw	0
 10099   002542  156B               	andwf	(___xxtofl@arg+1)& (0+255),w,b
 10100   002544  6F65               	movwf	(??___xxtofl+1)& (0+255),b
 10101   002546  0E00               	movlw	0
 10102   002548  156C               	andwf	(___xxtofl@arg+2)& (0+255),w,b
 10103   00254A  6F66               	movwf	(??___xxtofl+2)& (0+255),b
 10104   00254C  0EFE               	movlw	254
 10105   00254E  156D               	andwf	(___xxtofl@arg+3)& (0+255),w,b
 10106   002550  6F67               	movwf	(??___xxtofl+3)& (0+255),b
 10107   002552  5164               	movf	??___xxtofl& (0+255),w,b
 10108   002554  1165               	iorwf	(??___xxtofl+1)& (0+255),w,b
 10109   002556  1166               	iorwf	(??___xxtofl+2)& (0+255),w,b
 10110   002558  1167               	iorwf	(??___xxtofl+3)& (0+255),w,b
 10111   00255A  A4D8               	btfss	status,2,c
 10112   00255C  EFB2  F012         	goto	u4111
 10113   002560  EFB4  F012         	goto	u4110
 10114   002564                     u4111:
 10115   002564  EF97  F012         	goto	l3593
 10116   002568                     u4110:
 10117   002568  EFC2  F012         	goto	l1008
 10118   00256C                     l3597:
 10119                           
 10120                           ; BSR set to: 0
 10121   00256C  2B69               	incf	___xxtofl@exp& (0+255),f,b
 10122   00256E                     
 10123                           ; BSR set to: 0
 10124   00256E  0E01               	movlw	1
 10125   002570  276A               	addwf	___xxtofl@arg& (0+255),f,b
 10126   002572  0E00               	movlw	0
 10127   002574  236B               	addwfc	(___xxtofl@arg+1)& (0+255),f,b
 10128   002576  236C               	addwfc	(___xxtofl@arg+2)& (0+255),f,b
 10129   002578  236D               	addwfc	(___xxtofl@arg+3)& (0+255),f,b
 10130   00257A                     
 10131                           ; BSR set to: 0
 10132   00257A  90D8               	bcf	status,0,c
 10133   00257C  336D               	rrcf	(___xxtofl@arg+3)& (0+255),f,b
 10134   00257E  336C               	rrcf	(___xxtofl@arg+2)& (0+255),f,b
 10135   002580  336B               	rrcf	(___xxtofl@arg+1)& (0+255),f,b
 10136   002582  336A               	rrcf	___xxtofl@arg& (0+255),f,b
 10137   002584                     l1008:
 10138                           
 10139                           ; BSR set to: 0
 10140   002584  0E00               	movlw	0
 10141   002586  156A               	andwf	___xxtofl@arg& (0+255),w,b
 10142   002588  6F64               	movwf	??___xxtofl& (0+255),b
 10143   00258A  0E00               	movlw	0
 10144   00258C  156B               	andwf	(___xxtofl@arg+1)& (0+255),w,b
 10145   00258E  6F65               	movwf	(??___xxtofl+1)& (0+255),b
 10146   002590  0E00               	movlw	0
 10147   002592  156C               	andwf	(___xxtofl@arg+2)& (0+255),w,b
 10148   002594  6F66               	movwf	(??___xxtofl+2)& (0+255),b
 10149   002596  0EFF               	movlw	255
 10150   002598  156D               	andwf	(___xxtofl@arg+3)& (0+255),w,b
 10151   00259A  6F67               	movwf	(??___xxtofl+3)& (0+255),b
 10152   00259C  5164               	movf	??___xxtofl& (0+255),w,b
 10153   00259E  1165               	iorwf	(??___xxtofl+1)& (0+255),w,b
 10154   0025A0  1166               	iorwf	(??___xxtofl+2)& (0+255),w,b
 10155   0025A2  1167               	iorwf	(??___xxtofl+3)& (0+255),w,b
 10156   0025A4  A4D8               	btfss	status,2,c
 10157   0025A6  EFD7  F012         	goto	u4121
 10158   0025AA  EFD9  F012         	goto	u4120
 10159   0025AE                     u4121:
 10160   0025AE  EFB6  F012         	goto	l3597
 10161   0025B2                     u4120:
 10162   0025B2  EFE1  F012         	goto	l3605
 10163   0025B6                     l3603:
 10164                           
 10165                           ; BSR set to: 0
 10166   0025B6  0769               	decf	___xxtofl@exp& (0+255),f,b
 10167   0025B8  90D8               	bcf	status,0,c
 10168   0025BA  376A               	rlcf	___xxtofl@arg& (0+255),f,b
 10169   0025BC  376B               	rlcf	(___xxtofl@arg+1)& (0+255),f,b
 10170   0025BE  376C               	rlcf	(___xxtofl@arg+2)& (0+255),f,b
 10171   0025C0  376D               	rlcf	(___xxtofl@arg+3)& (0+255),f,b
 10172   0025C2                     l3605:
 10173                           
 10174                           ; BSR set to: 0
 10175   0025C2  BF6C               	btfsc	(___xxtofl@arg+2)& (0+255),7,b
 10176   0025C4  EFE6  F012         	goto	u4131
 10177   0025C8  EFE8  F012         	goto	u4130
 10178   0025CC                     u4131:
 10179   0025CC  EFF0  F012         	goto	l1015
 10180   0025D0                     u4130:
 10181   0025D0                     
 10182                           ; BSR set to: 0
 10183   0025D0  0E02               	movlw	2
 10184   0025D2  6169               	cpfslt	___xxtofl@exp& (0+255),b
 10185   0025D4  EFEE  F012         	goto	u4141
 10186   0025D8  EFF0  F012         	goto	u4140
 10187   0025DC                     u4141:
 10188   0025DC  EFDB  F012         	goto	l3603
 10189   0025E0                     u4140:
 10190   0025E0                     l1015:
 10191                           
 10192                           ; BSR set to: 0
 10193   0025E0  B169               	btfsc	___xxtofl@exp& (0+255),0,b
 10194   0025E2  EFF5  F012         	goto	u4151
 10195   0025E6  EFF7  F012         	goto	u4150
 10196   0025EA                     u4151:
 10197   0025EA  EFF8  F012         	goto	l3611
 10198   0025EE                     u4150:
 10199   0025EE                     
 10200                           ; BSR set to: 0
 10201   0025EE  9F6C               	bcf	(___xxtofl@arg+2)& (0+255),7,b
 10202   0025F0                     l3611:
 10203                           
 10204                           ; BSR set to: 0
 10205   0025F0  90D8               	bcf	status,0,c
 10206   0025F2  3369               	rrcf	___xxtofl@exp& (0+255),f,b
 10207   0025F4                     
 10208                           ; BSR set to: 0
 10209   0025F4  C069  F064         	movff	___xxtofl@exp,??___xxtofl
 10210   0025F8  6B65               	clrf	(??___xxtofl+1)& (0+255),b
 10211   0025FA  6B66               	clrf	(??___xxtofl+2)& (0+255),b
 10212   0025FC  6B67               	clrf	(??___xxtofl+3)& (0+255),b
 10213   0025FE  C064  F067         	movff	??___xxtofl,??___xxtofl+3
 10214   002602  6B66               	clrf	(??___xxtofl+2)& (0+255),b
 10215   002604  6B65               	clrf	(??___xxtofl+1)& (0+255),b
 10216   002606  6B64               	clrf	??___xxtofl& (0+255),b
 10217   002608  5164               	movf	??___xxtofl& (0+255),w,b
 10218   00260A  136A               	iorwf	___xxtofl@arg& (0+255),f,b
 10219   00260C  5165               	movf	(??___xxtofl+1)& (0+255),w,b
 10220   00260E  136B               	iorwf	(___xxtofl@arg+1)& (0+255),f,b
 10221   002610  5166               	movf	(??___xxtofl+2)& (0+255),w,b
 10222   002612  136C               	iorwf	(___xxtofl@arg+2)& (0+255),f,b
 10223   002614  5167               	movf	(??___xxtofl+3)& (0+255),w,b
 10224   002616  136D               	iorwf	(___xxtofl@arg+3)& (0+255),f,b
 10225   002618                     
 10226                           ; BSR set to: 0
 10227   002618  5168               	movf	___xxtofl@sign& (0+255),w,b
 10228   00261A  B4D8               	btfsc	status,2,c
 10229   00261C  EF12  F013         	goto	u4161
 10230   002620  EF14  F013         	goto	u4160
 10231   002624                     u4161:
 10232   002624  EF1C  F013         	goto	l3621
 10233   002628                     u4160:
 10234   002628                     
 10235                           ; BSR set to: 0
 10236   002628  BF63               	btfsc	(___xxtofl@val+3)& (0+255),7,b
 10237   00262A  EF1B  F013         	goto	u4170
 10238   00262E  EF19  F013         	goto	u4171
 10239   002632                     u4171:
 10240   002632  EF1C  F013         	goto	l3621
 10241   002636                     u4170:
 10242   002636                     
 10243                           ; BSR set to: 0
 10244   002636  8F6D               	bsf	(___xxtofl@arg+3)& (0+255),7,b
 10245   002638                     l3621:
 10246                           
 10247                           ; BSR set to: 0
 10248   002638  C06A  F060         	movff	___xxtofl@arg,?___xxtofl
 10249   00263C  C06B  F061         	movff	___xxtofl@arg+1,?___xxtofl+1
 10250   002640  C06C  F062         	movff	___xxtofl@arg+2,?___xxtofl+2
 10251   002644  C06D  F063         	movff	___xxtofl@arg+3,?___xxtofl+3
 10252   002648                     l1004:
 10253                           
 10254                           ; BSR set to: 0
 10255   002648  0012               	return		;funcret
 10256   00264A                     __end_of___xxtofl:
 10257                           	callstack 0
 10258                           
 10259 ;; *************** function ___flge *****************
 10260 ;; Defined at:
 10261 ;;		line 4 in file "C:\Program Files\Microchip\xc8\v3.00\pic\sources\c99\common\flge.c"
 10262 ;; Parameters:    Size  Location     Type
 10263 ;;  ff1             4    0[BANK0 ] unsigned char 
 10264 ;;  ff2             4    4[BANK0 ] unsigned char 
 10265 ;; Auto vars:     Size  Location     Type
 10266 ;;		None
 10267 ;; Return value:  Size  Location     Type
 10268 ;;		None               void
 10269 ;; Registers used:
 10270 ;;		wreg, status,2, status,0
 10271 ;; Tracked objects:
 10272 ;;		On entry : 0/0
 10273 ;;		On exit  : 0/0
 10274 ;;		Unchanged: 0/0
 10275 ;; Data sizes:     COMRAM   BANK0   BANK1   BANK2   BANK3   BANK4   BANK5   BANK6   BANK7
 10276 ;;      Params:         0       8       0       0       0       0       0       0       0
 10277 ;;      Locals:         0       0       0       0       0       0       0       0       0
 10278 ;;      Temps:          0       4       0       0       0       0       0       0       0
 10279 ;;      Totals:         0      12       0       0       0       0       0       0       0
 10280 ;;Total ram usage:       12 bytes
 10281 ;; Hardware stack levels used: 1
 10282 ;; Hardware stack levels required when called: 7
 10283 ;; This function calls:
 10284 ;;		Nothing
 10285 ;; This function is called by:
 10286 ;;		_GY_ADC
 10287 ;; This function uses a non-reentrant model
 10288 ;;
 10289                           
 10290                           	psect	text43
 10291   0029FA                     __ptext43:
 10292                           	callstack 0
 10293   0029FA                     ___flge:
 10294                           	callstack 22
 10295   0029FA  0E00               	movlw	0
 10296   0029FC  0100               	movlb	0	; () banked
 10297   0029FE  1560               	andwf	___flge@ff1& (0+255),w,b
 10298   002A00  6F68               	movwf	??___flge& (0+255),b
 10299   002A02  0E00               	movlw	0
 10300   002A04  1561               	andwf	(___flge@ff1+1)& (0+255),w,b
 10301   002A06  6F69               	movwf	(??___flge+1)& (0+255),b
 10302   002A08  0E80               	movlw	128
 10303   002A0A  1562               	andwf	(___flge@ff1+2)& (0+255),w,b
 10304   002A0C  6F6A               	movwf	(??___flge+2)& (0+255),b
 10305   002A0E  0E7F               	movlw	127
 10306   002A10  1563               	andwf	(___flge@ff1+3)& (0+255),w,b
 10307   002A12  6F6B               	movwf	(??___flge+3)& (0+255),b
 10308   002A14  5168               	movf	??___flge& (0+255),w,b
 10309   002A16  1169               	iorwf	(??___flge+1)& (0+255),w,b
 10310   002A18  116A               	iorwf	(??___flge+2)& (0+255),w,b
 10311   002A1A  116B               	iorwf	(??___flge+3)& (0+255),w,b
 10312   002A1C  A4D8               	btfss	status,2,c
 10313   002A1E  EF13  F015         	goto	u4031
 10314   002A22  EF15  F015         	goto	u4030
 10315   002A26                     u4031:
 10316   002A26  EF1D  F015         	goto	l3561
 10317   002A2A                     u4030:
 10318   002A2A                     
 10319                           ; BSR set to: 0
 10320   002A2A  0E00               	movlw	0
 10321   002A2C  6F60               	movwf	___flge@ff1& (0+255),b
 10322   002A2E  0E00               	movlw	0
 10323   002A30  6F61               	movwf	(___flge@ff1+1)& (0+255),b
 10324   002A32  0E00               	movlw	0
 10325   002A34  6F62               	movwf	(___flge@ff1+2)& (0+255),b
 10326   002A36  0E00               	movlw	0
 10327   002A38  6F63               	movwf	(___flge@ff1+3)& (0+255),b
 10328   002A3A                     l3561:
 10329                           
 10330                           ; BSR set to: 0
 10331   002A3A  0E00               	movlw	0
 10332   002A3C  1564               	andwf	___flge@ff2& (0+255),w,b
 10333   002A3E  6F68               	movwf	??___flge& (0+255),b
 10334   002A40  0E00               	movlw	0
 10335   002A42  1565               	andwf	(___flge@ff2+1)& (0+255),w,b
 10336   002A44  6F69               	movwf	(??___flge+1)& (0+255),b
 10337   002A46  0E80               	movlw	128
 10338   002A48  1566               	andwf	(___flge@ff2+2)& (0+255),w,b
 10339   002A4A  6F6A               	movwf	(??___flge+2)& (0+255),b
 10340   002A4C  0E7F               	movlw	127
 10341   002A4E  1567               	andwf	(___flge@ff2+3)& (0+255),w,b
 10342   002A50  6F6B               	movwf	(??___flge+3)& (0+255),b
 10343   002A52  5168               	movf	??___flge& (0+255),w,b
 10344   002A54  1169               	iorwf	(??___flge+1)& (0+255),w,b
 10345   002A56  116A               	iorwf	(??___flge+2)& (0+255),w,b
 10346   002A58  116B               	iorwf	(??___flge+3)& (0+255),w,b
 10347   002A5A  A4D8               	btfss	status,2,c
 10348   002A5C  EF32  F015         	goto	u4041
 10349   002A60  EF34  F015         	goto	u4040
 10350   002A64                     u4041:
 10351   002A64  EF3C  F015         	goto	l3565
 10352   002A68                     u4040:
 10353   002A68                     
 10354                           ; BSR set to: 0
 10355   002A68  0E00               	movlw	0
 10356   002A6A  6F64               	movwf	___flge@ff2& (0+255),b
 10357   002A6C  0E00               	movlw	0
 10358   002A6E  6F65               	movwf	(___flge@ff2+1)& (0+255),b
 10359   002A70  0E00               	movlw	0
 10360   002A72  6F66               	movwf	(___flge@ff2+2)& (0+255),b
 10361   002A74  0E00               	movlw	0
 10362   002A76  6F67               	movwf	(___flge@ff2+3)& (0+255),b
 10363   002A78                     l3565:
 10364                           
 10365                           ; BSR set to: 0
 10366   002A78  AF63               	btfss	(___flge@ff1+3)& (0+255),7,b
 10367   002A7A  EF41  F015         	goto	u4051
 10368   002A7E  EF43  F015         	goto	u4050
 10369   002A82                     u4051:
 10370   002A82  EF4C  F015         	goto	l3569
 10371   002A86                     u4050:
 10372   002A86                     
 10373                           ; BSR set to: 0
 10374   002A86  6D60               	negf	___flge@ff1& (0+255),b
 10375   002A88  1F61               	comf	(___flge@ff1+1)& (0+255),f,b
 10376   002A8A  B0D8               	btfsc	status,0,c
 10377   002A8C  2B61               	incf	(___flge@ff1+1)& (0+255),f,b
 10378   002A8E  1F62               	comf	(___flge@ff1+2)& (0+255),f,b
 10379   002A90  B0D8               	btfsc	status,0,c
 10380   002A92  2B62               	incf	(___flge@ff1+2)& (0+255),f,b
 10381   002A94  0E80               	movlw	128
 10382   002A96  5763               	subfwb	(___flge@ff1+3)& (0+255),f,b
 10383   002A98                     l3569:
 10384                           
 10385                           ; BSR set to: 0
 10386   002A98  AF67               	btfss	(___flge@ff2+3)& (0+255),7,b
 10387   002A9A  EF51  F015         	goto	u4061
 10388   002A9E  EF53  F015         	goto	u4060
 10389   002AA2                     u4061:
 10390   002AA2  EF5C  F015         	goto	l611
 10391   002AA6                     u4060:
 10392   002AA6                     
 10393                           ; BSR set to: 0
 10394   002AA6  6D64               	negf	___flge@ff2& (0+255),b
 10395   002AA8  1F65               	comf	(___flge@ff2+1)& (0+255),f,b
 10396   002AAA  B0D8               	btfsc	status,0,c
 10397   002AAC  2B65               	incf	(___flge@ff2+1)& (0+255),f,b
 10398   002AAE  1F66               	comf	(___flge@ff2+2)& (0+255),f,b
 10399   002AB0  B0D8               	btfsc	status,0,c
 10400   002AB2  2B66               	incf	(___flge@ff2+2)& (0+255),f,b
 10401   002AB4  0E80               	movlw	128
 10402   002AB6  5767               	subfwb	(___flge@ff2+3)& (0+255),f,b
 10403   002AB8                     l611:
 10404                           
 10405                           ; BSR set to: 0
 10406   002AB8  0E00               	movlw	0
 10407   002ABA  1B60               	xorwf	___flge@ff1& (0+255),f,b
 10408   002ABC  0E00               	movlw	0
 10409   002ABE  1B61               	xorwf	(___flge@ff1+1)& (0+255),f,b
 10410   002AC0  0E00               	movlw	0
 10411   002AC2  1B62               	xorwf	(___flge@ff1+2)& (0+255),f,b
 10412   002AC4  0E80               	movlw	128
 10413   002AC6  1B63               	xorwf	(___flge@ff1+3)& (0+255),f,b
 10414   002AC8  0E00               	movlw	0
 10415   002ACA  1B64               	xorwf	___flge@ff2& (0+255),f,b
 10416   002ACC  0E00               	movlw	0
 10417   002ACE  1B65               	xorwf	(___flge@ff2+1)& (0+255),f,b
 10418   002AD0  0E00               	movlw	0
 10419   002AD2  1B66               	xorwf	(___flge@ff2+2)& (0+255),f,b
 10420   002AD4  0E80               	movlw	128
 10421   002AD6  1B67               	xorwf	(___flge@ff2+3)& (0+255),f,b
 10422   002AD8  5164               	movf	___flge@ff2& (0+255),w,b
 10423   002ADA  5D60               	subwf	___flge@ff1& (0+255),w,b
 10424   002ADC  5165               	movf	(___flge@ff2+1)& (0+255),w,b
 10425   002ADE  5961               	subwfb	(___flge@ff1+1)& (0+255),w,b
 10426   002AE0  5166               	movf	(___flge@ff2+2)& (0+255),w,b
 10427   002AE2  5962               	subwfb	(___flge@ff1+2)& (0+255),w,b
 10428   002AE4  5167               	movf	(___flge@ff2+3)& (0+255),w,b
 10429   002AE6  5963               	subwfb	(___flge@ff1+3)& (0+255),w,b
 10430   002AE8  B0D8               	btfsc	status,0,c
 10431   002AEA  EF79  F015         	goto	u4071
 10432   002AEE  EF7B  F015         	goto	u4070
 10433   002AF2                     u4071:
 10434   002AF2  EF7E  F015         	goto	l3575
 10435   002AF6                     u4070:
 10436   002AF6                     
 10437                           ; BSR set to: 0
 10438   002AF6  90D8               	bcf	status,0,c
 10439   002AF8  EF7F  F015         	goto	l616
 10440   002AFC                     l3575:
 10441                           
 10442                           ; BSR set to: 0
 10443   002AFC  80D8               	bsf	status,0,c
 10444   002AFE                     l616:
 10445                           
 10446                           ; BSR set to: 0
 10447   002AFE  0012               	return		;funcret
 10448   002B00                     __end_of___flge:
 10449                           	callstack 0
 10450                           
 10451 ;; *************** function _Config_ADC *****************
 10452 ;; Defined at:
 10453 ;;		line 365 in file "main.c"
 10454 ;; Parameters:    Size  Location     Type
 10455 ;;		None
 10456 ;; Auto vars:     Size  Location     Type
 10457 ;;		None
 10458 ;; Return value:  Size  Location     Type
 10459 ;;                  1    wreg      void 
 10460 ;; Registers used:
 10461 ;;		wreg
 10462 ;; Tracked objects:
 10463 ;;		On entry : 0/0
 10464 ;;		On exit  : 0/0
 10465 ;;		Unchanged: 0/0
 10466 ;; Data sizes:     COMRAM   BANK0   BANK1   BANK2   BANK3   BANK4   BANK5   BANK6   BANK7
 10467 ;;      Params:         0       0       0       0       0       0       0       0       0
 10468 ;;      Locals:         0       0       0       0       0       0       0       0       0
 10469 ;;      Temps:          0       2       0       0       0       0       0       0       0
 10470 ;;      Totals:         0       2       0       0       0       0       0       0       0
 10471 ;;Total ram usage:        2 bytes
 10472 ;; Hardware stack levels used: 1
 10473 ;; Hardware stack levels required when called: 7
 10474 ;; This function calls:
 10475 ;;		Nothing
 10476 ;; This function is called by:
 10477 ;;		_main
 10478 ;; This function uses a non-reentrant model
 10479 ;;
 10480                           
 10481                           	psect	text44
 10482   00351E                     __ptext44:
 10483                           	callstack 0
 10484   00351E                     _Config_ADC:
 10485                           	callstack 23
 10486   00351E                     
 10487                           ;main.c: 367:     PCFG3 = 1;
 10488   00351E  86C1               	bsf	4033,3,c	;volatile
 10489                           
 10490                           ;main.c: 368:     PCFG2 = 0;
 10491   003520  94C1               	bcf	4033,2,c	;volatile
 10492                           
 10493                           ;main.c: 369:     PCFG1 = 1;
 10494   003522  82C1               	bsf	4033,1,c	;volatile
 10495                           
 10496                           ;main.c: 370:     PCFG0 = 1;
 10497   003524  80C1               	bsf	4033,0,c	;volatile
 10498                           
 10499                           ;main.c: 371:     ADFM = 1;
 10500   003526  8EC0               	bsf	4032,7,c	;volatile
 10501                           
 10502                           ;main.c: 372:     ADCS2 = 0;
 10503   003528  94C0               	bcf	4032,2,c	;volatile
 10504                           
 10505                           ;main.c: 373:     ADCS1 = 1;
 10506   00352A  82C0               	bsf	4032,1,c	;volatile
 10507                           
 10508                           ;main.c: 374:     ADCS0 = 0;
 10509   00352C  90C0               	bcf	4032,0,c	;volatile
 10510                           
 10511                           ;main.c: 375:     ADON = 1;
 10512   00352E  80C2               	bsf	4034,0,c	;volatile
 10513   003530                     
 10514                           ;main.c: 376:     _delay((unsigned long)((100)*(16000000/4000.0)));
 10515   003530  0E03               	movlw	3
 10516   003532  0100               	movlb	0	; () banked
 10517   003534  6F61               	movwf	(??_Config_ADC+1)& (0+255),b
 10518   003536  0E08               	movlw	8
 10519   003538  6F60               	movwf	??_Config_ADC& (0+255),b
 10520   00353A  0E77               	movlw	119
 10521   00353C                     u5497:
 10522   00353C  2EE8               	decfsz	wreg,f,c
 10523   00353E  D7FE               	bra	u5497
 10524   003540  2F60               	decfsz	??_Config_ADC& (0+255),f,b
 10525   003542  D7FC               	bra	u5497
 10526   003544  2F61               	decfsz	(??_Config_ADC+1)& (0+255),f,b
 10527   003546  D7FA               	bra	u5497
 10528   003548  0012               	return		;funcret
 10529   00354A                     __end_of_Config_ADC:
 10530                           	callstack 0
 10531                           
 10532 ;; *************** function _ISR *****************
 10533 ;; Defined at:
 10534 ;;		line 420 in file "main.c"
 10535 ;; Parameters:    Size  Location     Type
 10536 ;;		None
 10537 ;; Auto vars:     Size  Location     Type
 10538 ;;		None
 10539 ;; Return value:  Size  Location     Type
 10540 ;;                  1    wreg      void 
 10541 ;; Registers used:
 10542 ;;		wreg, fsr1l, fsr1h, fsr2l, fsr2h, status,2, status,0, tblptrl, tblptrh, tblptru, prodl, prodh, cstack
 10543 ;; Tracked objects:
 10544 ;;		On entry : 0/0
 10545 ;;		On exit  : 0/0
 10546 ;;		Unchanged: 0/0
 10547 ;; Data sizes:     COMRAM   BANK0   BANK1   BANK2   BANK3   BANK4   BANK5   BANK6   BANK7
 10548 ;;      Params:         0       0       0       0       0       0       0       0       0
 10549 ;;      Locals:         0       0       0       0       0       0       0       0       0
 10550 ;;      Temps:         12       0       0       0       0       0       0       0       0
 10551 ;;      Totals:        12       0       0       0       0       0       0       0       0
 10552 ;;Total ram usage:       12 bytes
 10553 ;; Hardware stack levels used: 1
 10554 ;; Hardware stack levels required when called: 6
 10555 ;; This function calls:
 10556 ;;		i2_OLED_ClearArea
 10557 ;;		i2_OLED_DrawCentered2x_AtPage
 10558 ;;		i2_UART_WriteString
 10559 ;; This function is called by:
 10560 ;;		Interrupt level 2
 10561 ;; This function uses a non-reentrant model
 10562 ;;
 10563                           
 10564                           	psect	intcode
 10565   000008                     __pintcode:
 10566                           	callstack 0
 10567   000008                     _ISR:
 10568                           	callstack 18
 10569                           
 10570                           ;incstack = 0
 10571   000008  8256               	bsf	int$flags,1,c	;set compiler interrupt flag (level 2)
 10572   00000A  ED4E  F00F         	call	int_func,f	;refresh shadow registers
 10573                           
 10574                           	psect	intcode_body
 10575   001E9C                     __pintcode_body:
 10576                           	callstack 18
 10577   001E9C                     int_func:
 10578                           	callstack 18
 10579   001E9C  0006               	pop		; remove dummy address from shadow register refresh
 10580   001E9E  CFE1 F02B          	movff	fsr1l,??_ISR+2
 10581   001EA2  CFE2 F02C          	movff	fsr1h,??_ISR+3
 10582   001EA6  CFD9 F02D          	movff	fsr2l,??_ISR+4
 10583   001EAA  CFDA F02E          	movff	fsr2h,??_ISR+5
 10584   001EAE  CFF3 F02F          	movff	prodl,??_ISR+6
 10585   001EB2  CFF4 F030          	movff	prodh,??_ISR+7
 10586   001EB6  CFF6 F031          	movff	tblptrl,??_ISR+8
 10587   001EBA  CFF7 F032          	movff	tblptrh,??_ISR+9
 10588   001EBE  CFF8 F033          	movff	tblptru,??_ISR+10
 10589   001EC2  CFF5 F034          	movff	tablat,??_ISR+11
 10590   001EC6                     
 10591                           ;main.c: 421:     if (INT1IF && INT2IF) {
 10592   001EC6  A0F0               	btfss	4080,0,c	;volatile
 10593   001EC8  EF68  F00F         	goto	i2u524_41
 10594   001ECC  EF6A  F00F         	goto	i2u524_40
 10595   001ED0                     i2u524_41:
 10596   001ED0  EF3C  F010         	goto	i2l302
 10597   001ED4                     i2u524_40:
 10598   001ED4  A2F0               	btfss	4080,1,c	;volatile
 10599   001ED6  EF6F  F00F         	goto	i2u525_41
 10600   001EDA  EF71  F00F         	goto	i2u525_40
 10601   001EDE                     i2u525_41:
 10602   001EDE  EF3C  F010         	goto	i2l302
 10603   001EE2                     i2u525_40:
 10604   001EE2                     
 10605                           ;main.c: 423:         emergency_stop_active = 1;
 10606   001EE2  0E00               	movlw	0
 10607   001EE4  0101               	movlb	1	; () banked
 10608   001EE6  6F7F               	movwf	(_emergency_stop_active+1)& (0+255),b	;volatile
 10609   001EE8  0E01               	movlw	1
 10610   001EEA  6F7E               	movwf	_emergency_stop_active& (0+255),b	;volatile
 10611   001EEC                     
 10612                           ; BSR set to: 1
 10613                           ;main.c: 425:         RD5 = 0;
 10614   001EEC  9A83               	bcf	3971,5,c	;volatile
 10615   001EEE                     
 10616                           ; BSR set to: 1
 10617                           ;main.c: 426:         RD6 = 0;
 10618   001EEE  9C83               	bcf	3971,6,c	;volatile
 10619   001EF0                     
 10620                           ; BSR set to: 1
 10621                           ;main.c: 427:         RD7 = 0;
 10622   001EF0  9E83               	bcf	3971,7,c	;volatile
 10623   001EF2                     
 10624                           ; BSR set to: 1
 10625                           ;main.c: 428:         RD4 = 0;
 10626   001EF2  9883               	bcf	3971,4,c	;volatile
 10627   001EF4                     
 10628                           ; BSR set to: 1
 10629                           ;main.c: 430:         UART_WriteString("\r\n!!! EMERGENCY STOP ACTIVATED !!!\r\n");
 10630   001EF4  0E4E               	movlw	low STR_1
 10631   001EF6  6E02               	movwf	i2UART_WriteString@s^0,c
 10632   001EF8  0E7F               	movlw	high STR_1
 10633   001EFA  6E03               	movwf	(i2UART_WriteString@s+1)^0,c
 10634   001EFC  EC66  F019         	call	i2_UART_WriteString	;wreg free
 10635   001F00                     
 10636                           ;main.c: 432:         _delay((unsigned long)((100)*(16000000/4000.0)));
 10637   001F00  0E03               	movlw	3
 10638   001F02  6E2A               	movwf	(??_ISR+1)^0,c
 10639   001F04  0E08               	movlw	8
 10640   001F06  6E29               	movwf	??_ISR^0,c
 10641   001F08  0E77               	movlw	119
 10642   001F0A                     i2u550_47:
 10643   001F0A  2EE8               	decfsz	wreg,f,c
 10644   001F0C  D7FE               	bra	i2u550_47
 10645   001F0E  2E29               	decfsz	??_ISR^0,f,c
 10646   001F10  D7FC               	bra	i2u550_47
 10647   001F12  2E2A               	decfsz	(??_ISR+1)^0,f,c
 10648   001F14  D7FA               	bra	i2u550_47
 10649   001F16  0000               	nop	
 10650   001F18                     
 10651                           ;main.c: 434:         OLED_ClearArea(0, 7, 0, 127);
 10652   001F18  0E07               	movlw	7
 10653   001F1A  6E04               	movwf	i2OLED_ClearArea@endPage^0,c
 10654   001F1C  0E00               	movlw	0
 10655   001F1E  6E05               	movwf	i2OLED_ClearArea@startCol^0,c
 10656   001F20  0E7F               	movlw	127
 10657   001F22  6E06               	movwf	i2OLED_ClearArea@endCol^0,c
 10658   001F24  0E00               	movlw	0
 10659   001F26  ECC5  F018         	call	i2_OLED_ClearArea
 10660   001F2A                     
 10661                           ;main.c: 435:         _delay((unsigned long)((100)*(16000000/4000.0)));
 10662   001F2A  0E03               	movlw	3
 10663   001F2C  6E2A               	movwf	(??_ISR+1)^0,c
 10664   001F2E  0E08               	movlw	8
 10665   001F30  6E29               	movwf	??_ISR^0,c
 10666   001F32  0E77               	movlw	119
 10667   001F34                     i2u551_47:
 10668   001F34  2EE8               	decfsz	wreg,f,c
 10669   001F36  D7FE               	bra	i2u551_47
 10670   001F38  2E29               	decfsz	??_ISR^0,f,c
 10671   001F3A  D7FC               	bra	i2u551_47
 10672   001F3C  2E2A               	decfsz	(??_ISR+1)^0,f,c
 10673   001F3E  D7FA               	bra	i2u551_47
 10674   001F40  0000               	nop	
 10675   001F42                     
 10676                           ;main.c: 436:         OLED_DrawCentered2x_AtPage("EMERGENCY", 2);
 10677   001F42  0EC6               	movlw	low STR_2
 10678   001F44  6E1D               	movwf	i2OLED_DrawCentered2x_AtPage@str^0,c
 10679   001F46  0E7F               	movlw	high STR_2
 10680   001F48  6E1E               	movwf	(i2OLED_DrawCentered2x_AtPage@str+1)^0,c
 10681   001F4A  0E02               	movlw	2
 10682   001F4C  6E1F               	movwf	i2OLED_DrawCentered2x_AtPage@page^0,c
 10683   001F4E  ECF1  F015         	call	i2_OLED_DrawCentered2x_AtPage	;wreg free
 10684   001F52                     
 10685                           ;main.c: 437:         _delay((unsigned long)((50)*(16000000/4000.0)));
 10686   001F52  0E02               	movlw	2
 10687   001F54  6E2A               	movwf	(??_ISR+1)^0,c
 10688   001F56  0E04               	movlw	4
 10689   001F58  6E29               	movwf	??_ISR^0,c
 10690   001F5A  0EBA               	movlw	186
 10691   001F5C                     i2u552_47:
 10692   001F5C  2EE8               	decfsz	wreg,f,c
 10693   001F5E  D7FE               	bra	i2u552_47
 10694   001F60  2E29               	decfsz	??_ISR^0,f,c
 10695   001F62  D7FC               	bra	i2u552_47
 10696   001F64  2E2A               	decfsz	(??_ISR+1)^0,f,c
 10697   001F66  D7FA               	bra	i2u552_47
 10698   001F68  D000               	nop2	
 10699   001F6A                     
 10700                           ;main.c: 438:         OLED_DrawCentered2x_AtPage("STOP", 4);
 10701   001F6A  0EE6               	movlw	low STR_3
 10702   001F6C  6E1D               	movwf	i2OLED_DrawCentered2x_AtPage@str^0,c
 10703   001F6E  0E7F               	movlw	high STR_3
 10704   001F70  6E1E               	movwf	(i2OLED_DrawCentered2x_AtPage@str+1)^0,c
 10705   001F72  0E04               	movlw	4
 10706   001F74  6E1F               	movwf	i2OLED_DrawCentered2x_AtPage@page^0,c
 10707   001F76  ECF1  F015         	call	i2_OLED_DrawCentered2x_AtPage	;wreg free
 10708   001F7A                     
 10709                           ;main.c: 440:         INT1IF = 0;
 10710   001F7A  90F0               	bcf	4080,0,c	;volatile
 10711   001F7C                     
 10712                           ;main.c: 441:         INT2IF = 0;
 10713   001F7C  92F0               	bcf	4080,1,c	;volatile
 10714                           
 10715                           ;main.c: 443:         while (RD0 == 1 || RD1 == 1) {
 10716   001F7E  EFC8  F00F         	goto	i2l4343
 10717   001F82                     i2l4341:
 10718                           
 10719                           ;main.c: 444:             _delay((unsigned long)((10)*(16000000/4000.0)));
 10720   001F82  0E34               	movlw	52
 10721   001F84  6E29               	movwf	??_ISR^0,c
 10722   001F86  0EF2               	movlw	242
 10723   001F88                     i2u553_47:
 10724   001F88  2EE8               	decfsz	wreg,f,c
 10725   001F8A  D7FE               	bra	i2u553_47
 10726   001F8C  2E29               	decfsz	??_ISR^0,f,c
 10727   001F8E  D7FC               	bra	i2u553_47
 10728   001F90                     i2l4343:
 10729                           
 10730                           ;main.c: 443:         while (RD0 == 1 || RD1 == 1) {
 10731   001F90  B083               	btfsc	3971,0,c	;volatile
 10732   001F92  EFCD  F00F         	goto	i2u526_41
 10733   001F96  EFCF  F00F         	goto	i2u526_40
 10734   001F9A                     i2u526_41:
 10735   001F9A  EFC1  F00F         	goto	i2l4341
 10736   001F9E                     i2u526_40:
 10737   001F9E  B283               	btfsc	3971,1,c	;volatile
 10738   001FA0  EFD4  F00F         	goto	i2u527_41
 10739   001FA4  EFD6  F00F         	goto	i2u527_40
 10740   001FA8                     i2u527_41:
 10741   001FA8  EFC1  F00F         	goto	i2l4341
 10742   001FAC                     i2u527_40:
 10743   001FAC                     i2l297:
 10744                           
 10745                           ;main.c: 449:             if (RD0 == 1 && RD1 == 1) {
 10746   001FAC  A083               	btfss	3971,0,c	;volatile
 10747   001FAE  EFDB  F00F         	goto	i2u528_41
 10748   001FB2  EFDD  F00F         	goto	i2u528_40
 10749   001FB6                     i2u528_41:
 10750   001FB6  EF2E  F010         	goto	i2l4365
 10751   001FBA                     i2u528_40:
 10752   001FBA  A283               	btfss	3971,1,c	;volatile
 10753   001FBC  EFE2  F00F         	goto	i2u529_41
 10754   001FC0  EFE4  F00F         	goto	i2u529_40
 10755   001FC4                     i2u529_41:
 10756   001FC4  EF2E  F010         	goto	i2l4365
 10757   001FC8                     i2u529_40:
 10758   001FC8                     
 10759                           ;main.c: 451:                 _delay((unsigned long)((100)*(16000000/4000.0)));
 10760   001FC8  0E03               	movlw	3
 10761   001FCA  6E2A               	movwf	(??_ISR+1)^0,c
 10762   001FCC  0E08               	movlw	8
 10763   001FCE  6E29               	movwf	??_ISR^0,c
 10764   001FD0  0E77               	movlw	119
 10765   001FD2                     i2u554_47:
 10766   001FD2  2EE8               	decfsz	wreg,f,c
 10767   001FD4  D7FE               	bra	i2u554_47
 10768   001FD6  2E29               	decfsz	??_ISR^0,f,c
 10769   001FD8  D7FC               	bra	i2u554_47
 10770   001FDA  2E2A               	decfsz	(??_ISR+1)^0,f,c
 10771   001FDC  D7FA               	bra	i2u554_47
 10772   001FDE  0000               	nop	
 10773   001FE0                     
 10774                           ;main.c: 452:                 if (RD0 == 1 && RD1 == 1) {
 10775   001FE0  A083               	btfss	3971,0,c	;volatile
 10776   001FE2  EFF5  F00F         	goto	i2u530_41
 10777   001FE6  EFF7  F00F         	goto	i2u530_40
 10778   001FEA                     i2u530_41:
 10779   001FEA  EF2E  F010         	goto	i2l4365
 10780   001FEE                     i2u530_40:
 10781   001FEE  A283               	btfss	3971,1,c	;volatile
 10782   001FF0  EFFC  F00F         	goto	i2u531_41
 10783   001FF4  EFFE  F00F         	goto	i2u531_40
 10784   001FF8                     i2u531_41:
 10785   001FF8  EF2E  F010         	goto	i2l4365
 10786   001FFC                     i2u531_40:
 10787   001FFC                     
 10788                           ;main.c: 454:                     UART_WriteString("\r\n!!! SYSTEM REBOOTING !!!\r\n");
 10789   001FFC  0E73               	movlw	low STR_4
 10790   001FFE  6E02               	movwf	i2UART_WriteString@s^0,c
 10791   002000  0E7F               	movlw	high STR_4
 10792   002002  6E03               	movwf	(i2UART_WriteString@s+1)^0,c
 10793   002004  EC66  F019         	call	i2_UART_WriteString	;wreg free
 10794   002008                     
 10795                           ;main.c: 455:                     OLED_ClearArea(0, 7, 0, 127);
 10796   002008  0E07               	movlw	7
 10797   00200A  6E04               	movwf	i2OLED_ClearArea@endPage^0,c
 10798   00200C  0E00               	movlw	0
 10799   00200E  6E05               	movwf	i2OLED_ClearArea@startCol^0,c
 10800   002010  0E7F               	movlw	127
 10801   002012  6E06               	movwf	i2OLED_ClearArea@endCol^0,c
 10802   002014  0E00               	movlw	0
 10803   002016  ECC5  F018         	call	i2_OLED_ClearArea
 10804   00201A                     
 10805                           ;main.c: 456:                     _delay((unsigned long)((100)*(16000000/4000.0)));
 10806   00201A  0E03               	movlw	3
 10807   00201C  6E2A               	movwf	(??_ISR+1)^0,c
 10808   00201E  0E08               	movlw	8
 10809   002020  6E29               	movwf	??_ISR^0,c
 10810   002022  0E77               	movlw	119
 10811   002024                     i2u555_47:
 10812   002024  2EE8               	decfsz	wreg,f,c
 10813   002026  D7FE               	bra	i2u555_47
 10814   002028  2E29               	decfsz	??_ISR^0,f,c
 10815   00202A  D7FC               	bra	i2u555_47
 10816   00202C  2E2A               	decfsz	(??_ISR+1)^0,f,c
 10817   00202E  D7FA               	bra	i2u555_47
 10818   002030  0000               	nop	
 10819   002032                     
 10820                           ;main.c: 457:                     OLED_DrawCentered2x_AtPage("REBOOTING", 3);
 10821   002032  0EBC               	movlw	low STR_5
 10822   002034  6E1D               	movwf	i2OLED_DrawCentered2x_AtPage@str^0,c
 10823   002036  0E7F               	movlw	high STR_5
 10824   002038  6E1E               	movwf	(i2OLED_DrawCentered2x_AtPage@str+1)^0,c
 10825   00203A  0E03               	movlw	3
 10826   00203C  6E1F               	movwf	i2OLED_DrawCentered2x_AtPage@page^0,c
 10827   00203E  ECF1  F015         	call	i2_OLED_DrawCentered2x_AtPage	;wreg free
 10828   002042                     
 10829                           ;main.c: 458:                     _delay((unsigned long)((1000)*(16000000/4000.0)));
 10830   002042  0E15               	movlw	21
 10831   002044  6E2A               	movwf	(??_ISR+1)^0,c
 10832   002046  0E4B               	movlw	75
 10833   002048  6E29               	movwf	??_ISR^0,c
 10834   00204A  0EBE               	movlw	190
 10835   00204C                     i2u556_47:
 10836   00204C  2EE8               	decfsz	wreg,f,c
 10837   00204E  D7FE               	bra	i2u556_47
 10838   002050  2E29               	decfsz	??_ISR^0,f,c
 10839   002052  D7FC               	bra	i2u556_47
 10840   002054  2E2A               	decfsz	(??_ISR+1)^0,f,c
 10841   002056  D7FA               	bra	i2u556_47
 10842   002058  D000               	nop2	
 10843   00205A  00FF               	reset		;# 
 10844   00205C                     i2l4365:
 10845                           
 10846                           ;main.c: 463:             _delay((unsigned long)((50)*(16000000/4000.0)));
 10847   00205C  0E02               	movlw	2
 10848   00205E  6E2A               	movwf	(??_ISR+1)^0,c
 10849   002060  0E04               	movlw	4
 10850   002062  6E29               	movwf	??_ISR^0,c
 10851   002064  0EBA               	movlw	186
 10852   002066                     i2u557_47:
 10853   002066  2EE8               	decfsz	wreg,f,c
 10854   002068  D7FE               	bra	i2u557_47
 10855   00206A  2E29               	decfsz	??_ISR^0,f,c
 10856   00206C  D7FC               	bra	i2u557_47
 10857   00206E  2E2A               	decfsz	(??_ISR+1)^0,f,c
 10858   002070  D7FA               	bra	i2u557_47
 10859   002072  D000               	nop2	
 10860   002074  EFD6  F00F         	goto	i2l297
 10861   002078                     i2l302:
 10862   002078  C034  FFF5         	movff	??_ISR+11,tablat
 10863   00207C  C033  FFF8         	movff	??_ISR+10,tblptru
 10864   002080  C032  FFF7         	movff	??_ISR+9,tblptrh
 10865   002084  C031  FFF6         	movff	??_ISR+8,tblptrl
 10866   002088  C030  FFF4         	movff	??_ISR+7,prodh
 10867   00208C  C02F  FFF3         	movff	??_ISR+6,prodl
 10868   002090  C02E  FFDA         	movff	??_ISR+5,fsr2h
 10869   002094  C02D  FFD9         	movff	??_ISR+4,fsr2l
 10870   002098  C02C  FFE2         	movff	??_ISR+3,fsr1h
 10871   00209C  C02B  FFE1         	movff	??_ISR+2,fsr1l
 10872   0020A0  9256               	bcf	int$flags,1,c	;clear compiler interrupt flag (level 2)
 10873   0020A2  0011               	retfie		f
 10874   0020A4                     __end_of_ISR:
 10875                           	callstack 0
 10876                           
 10877 ;; *************** function i2_UART_WriteString *****************
 10878 ;; Defined at:
 10879 ;;		line 118 in file "main.c"
 10880 ;; Parameters:    Size  Location     Type
 10881 ;;  s               2    1[COMRAM] PTR const unsigned char 
 10882 ;;		 -> main@buffer(30), STR_10(17), STR_8(17), STR_4(29), 
 10883 ;;		 -> STR_1(37), 
 10884 ;; Auto vars:     Size  Location     Type
 10885 ;;		None
 10886 ;; Return value:  Size  Location     Type
 10887 ;;                  1    wreg      void 
 10888 ;; Registers used:
 10889 ;;		wreg, fsr1l, fsr1h, status,2, status,0, tblptrl, tblptrh, tblptru, cstack
 10890 ;; Tracked objects:
 10891 ;;		On entry : 0/0
 10892 ;;		On exit  : 0/0
 10893 ;;		Unchanged: 0/0
 10894 ;; Data sizes:     COMRAM   BANK0   BANK1   BANK2   BANK3   BANK4   BANK5   BANK6   BANK7
 10895 ;;      Params:         2       0       0       0       0       0       0       0       0
 10896 ;;      Locals:         0       0       0       0       0       0       0       0       0
 10897 ;;      Temps:          0       0       0       0       0       0       0       0       0
 10898 ;;      Totals:         2       0       0       0       0       0       0       0       0
 10899 ;;Total ram usage:        2 bytes
 10900 ;; Hardware stack levels used: 1
 10901 ;; Hardware stack levels required when called: 1
 10902 ;; This function calls:
 10903 ;;		i2_UART_WriteChar
 10904 ;; This function is called by:
 10905 ;;		_ISR
 10906 ;; This function uses a non-reentrant model
 10907 ;;
 10908                           
 10909                           	psect	text46
 10910   0032CC                     __ptext46:
 10911                           	callstack 0
 10912   0032CC                     i2_UART_WriteString:
 10913                           	callstack 22
 10914   0032CC                     
 10915                           ;main.c: 119:     while (*s) UART_WriteChar(*s++);
 10916   0032CC  EF7C  F019         	goto	i2l4267
 10917   0032D0                     i2l4263:
 10918   0032D0  C002  FFF6         	movff	i2UART_WriteString@s,tblptrl
 10919   0032D4  C003  FFF7         	movff	i2UART_WriteString@s+1,tblptrh
 10920   0032D8  6AF8               	clrf	tblptru,c
 10921   0032DA  0E07               	movlw	(high __ramtop+-1)
 10922   0032DC  64F7               	cpfsgt	tblptrh,c
 10923   0032DE  D003               	bra	i2u515_47
 10924   0032E0  0008               	tblrd		*
 10925   0032E2  50F5               	movf	tablat,w,c
 10926   0032E4  D005               	bra	i2u515_40
 10927   0032E6                     i2u515_47:
 10928   0032E6  CFF6 FFE1          	movff	tblptrl,fsr1l
 10929   0032EA  CFF7 FFE2          	movff	tblptrh,fsr1h
 10930   0032EE  50E7               	movf	indf1,w,c
 10931   0032F0                     i2u515_40:
 10932   0032F0  EC77  F01B         	call	i2_UART_WriteChar
 10933   0032F4  4A02               	infsnz	i2UART_WriteString@s^0,f,c
 10934   0032F6  2A03               	incf	(i2UART_WriteString@s+1)^0,f,c
 10935   0032F8                     i2l4267:
 10936   0032F8  C002  FFF6         	movff	i2UART_WriteString@s,tblptrl
 10937   0032FC  C003  FFF7         	movff	i2UART_WriteString@s+1,tblptrh
 10938   003300  6AF8               	clrf	tblptru,c
 10939   003302  0E07               	movlw	(high __ramtop+-1)
 10940   003304  64F7               	cpfsgt	tblptrh,c
 10941   003306  D003               	bra	i2u516_47
 10942   003308  0008               	tblrd		*
 10943   00330A  50F5               	movf	tablat,w,c
 10944   00330C  D005               	bra	i2u516_40
 10945   00330E                     i2u516_47:
 10946   00330E  CFF6 FFE1          	movff	tblptrl,fsr1l
 10947   003312  CFF7 FFE2          	movff	tblptrh,fsr1h
 10948   003316  50E7               	movf	indf1,w,c
 10949   003318                     i2u516_40:
 10950   003318  0900               	iorlw	0
 10951   00331A  A4D8               	btfss	status,2,c
 10952   00331C  EF92  F019         	goto	i2u517_41
 10953   003320  EF94  F019         	goto	i2u517_40
 10954   003324                     i2u517_41:
 10955   003324  EF68  F019         	goto	i2l4263
 10956   003328                     i2u517_40:
 10957   003328  0012               	return		;funcret
 10958   00332A                     __end_ofi2_UART_WriteString:
 10959                           	callstack 0
 10960                           
 10961 ;; *************** function i2_UART_WriteChar *****************
 10962 ;; Defined at:
 10963 ;;		line 112 in file "main.c"
 10964 ;; Parameters:    Size  Location     Type
 10965 ;;  c               1    wreg     unsigned char 
 10966 ;; Auto vars:     Size  Location     Type
 10967 ;;  c               1    0[COMRAM] unsigned char 
 10968 ;; Return value:  Size  Location     Type
 10969 ;;                  1    wreg      void 
 10970 ;; Registers used:
 10971 ;;		wreg
 10972 ;; Tracked objects:
 10973 ;;		On entry : 0/0
 10974 ;;		On exit  : 0/0
 10975 ;;		Unchanged: 0/0
 10976 ;; Data sizes:     COMRAM   BANK0   BANK1   BANK2   BANK3   BANK4   BANK5   BANK6   BANK7
 10977 ;;      Params:         0       0       0       0       0       0       0       0       0
 10978 ;;      Locals:         1       0       0       0       0       0       0       0       0
 10979 ;;      Temps:          0       0       0       0       0       0       0       0       0
 10980 ;;      Totals:         1       0       0       0       0       0       0       0       0
 10981 ;;Total ram usage:        1 bytes
 10982 ;; Hardware stack levels used: 1
 10983 ;; This function calls:
 10984 ;;		Nothing
 10985 ;; This function is called by:
 10986 ;;		i2_UART_WriteString
 10987 ;; This function uses a non-reentrant model
 10988 ;;
 10989                           
 10990                           	psect	text47
 10991   0036EE                     __ptext47:
 10992                           	callstack 0
 10993   0036EE                     i2_UART_WriteChar:
 10994                           	callstack 22
 10995                           
 10996                           ;incstack = 0
 10997                           ;i2UART_WriteChar@c stored from wreg
 10998   0036EE  6E01               	movwf	i2UART_WriteChar@c^0,c
 10999   0036F0                     i2l153:
 11000   0036F0  A2AC               	btfss	4012,1,c	;volatile
 11001   0036F2  EF7D  F01B         	goto	i2u470_41
 11002   0036F6  EF7F  F01B         	goto	i2u470_40
 11003   0036FA                     i2u470_41:
 11004   0036FA  EF78  F01B         	goto	i2l153
 11005   0036FE                     i2u470_40:
 11006   0036FE                     
 11007                           ;main.c: 114:     TXREG = c;
 11008   0036FE  C001  FFAD         	movff	i2UART_WriteChar@c,4013	;volatile
 11009   003702  0012               	return		;funcret
 11010   003704                     __end_ofi2_UART_WriteChar:
 11011                           	callstack 0
 11012                           
 11013 ;; *************** function i2_OLED_DrawCentered2x_AtPage *****************
 11014 ;; Defined at:
 11015 ;;		line 308 in file "main.c"
 11016 ;; Parameters:    Size  Location     Type
 11017 ;;  str             2   28[COMRAM] PTR const unsigned char 
 11018 ;;		 -> main@angleStr(20), STR_7(6), STR_6(8), STR_5(10), 
 11019 ;;		 -> STR_3(5), STR_2(10), 
 11020 ;;  page            1   30[COMRAM] unsigned char 
 11021 ;; Auto vars:     Size  Location     Type
 11022 ;;  tmp             2   33[COMRAM] PTR const unsigned char 
 11023 ;;		 -> main@angleStr(20), STR_7(6), STR_6(8), STR_5(10), 
 11024 ;;		 -> STR_3(5), STR_2(10), 
 11025 ;;  i               1   39[COMRAM] unsigned char 
 11026 ;;  len             1   38[COMRAM] unsigned char 
 11027 ;;  charWidth       1   37[COMRAM] unsigned char 
 11028 ;;  startCol        1   36[COMRAM] unsigned char 
 11029 ;;  totalWidth      1   35[COMRAM] unsigned char 
 11030 ;; Return value:  Size  Location     Type
 11031 ;;                  1    wreg      void 
 11032 ;; Registers used:
 11033 ;;		wreg, fsr1l, fsr1h, fsr2l, fsr2h, status,2, status,0, tblptrl, tblptrh, tblptru, prodl, prodh, cstack
 11034 ;; Tracked objects:
 11035 ;;		On entry : 0/0
 11036 ;;		On exit  : 0/0
 11037 ;;		Unchanged: 0/0
 11038 ;; Data sizes:     COMRAM   BANK0   BANK1   BANK2   BANK3   BANK4   BANK5   BANK6   BANK7
 11039 ;;      Params:         3       0       0       0       0       0       0       0       0
 11040 ;;      Locals:         7       0       0       0       0       0       0       0       0
 11041 ;;      Temps:          2       0       0       0       0       0       0       0       0
 11042 ;;      Totals:        12       0       0       0       0       0       0       0       0
 11043 ;;Total ram usage:       12 bytes
 11044 ;; Hardware stack levels used: 1
 11045 ;; Hardware stack levels required when called: 5
 11046 ;; This function calls:
 11047 ;;		i2_OLED_DrawScaledChar
 11048 ;;		i2___awdiv
 11049 ;; This function is called by:
 11050 ;;		_ISR
 11051 ;; This function uses a non-reentrant model
 11052 ;;
 11053                           
 11054                           	psect	text48
 11055   002BE2                     __ptext48:
 11056                           	callstack 0
 11057   002BE2                     i2_OLED_DrawCentered2x_AtPage:
 11058                           	callstack 18
 11059   002BE2                     
 11060                           ;main.c: 309:     uint8_t len = 0;
 11061   002BE2  6A27               	clrf	i2OLED_DrawCentered2x_AtPage@len^0,c
 11062   002BE4                     
 11063                           ;main.c: 310:     const char* tmp = str;
 11064   002BE4  C01D  F022         	movff	i2OLED_DrawCentered2x_AtPage@str,i2OLED_DrawCentered2x_AtPage@tmp
 11065   002BE8  C01E  F023         	movff	i2OLED_DrawCentered2x_AtPage@str+1,i2OLED_DrawCentered2x_AtPage@tmp+1
 11066                           
 11067                           ;main.c: 311:     while (*tmp++) len++;
 11068   002BEC  EFF9  F015         	goto	i2l4293
 11069   002BF0                     i2l4291:
 11070   002BF0  2A27               	incf	i2OLED_DrawCentered2x_AtPage@len^0,f,c
 11071   002BF2                     i2l4293:
 11072   002BF2  5022               	movf	i2OLED_DrawCentered2x_AtPage@tmp^0,w,c
 11073   002BF4  6E20               	movwf	??i2_OLED_DrawCentered2x_AtPage^0,c
 11074   002BF6  5023               	movf	(i2OLED_DrawCentered2x_AtPage@tmp+1)^0,w,c
 11075   002BF8  6E21               	movwf	(??i2_OLED_DrawCentered2x_AtPage+1)^0,c
 11076   002BFA  4A22               	infsnz	i2OLED_DrawCentered2x_AtPage@tmp^0,f,c
 11077   002BFC  2A23               	incf	(i2OLED_DrawCentered2x_AtPage@tmp+1)^0,f,c
 11078   002BFE  C020  FFF6         	movff	??i2_OLED_DrawCentered2x_AtPage,tblptrl
 11079   002C02  C021  FFF7         	movff	??i2_OLED_DrawCentered2x_AtPage+1,tblptrh
 11080   002C06  6AF8               	clrf	tblptru,c
 11081   002C08  0E07               	movlw	(high __ramtop+-1)
 11082   002C0A  64F7               	cpfsgt	tblptrh,c
 11083   002C0C  D003               	bra	i2u520_47
 11084   002C0E  0008               	tblrd		*
 11085   002C10  50F5               	movf	tablat,w,c
 11086   002C12  D005               	bra	i2u520_40
 11087   002C14                     i2u520_47:
 11088   002C14  CFF6 FFE1          	movff	tblptrl,fsr1l
 11089   002C18  CFF7 FFE2          	movff	tblptrh,fsr1h
 11090   002C1C  50E7               	movf	indf1,w,c
 11091   002C1E                     i2u520_40:
 11092   002C1E  0900               	iorlw	0
 11093   002C20  A4D8               	btfss	status,2,c
 11094   002C22  EF15  F016         	goto	i2u521_41
 11095   002C26  EF17  F016         	goto	i2u521_40
 11096   002C2A                     i2u521_41:
 11097   002C2A  EFF8  F015         	goto	i2l4291
 11098   002C2E                     i2u521_40:
 11099   002C2E                     
 11100                           ;main.c: 312:     uint8_t charWidth = 5 * 2;
 11101   002C2E  0E0A               	movlw	10
 11102   002C30  6E26               	movwf	i2OLED_DrawCentered2x_AtPage@charWidth^0,c
 11103   002C32                     
 11104                           ;main.c: 313:     uint8_t totalWidth = len * (charWidth + 2);
 11105   002C32  5027               	movf	i2OLED_DrawCentered2x_AtPage@len^0,w,c
 11106   002C34  0D0C               	mullw	12
 11107   002C36  CFF3 F024          	movff	prodl,i2OLED_DrawCentered2x_AtPage@totalWidth
 11108   002C3A                     
 11109                           ;main.c: 314:     uint8_t startCol = (128 - totalWidth) / 2;
 11110   002C3A  5024               	movf	i2OLED_DrawCentered2x_AtPage@totalWidth^0,w,c
 11111   002C3C  0880               	sublw	128
 11112   002C3E  6E01               	movwf	i2___awdiv@dividend^0,c
 11113   002C40  0E00               	movlw	0
 11114   002C42  A0D8               	btfss	status,0,c
 11115   002C44  2AE8               	incf	wreg,f,c
 11116   002C46  0800               	sublw	0
 11117   002C48  6E02               	movwf	(i2___awdiv@dividend+1)^0,c
 11118   002C4A  0E00               	movlw	0
 11119   002C4C  6E04               	movwf	(i2___awdiv@divisor+1)^0,c
 11120   002C4E  0E02               	movlw	2
 11121   002C50  6E03               	movwf	i2___awdiv@divisor^0,c
 11122   002C52  ECBF  F016         	call	i2___awdiv	;wreg free
 11123   002C56  5001               	movf	?i2___awdiv^0,w,c
 11124   002C58  6E25               	movwf	i2OLED_DrawCentered2x_AtPage@startCol^0,c
 11125   002C5A                     
 11126                           ;main.c: 316:     for (uint8_t i = 0; i < len; i++) {
 11127   002C5A  6A28               	clrf	i2OLED_DrawCentered2x_AtPage@i^0,c
 11128   002C5C  EF53  F016         	goto	i2l4307
 11129   002C60                     i2l4303:
 11130                           
 11131                           ;main.c: 317:         OLED_DrawScaledChar(str[i], 2, page, startCol + i * (charWidth + 2
      +                          ));
 11132   002C60  0E02               	movlw	2
 11133   002C62  6E09               	movwf	i2OLED_DrawScaledChar@scale^0,c
 11134   002C64  C01F  F00A         	movff	i2OLED_DrawCentered2x_AtPage@page,i2OLED_DrawScaledChar@start_page
 11135   002C68  5026               	movf	i2OLED_DrawCentered2x_AtPage@charWidth^0,w,c
 11136   002C6A  0F02               	addlw	2
 11137   002C6C  0228               	mulwf	i2OLED_DrawCentered2x_AtPage@i^0,c
 11138   002C6E  50F3               	movf	243,w,c
 11139   002C70  2425               	addwf	i2OLED_DrawCentered2x_AtPage@startCol^0,w,c
 11140   002C72  6E0B               	movwf	i2OLED_DrawScaledChar@start_col^0,c
 11141   002C74  5028               	movf	i2OLED_DrawCentered2x_AtPage@i^0,w,c
 11142   002C76  241D               	addwf	i2OLED_DrawCentered2x_AtPage@str^0,w,c
 11143   002C78  6E20               	movwf	??i2_OLED_DrawCentered2x_AtPage^0,c
 11144   002C7A  0E00               	movlw	0
 11145   002C7C  201E               	addwfc	(i2OLED_DrawCentered2x_AtPage@str+1)^0,w,c
 11146   002C7E  6E21               	movwf	(??i2_OLED_DrawCentered2x_AtPage+1)^0,c
 11147   002C80  C020  FFF6         	movff	??i2_OLED_DrawCentered2x_AtPage,tblptrl
 11148   002C84  C021  FFF7         	movff	??i2_OLED_DrawCentered2x_AtPage+1,tblptrh
 11149   002C88  6AF8               	clrf	tblptru,c
 11150   002C8A  0E07               	movlw	(high __ramtop+-1)
 11151   002C8C  64F7               	cpfsgt	tblptrh,c
 11152   002C8E  D003               	bra	i2u522_47
 11153   002C90  0008               	tblrd		*
 11154   002C92  50F5               	movf	tablat,w,c
 11155   002C94  D005               	bra	i2u522_40
 11156   002C96                     i2u522_47:
 11157   002C96  CFF6 FFE1          	movff	tblptrl,fsr1l
 11158   002C9A  CFF7 FFE2          	movff	tblptrh,fsr1h
 11159   002C9E  50E7               	movf	indf1,w,c
 11160   002CA0                     i2u522_40:
 11161   002CA0  EC51  F011         	call	i2_OLED_DrawScaledChar
 11162   002CA4                     
 11163                           ;main.c: 318:     }
 11164   002CA4  2A28               	incf	i2OLED_DrawCentered2x_AtPage@i^0,f,c
 11165   002CA6                     i2l4307:
 11166   002CA6  5027               	movf	i2OLED_DrawCentered2x_AtPage@len^0,w,c
 11167   002CA8  5C28               	subwf	i2OLED_DrawCentered2x_AtPage@i^0,w,c
 11168   002CAA  A0D8               	btfss	status,0,c
 11169   002CAC  EF5A  F016         	goto	i2u523_41
 11170   002CB0  EF5C  F016         	goto	i2u523_40
 11171   002CB4                     i2u523_41:
 11172   002CB4  EF30  F016         	goto	i2l4303
 11173   002CB8                     i2u523_40:
 11174   002CB8  0012               	return		;funcret
 11175   002CBA                     __end_ofi2_OLED_DrawCentered2x_AtPage:
 11176                           	callstack 0
 11177                           
 11178 ;; *************** function i2_OLED_DrawScaledChar *****************
 11179 ;; Defined at:
 11180 ;;		line 262 in file "main.c"
 11181 ;; Parameters:    Size  Location     Type
 11182 ;;  c               1    wreg     unsigned char 
 11183 ;;  scale           1    8[COMRAM] unsigned char 
 11184 ;;  start_page      1    9[COMRAM] unsigned char 
 11185 ;;  start_col       1   10[COMRAM] unsigned char 
 11186 ;; Auto vars:     Size  Location     Type
 11187 ;;  c               1   27[COMRAM] unsigned char 
 11188 ;;  scaled_col      3   13[COMRAM] unsigned char [3]
 11189 ;;  col             1   26[COMRAM] unsigned char 
 11190 ;;  p               1   25[COMRAM] unsigned char 
 11191 ;;  bit             1   24[COMRAM] unsigned char 
 11192 ;;  x               1   23[COMRAM] unsigned char 
 11193 ;;  rowOut          1   22[COMRAM] unsigned char 
 11194 ;;  idx             1   21[COMRAM] unsigned char 
 11195 ;;  v               1   20[COMRAM] unsigned char 
 11196 ;;  outBit          1   19[COMRAM] unsigned char 
 11197 ;;  outPage         1   18[COMRAM] unsigned char 
 11198 ;;  pixel           1   17[COMRAM] unsigned char 
 11199 ;;  colData         1   16[COMRAM] unsigned char 
 11200 ;; Return value:  Size  Location     Type
 11201 ;;                  1    wreg      void 
 11202 ;; Registers used:
 11203 ;;		wreg, fsr2l, fsr2h, status,2, status,0, tblptrl, tblptrh, tblptru, prodl, prodh, cstack
 11204 ;; Tracked objects:
 11205 ;;		On entry : 0/0
 11206 ;;		On exit  : 0/0
 11207 ;;		Unchanged: 0/0
 11208 ;; Data sizes:     COMRAM   BANK0   BANK1   BANK2   BANK3   BANK4   BANK5   BANK6   BANK7
 11209 ;;      Params:         3       0       0       0       0       0       0       0       0
 11210 ;;      Locals:        15       0       0       0       0       0       0       0       0
 11211 ;;      Temps:          2       0       0       0       0       0       0       0       0
 11212 ;;      Totals:        20       0       0       0       0       0       0       0       0
 11213 ;;Total ram usage:       20 bytes
 11214 ;; Hardware stack levels used: 1
 11215 ;; Hardware stack levels required when called: 4
 11216 ;; This function calls:
 11217 ;;		i2_I2C_Start
 11218 ;;		i2_I2C_Stop
 11219 ;;		i2_I2C_Write
 11220 ;;		i2_OLED_SetCursor
 11221 ;;		i2___awdiv
 11222 ;; This function is called by:
 11223 ;;		i2_OLED_DrawCentered2x_AtPage
 11224 ;; This function uses a non-reentrant model
 11225 ;;
 11226                           
 11227                           	psect	text49
 11228   0022A2                     __ptext49:
 11229                           	callstack 0
 11230   0022A2                     i2_OLED_DrawScaledChar:
 11231                           	callstack 18
 11232                           
 11233                           ;incstack = 0
 11234                           ;i2OLED_DrawScaledChar@c stored from wreg
 11235   0022A2  6E1C               	movwf	i2OLED_DrawScaledChar@c^0,c
 11236   0022A4                     
 11237                           ;main.c: 263:     uint8_t idx;;main.c: 265:     if (c >= '0' && c <= '9') {
 11238   0022A4  0E2F               	movlw	47
 11239   0022A6  641C               	cpfsgt	i2OLED_DrawScaledChar@c^0,c
 11240   0022A8  EF58  F011         	goto	i2u471_41
 11241   0022AC  EF5A  F011         	goto	i2u471_40
 11242   0022B0                     i2u471_41:
 11243   0022B0  EF67  F011         	goto	i2l3955
 11244   0022B4                     i2u471_40:
 11245   0022B4  0E3A               	movlw	58
 11246   0022B6  601C               	cpfslt	i2OLED_DrawScaledChar@c^0,c
 11247   0022B8  EF60  F011         	goto	i2u472_41
 11248   0022BC  EF62  F011         	goto	i2u472_40
 11249   0022C0                     i2u472_41:
 11250   0022C0  EF67  F011         	goto	i2l3955
 11251   0022C4                     i2u472_40:
 11252   0022C4                     
 11253                           ;main.c: 266:         idx = c - '0' + 1;
 11254   0022C4  501C               	movf	i2OLED_DrawScaledChar@c^0,w,c
 11255   0022C6  0FD1               	addlw	209
 11256   0022C8  6E16               	movwf	i2OLED_DrawScaledChar@idx^0,c
 11257                           
 11258                           ;main.c: 267:     } else if (c >= 'A' && c <= 'Z') {
 11259   0022CA  EFA0  F011         	goto	i2l213
 11260   0022CE                     i2l3955:
 11261   0022CE  0E40               	movlw	64
 11262   0022D0  641C               	cpfsgt	i2OLED_DrawScaledChar@c^0,c
 11263   0022D2  EF6D  F011         	goto	i2u473_41
 11264   0022D6  EF6F  F011         	goto	i2u473_40
 11265   0022DA                     i2u473_41:
 11266   0022DA  EF7C  F011         	goto	i2l3961
 11267   0022DE                     i2u473_40:
 11268   0022DE  0E5B               	movlw	91
 11269   0022E0  601C               	cpfslt	i2OLED_DrawScaledChar@c^0,c
 11270   0022E2  EF75  F011         	goto	i2u474_41
 11271   0022E6  EF77  F011         	goto	i2u474_40
 11272   0022EA                     i2u474_41:
 11273   0022EA  EF7C  F011         	goto	i2l3961
 11274   0022EE                     i2u474_40:
 11275   0022EE                     
 11276                           ;main.c: 268:         idx = c - 'A' + 13;
 11277   0022EE  501C               	movf	i2OLED_DrawScaledChar@c^0,w,c
 11278   0022F0  0FCC               	addlw	204
 11279   0022F2  6E16               	movwf	i2OLED_DrawScaledChar@idx^0,c
 11280                           
 11281                           ;main.c: 269:     } else if ((uint8_t) c == 248) {
 11282   0022F4  EFA0  F011         	goto	i2l213
 11283   0022F8                     i2l3961:
 11284   0022F8  0EF8               	movlw	248
 11285   0022FA  181C               	xorwf	i2OLED_DrawScaledChar@c^0,w,c
 11286   0022FC  A4D8               	btfss	status,2,c
 11287   0022FE  EF83  F011         	goto	i2u475_41
 11288   002302  EF85  F011         	goto	i2u475_40
 11289   002306                     i2u475_41:
 11290   002306  EF89  F011         	goto	i2l3965
 11291   00230A                     i2u475_40:
 11292   00230A                     
 11293                           ;main.c: 270:         idx = 11;
 11294   00230A  0E0B               	movlw	11
 11295   00230C  6E16               	movwf	i2OLED_DrawScaledChar@idx^0,c
 11296                           
 11297                           ;main.c: 271:     } else if (c == '-') {
 11298   00230E  EFA0  F011         	goto	i2l213
 11299   002312                     i2l3965:
 11300   002312  0E2D               	movlw	45
 11301   002314  181C               	xorwf	i2OLED_DrawScaledChar@c^0,w,c
 11302   002316  A4D8               	btfss	status,2,c
 11303   002318  EF90  F011         	goto	i2u476_41
 11304   00231C  EF92  F011         	goto	i2u476_40
 11305   002320                     i2u476_41:
 11306   002320  EF96  F011         	goto	i2l3969
 11307   002324                     i2u476_40:
 11308   002324                     
 11309                           ;main.c: 272:         idx = 12;
 11310   002324  0E0C               	movlw	12
 11311   002326  6E16               	movwf	i2OLED_DrawScaledChar@idx^0,c
 11312                           
 11313                           ;main.c: 273:     } else if (c == ' ') {
 11314   002328  EFA0  F011         	goto	i2l213
 11315   00232C                     i2l3969:
 11316   00232C  0E20               	movlw	32
 11317   00232E  181C               	xorwf	i2OLED_DrawScaledChar@c^0,w,c
 11318   002330  A4D8               	btfss	status,2,c
 11319   002332  EF9D  F011         	goto	i2u477_41
 11320   002336  EF9F  F011         	goto	i2u477_40
 11321   00233A                     i2u477_41:
 11322   00233A  EF48  F012         	goto	i2l222
 11323   00233E                     i2u477_40:
 11324   00233E                     
 11325                           ;main.c: 274:         idx = 0;
 11326   00233E  6A16               	clrf	i2OLED_DrawScaledChar@idx^0,c
 11327   002340                     i2l213:
 11328                           
 11329                           ;main.c: 279:     for (uint8_t col = 0; col < 5; col++) {
 11330   002340  6A1B               	clrf	i2OLED_DrawScaledChar@col^0,c
 11331   002342                     i2l3977:
 11332                           
 11333                           ;main.c: 280:         uint8_t colData = font5x7[idx][col];
 11334   002342  5016               	movf	i2OLED_DrawScaledChar@idx^0,w,c
 11335   002344  0D05               	mullw	5
 11336   002346  0E77               	movlw	low _font5x7
 11337   002348  24F3               	addwf	243,w,c
 11338   00234A  6E0C               	movwf	??i2_OLED_DrawScaledChar^0,c
 11339   00234C  0E7E               	movlw	high _font5x7
 11340   00234E  20F4               	addwfc	prodh,w,c
 11341   002350  6E0D               	movwf	(??i2_OLED_DrawScaledChar+1)^0,c
 11342   002352  501B               	movf	i2OLED_DrawScaledChar@col^0,w,c
 11343   002354  260C               	addwf	??i2_OLED_DrawScaledChar^0,f,c
 11344   002356  0E00               	movlw	0
 11345   002358  220D               	addwfc	(??i2_OLED_DrawScaledChar+1)^0,f,c
 11346   00235A  C00C  FFF6         	movff	??i2_OLED_DrawScaledChar,tblptrl
 11347   00235E  C00D  FFF7         	movff	??i2_OLED_DrawScaledChar+1,tblptrh
 11348   002362                     	if	0	;tblptru may be non-zero
 11349   002362                     	endif
 11350   002362                     	if	0	;tblptru may be non-zero
 11351   002362                     	endif
 11352   002362  0008               	tblrd		*
 11353   002364  CFF5 F011          	movff	tablat,i2OLED_DrawScaledChar@colData
 11354   002368                     
 11355                           ;main.c: 281:         uint8_t scaled_col[3] = {0};
 11356   002368  C04D  F00E         	movff	OLED_DrawScaledChar@F4166,i2OLED_DrawScaledChar@scaled_col
 11357   00236C  C04E  F00F         	movff	OLED_DrawScaledChar@F4166+1,i2OLED_DrawScaledChar@scaled_col+1
 11358   002370  C04F  F010         	movff	OLED_DrawScaledChar@F4166+2,i2OLED_DrawScaledChar@scaled_col+2
 11359   002374                     
 11360                           ;main.c: 282:         uint8_t rowOut = 0;
 11361   002374  6A17               	clrf	i2OLED_DrawScaledChar@rowOut^0,c
 11362   002376                     
 11363                           ;main.c: 284:         for (uint8_t bit = 0; bit < 7; bit++) {
 11364   002376  6A19               	clrf	i2OLED_DrawScaledChar@bit^0,c
 11365   002378                     i2l3989:
 11366                           
 11367                           ;main.c: 285:             uint8_t pixel = (colData >> bit) & 0x01;
 11368   002378  C019  F00C         	movff	i2OLED_DrawScaledChar@bit,??i2_OLED_DrawScaledChar
 11369   00237C  C011  F00D         	movff	i2OLED_DrawScaledChar@colData,??i2_OLED_DrawScaledChar+1
 11370   002380  2A0C               	incf	??i2_OLED_DrawScaledChar^0,f,c
 11371   002382  EFC5  F011         	goto	i2u478_44
 11372   002386                     i2u478_45:
 11373   002386  90D8               	bcf	status,0,c
 11374   002388  320D               	rrcf	(??i2_OLED_DrawScaledChar+1)^0,f,c
 11375   00238A                     i2u478_44:
 11376   00238A  2E0C               	decfsz	??i2_OLED_DrawScaledChar^0,f,c
 11377   00238C  EFC3  F011         	goto	i2u478_45
 11378   002390  500D               	movf	(??i2_OLED_DrawScaledChar+1)^0,w,c
 11379   002392  0B01               	andlw	1
 11380   002394  6E12               	movwf	i2OLED_DrawScaledChar@pixel^0,c
 11381   002396                     
 11382                           ;main.c: 286:             for (uint8_t v = 0; v < scale; v++) {
 11383   002396  6A15               	clrf	i2OLED_DrawScaledChar@v^0,c
 11384   002398  EFF8  F011         	goto	i2l4005
 11385   00239C                     i2l3993:
 11386                           
 11387                           ;main.c: 287:                 uint8_t outPage = rowOut / 8;
 11388   00239C  C017  F001         	movff	i2OLED_DrawScaledChar@rowOut,i2___awdiv@dividend
 11389   0023A0  6A02               	clrf	(i2___awdiv@dividend+1)^0,c
 11390   0023A2  0E00               	movlw	0
 11391   0023A4  6E04               	movwf	(i2___awdiv@divisor+1)^0,c
 11392   0023A6  0E08               	movlw	8
 11393   0023A8  6E03               	movwf	i2___awdiv@divisor^0,c
 11394   0023AA  ECBF  F016         	call	i2___awdiv	;wreg free
 11395   0023AE  5001               	movf	?i2___awdiv^0,w,c
 11396   0023B0  6E13               	movwf	i2OLED_DrawScaledChar@outPage^0,c
 11397   0023B2                     
 11398                           ;main.c: 288:                 uint8_t outBit = rowOut % 8;
 11399   0023B2  5017               	movf	i2OLED_DrawScaledChar@rowOut^0,w,c
 11400   0023B4  0B07               	andlw	7
 11401   0023B6  6E14               	movwf	i2OLED_DrawScaledChar@outBit^0,c
 11402   0023B8                     
 11403                           ;main.c: 289:                 if (pixel) scaled_col[outPage] |= (1 << outBit);
 11404   0023B8  5012               	movf	i2OLED_DrawScaledChar@pixel^0,w,c
 11405   0023BA  B4D8               	btfsc	status,2,c
 11406   0023BC  EFE2  F011         	goto	i2u479_41
 11407   0023C0  EFE4  F011         	goto	i2u479_40
 11408   0023C4                     i2u479_41:
 11409   0023C4  EFF6  F011         	goto	i2l4001
 11410   0023C8                     i2u479_40:
 11411   0023C8  C014  F00C         	movff	i2OLED_DrawScaledChar@outBit,??i2_OLED_DrawScaledChar
 11412   0023CC  0E01               	movlw	1
 11413   0023CE  6E0D               	movwf	(??i2_OLED_DrawScaledChar+1)^0,c
 11414   0023D0  2A0C               	incf	??i2_OLED_DrawScaledChar^0,f,c
 11415   0023D2  EFED  F011         	goto	i2u480_44
 11416   0023D6                     i2u480_45:
 11417   0023D6  90D8               	bcf	status,0,c
 11418   0023D8  360D               	rlcf	(??i2_OLED_DrawScaledChar+1)^0,f,c
 11419   0023DA                     i2u480_44:
 11420   0023DA  2E0C               	decfsz	??i2_OLED_DrawScaledChar^0,f,c
 11421   0023DC  EFEB  F011         	goto	i2u480_45
 11422   0023E0  5013               	movf	i2OLED_DrawScaledChar@outPage^0,w,c
 11423   0023E2  0F0E               	addlw	low i2OLED_DrawScaledChar@scaled_col
 11424   0023E4  6ED9               	movwf	fsr2l,c
 11425   0023E6  6ADA               	clrf	fsr2h,c
 11426   0023E8  500D               	movf	(??i2_OLED_DrawScaledChar+1)^0,w,c
 11427   0023EA  12DF               	iorwf	indf2,f,c
 11428   0023EC                     i2l4001:
 11429                           
 11430                           ;main.c: 290:                 rowOut++;
 11431   0023EC  2A17               	incf	i2OLED_DrawScaledChar@rowOut^0,f,c
 11432   0023EE                     
 11433                           ;main.c: 291:             }
 11434   0023EE  2A15               	incf	i2OLED_DrawScaledChar@v^0,f,c
 11435   0023F0                     i2l4005:
 11436   0023F0  5009               	movf	i2OLED_DrawScaledChar@scale^0,w,c
 11437   0023F2  5C15               	subwf	i2OLED_DrawScaledChar@v^0,w,c
 11438   0023F4  A0D8               	btfss	status,0,c
 11439   0023F6  EFFF  F011         	goto	i2u481_41
 11440   0023FA  EF01  F012         	goto	i2u481_40
 11441   0023FE                     i2u481_41:
 11442   0023FE  EFCE  F011         	goto	i2l3993
 11443   002402                     i2u481_40:
 11444   002402                     
 11445                           ;main.c: 292:         }
 11446   002402  2A19               	incf	i2OLED_DrawScaledChar@bit^0,f,c
 11447   002404  0E06               	movlw	6
 11448   002406  6419               	cpfsgt	i2OLED_DrawScaledChar@bit^0,c
 11449   002408  EF08  F012         	goto	i2u482_41
 11450   00240C  EF0A  F012         	goto	i2u482_40
 11451   002410                     i2u482_41:
 11452   002410  EFBC  F011         	goto	i2l3989
 11453   002414                     i2u482_40:
 11454   002414                     
 11455                           ;main.c: 294:         for (uint8_t x = 0; x < scale; x++) {
 11456   002414  6A18               	clrf	i2OLED_DrawScaledChar@x^0,c
 11457   002416  EF36  F012         	goto	i2l4029
 11458   00241A                     i2l234:
 11459                           
 11460                           ;main.c: 295:             for (uint8_t p = 0; p < scale; p++) {
 11461   00241A  6A1A               	clrf	i2OLED_DrawScaledChar@p^0,c
 11462   00241C  EF2C  F012         	goto	i2l4025
 11463   002420                     i2l4011:
 11464                           
 11465                           ;main.c: 296:                 OLED_SetCursor(start_page + p, start_col + (col * scale) +
      +                           x);
 11466   002420  501B               	movf	i2OLED_DrawScaledChar@col^0,w,c
 11467   002422  0209               	mulwf	i2OLED_DrawScaledChar@scale^0,c
 11468   002424  50F3               	movf	243,w,c
 11469   002426  240B               	addwf	i2OLED_DrawScaledChar@start_col^0,w,c
 11470   002428  2418               	addwf	i2OLED_DrawScaledChar@x^0,w,c
 11471   00242A  6E04               	movwf	i2OLED_SetCursor@col^0,c
 11472   00242C  500A               	movf	i2OLED_DrawScaledChar@start_page^0,w,c
 11473   00242E  241A               	addwf	i2OLED_DrawScaledChar@p^0,w,c
 11474   002430  EC1B  F01B         	call	i2_OLED_SetCursor
 11475   002434                     
 11476                           ;main.c: 297:                 I2C_Start();
 11477   002434  EC8D  F01B         	call	i2_I2C_Start	;wreg free
 11478   002438                     
 11479                           ;main.c: 298:                 I2C_Write(0x3C << 1);
 11480   002438  0E78               	movlw	120
 11481   00243A  EC48  F01B         	call	i2_I2C_Write
 11482   00243E                     
 11483                           ;main.c: 299:                 I2C_Write(0x40);
 11484   00243E  0E40               	movlw	64
 11485   002440  EC48  F01B         	call	i2_I2C_Write
 11486   002444                     
 11487                           ;main.c: 300:                 I2C_Write(scaled_col[p]);
 11488   002444  501A               	movf	i2OLED_DrawScaledChar@p^0,w,c
 11489   002446  0F0E               	addlw	low i2OLED_DrawScaledChar@scaled_col
 11490   002448  6ED9               	movwf	fsr2l,c
 11491   00244A  6ADA               	clrf	fsr2h,c
 11492   00244C  50DF               	movf	indf2,w,c
 11493   00244E  EC48  F01B         	call	i2_I2C_Write
 11494   002452                     
 11495                           ;main.c: 301:                 I2C_Stop();
 11496   002452  EC82  F01B         	call	i2_I2C_Stop	;wreg free
 11497   002456                     
 11498                           ;main.c: 302:             }
 11499   002456  2A1A               	incf	i2OLED_DrawScaledChar@p^0,f,c
 11500   002458                     i2l4025:
 11501   002458  5009               	movf	i2OLED_DrawScaledChar@scale^0,w,c
 11502   00245A  5C1A               	subwf	i2OLED_DrawScaledChar@p^0,w,c
 11503   00245C  A0D8               	btfss	status,0,c
 11504   00245E  EF33  F012         	goto	i2u483_41
 11505   002462  EF35  F012         	goto	i2u483_40
 11506   002466                     i2u483_41:
 11507   002466  EF10  F012         	goto	i2l4011
 11508   00246A                     i2u483_40:
 11509   00246A                     
 11510                           ;main.c: 303:         }
 11511   00246A  2A18               	incf	i2OLED_DrawScaledChar@x^0,f,c
 11512   00246C                     i2l4029:
 11513   00246C  5009               	movf	i2OLED_DrawScaledChar@scale^0,w,c
 11514   00246E  5C18               	subwf	i2OLED_DrawScaledChar@x^0,w,c
 11515   002470  A0D8               	btfss	status,0,c
 11516   002472  EF3D  F012         	goto	i2u484_41
 11517   002476  EF3F  F012         	goto	i2u484_40
 11518   00247A                     i2u484_41:
 11519   00247A  EF0D  F012         	goto	i2l234
 11520   00247E                     i2u484_40:
 11521   00247E                     
 11522                           ;main.c: 304:     }
 11523   00247E  2A1B               	incf	i2OLED_DrawScaledChar@col^0,f,c
 11524   002480  0E04               	movlw	4
 11525   002482  641B               	cpfsgt	i2OLED_DrawScaledChar@col^0,c
 11526   002484  EF46  F012         	goto	i2u485_41
 11527   002488  EF48  F012         	goto	i2u485_40
 11528   00248C                     i2u485_41:
 11529   00248C  EFA1  F011         	goto	i2l3977
 11530   002490                     i2u485_40:
 11531   002490                     i2l222:
 11532   002490  0012               	return		;funcret
 11533   002492                     __end_ofi2_OLED_DrawScaledChar:
 11534                           	callstack 0
 11535                           
 11536 ;; *************** function i2___awdiv *****************
 11537 ;; Defined at:
 11538 ;;		line 7 in file "C:\Program Files\Microchip\xc8\v3.00\pic\sources\c99\common\awdiv.c"
 11539 ;; Parameters:    Size  Location     Type
 11540 ;;  dividend        2    0[COMRAM] int 
 11541 ;;  divisor         2    2[COMRAM] int 
 11542 ;; Auto vars:     Size  Location     Type
 11543 ;;  quotient        2    6[COMRAM] int 
 11544 ;;  sign            1    5[COMRAM] unsigned char 
 11545 ;;  counter         1    4[COMRAM] unsigned char 
 11546 ;; Return value:  Size  Location     Type
 11547 ;;                  2    0[COMRAM] int 
 11548 ;; Registers used:
 11549 ;;		wreg, status,2, status,0
 11550 ;; Tracked objects:
 11551 ;;		On entry : 0/0
 11552 ;;		On exit  : 0/0
 11553 ;;		Unchanged: 0/0
 11554 ;; Data sizes:     COMRAM   BANK0   BANK1   BANK2   BANK3   BANK4   BANK5   BANK6   BANK7
 11555 ;;      Params:         4       0       0       0       0       0       0       0       0
 11556 ;;      Locals:         4       0       0       0       0       0       0       0       0
 11557 ;;      Temps:          0       0       0       0       0       0       0       0       0
 11558 ;;      Totals:         8       0       0       0       0       0       0       0       0
 11559 ;;Total ram usage:        8 bytes
 11560 ;; Hardware stack levels used: 1
 11561 ;; This function calls:
 11562 ;;		Nothing
 11563 ;; This function is called by:
 11564 ;;		i2_OLED_DrawScaledChar
 11565 ;;		i2_OLED_DrawCentered2x_AtPage
 11566 ;; This function uses a non-reentrant model
 11567 ;;
 11568                           
 11569                           	psect	text50
 11570   002D7E                     __ptext50:
 11571                           	callstack 0
 11572   002D7E                     i2___awdiv:
 11573                           	callstack 22
 11574   002D7E  6A06               	clrf	i2___awdiv@sign^0,c
 11575   002D80  BE04               	btfsc	(i2___awdiv@divisor+1)^0,7,c
 11576   002D82  EFC7  F016         	goto	i2u429_40
 11577   002D86  EFC5  F016         	goto	i2u429_41
 11578   002D8A                     i2u429_41:
 11579   002D8A  EFCD  F016         	goto	i2l3695
 11580   002D8E                     i2u429_40:
 11581   002D8E  6C03               	negf	i2___awdiv@divisor^0,c
 11582   002D90  1E04               	comf	(i2___awdiv@divisor+1)^0,f,c
 11583   002D92  B0D8               	btfsc	status,0,c
 11584   002D94  2A04               	incf	(i2___awdiv@divisor+1)^0,f,c
 11585   002D96  0E01               	movlw	1
 11586   002D98  6E06               	movwf	i2___awdiv@sign^0,c
 11587   002D9A                     i2l3695:
 11588   002D9A  BE02               	btfsc	(i2___awdiv@dividend+1)^0,7,c
 11589   002D9C  EFD4  F016         	goto	i2u430_40
 11590   002DA0  EFD2  F016         	goto	i2u430_41
 11591   002DA4                     i2u430_41:
 11592   002DA4  EFDA  F016         	goto	i2l3701
 11593   002DA8                     i2u430_40:
 11594   002DA8  6C01               	negf	i2___awdiv@dividend^0,c
 11595   002DAA  1E02               	comf	(i2___awdiv@dividend+1)^0,f,c
 11596   002DAC  B0D8               	btfsc	status,0,c
 11597   002DAE  2A02               	incf	(i2___awdiv@dividend+1)^0,f,c
 11598   002DB0  0E01               	movlw	1
 11599   002DB2  1A06               	xorwf	i2___awdiv@sign^0,f,c
 11600   002DB4                     i2l3701:
 11601   002DB4  0E00               	movlw	0
 11602   002DB6  6E08               	movwf	(i2___awdiv@quotient+1)^0,c
 11603   002DB8  0E00               	movlw	0
 11604   002DBA  6E07               	movwf	i2___awdiv@quotient^0,c
 11605   002DBC  5003               	movf	i2___awdiv@divisor^0,w,c
 11606   002DBE  1004               	iorwf	(i2___awdiv@divisor+1)^0,w,c
 11607   002DC0  B4D8               	btfsc	status,2,c
 11608   002DC2  EFE5  F016         	goto	i2u431_41
 11609   002DC6  EFE7  F016         	goto	i2u431_40
 11610   002DCA                     i2u431_41:
 11611   002DCA  EF0F  F017         	goto	i2l3723
 11612   002DCE                     i2u431_40:
 11613   002DCE  0E01               	movlw	1
 11614   002DD0  6E05               	movwf	i2___awdiv@counter^0,c
 11615   002DD2  EFEF  F016         	goto	i2l3709
 11616   002DD6                     i2l3707:
 11617   002DD6  90D8               	bcf	status,0,c
 11618   002DD8  3603               	rlcf	i2___awdiv@divisor^0,f,c
 11619   002DDA  3604               	rlcf	(i2___awdiv@divisor+1)^0,f,c
 11620   002DDC  2A05               	incf	i2___awdiv@counter^0,f,c
 11621   002DDE                     i2l3709:
 11622   002DDE  AE04               	btfss	(i2___awdiv@divisor+1)^0,7,c
 11623   002DE0  EFF4  F016         	goto	i2u432_41
 11624   002DE4  EFF6  F016         	goto	i2u432_40
 11625   002DE8                     i2u432_41:
 11626   002DE8  EFEB  F016         	goto	i2l3707
 11627   002DEC                     i2u432_40:
 11628   002DEC                     i2l3711:
 11629   002DEC  90D8               	bcf	status,0,c
 11630   002DEE  3607               	rlcf	i2___awdiv@quotient^0,f,c
 11631   002DF0  3608               	rlcf	(i2___awdiv@quotient+1)^0,f,c
 11632   002DF2  5003               	movf	i2___awdiv@divisor^0,w,c
 11633   002DF4  5C01               	subwf	i2___awdiv@dividend^0,w,c
 11634   002DF6  5004               	movf	(i2___awdiv@divisor+1)^0,w,c
 11635   002DF8  5802               	subwfb	(i2___awdiv@dividend+1)^0,w,c
 11636   002DFA  A0D8               	btfss	status,0,c
 11637   002DFC  EF02  F017         	goto	i2u433_41
 11638   002E00  EF04  F017         	goto	i2u433_40
 11639   002E04                     i2u433_41:
 11640   002E04  EF09  F017         	goto	i2l3719
 11641   002E08                     i2u433_40:
 11642   002E08  5003               	movf	i2___awdiv@divisor^0,w,c
 11643   002E0A  5E01               	subwf	i2___awdiv@dividend^0,f,c
 11644   002E0C  5004               	movf	(i2___awdiv@divisor+1)^0,w,c
 11645   002E0E  5A02               	subwfb	(i2___awdiv@dividend+1)^0,f,c
 11646   002E10  8007               	bsf	i2___awdiv@quotient^0,0,c
 11647   002E12                     i2l3719:
 11648   002E12  90D8               	bcf	status,0,c
 11649   002E14  3204               	rrcf	(i2___awdiv@divisor+1)^0,f,c
 11650   002E16  3203               	rrcf	i2___awdiv@divisor^0,f,c
 11651   002E18  2E05               	decfsz	i2___awdiv@counter^0,f,c
 11652   002E1A  EFF6  F016         	goto	i2l3711
 11653   002E1E                     i2l3723:
 11654   002E1E  5006               	movf	i2___awdiv@sign^0,w,c
 11655   002E20  B4D8               	btfsc	status,2,c
 11656   002E22  EF15  F017         	goto	i2u434_41
 11657   002E26  EF17  F017         	goto	i2u434_40
 11658   002E2A                     i2u434_41:
 11659   002E2A  EF1B  F017         	goto	i2l3727
 11660   002E2E                     i2u434_40:
 11661   002E2E  6C07               	negf	i2___awdiv@quotient^0,c
 11662   002E30  1E08               	comf	(i2___awdiv@quotient+1)^0,f,c
 11663   002E32  B0D8               	btfsc	status,0,c
 11664   002E34  2A08               	incf	(i2___awdiv@quotient+1)^0,f,c
 11665   002E36                     i2l3727:
 11666   002E36  C007  F001         	movff	i2___awdiv@quotient,?i2___awdiv
 11667   002E3A  C008  F002         	movff	i2___awdiv@quotient+1,?i2___awdiv+1
 11668   002E3E  0012               	return		;funcret
 11669   002E40                     __end_ofi2___awdiv:
 11670                           	callstack 0
 11671                           
 11672 ;; *************** function i2_OLED_SetCursor *****************
 11673 ;; Defined at:
 11674 ;;		line 255 in file "main.c"
 11675 ;; Parameters:    Size  Location     Type
 11676 ;;  page            1    wreg     unsigned char 
 11677 ;;  col             1    3[COMRAM] unsigned char 
 11678 ;; Auto vars:     Size  Location     Type
 11679 ;;  page            1    4[COMRAM] unsigned char 
 11680 ;; Return value:  Size  Location     Type
 11681 ;;                  1    wreg      void 
 11682 ;; Registers used:
 11683 ;;		wreg, status,2, status,0, cstack
 11684 ;; Tracked objects:
 11685 ;;		On entry : 0/0
 11686 ;;		On exit  : 0/0
 11687 ;;		Unchanged: 0/0
 11688 ;; Data sizes:     COMRAM   BANK0   BANK1   BANK2   BANK3   BANK4   BANK5   BANK6   BANK7
 11689 ;;      Params:         1       0       0       0       0       0       0       0       0
 11690 ;;      Locals:         1       0       0       0       0       0       0       0       0
 11691 ;;      Temps:          0       0       0       0       0       0       0       0       0
 11692 ;;      Totals:         2       0       0       0       0       0       0       0       0
 11693 ;;Total ram usage:        2 bytes
 11694 ;; Hardware stack levels used: 1
 11695 ;; Hardware stack levels required when called: 3
 11696 ;; This function calls:
 11697 ;;		i2_OLED_Command
 11698 ;; This function is called by:
 11699 ;;		i2_OLED_DrawScaledChar
 11700 ;; This function uses a non-reentrant model
 11701 ;;
 11702                           
 11703                           	psect	text51
 11704   003636                     __ptext51:
 11705                           	callstack 0
 11706   003636                     i2_OLED_SetCursor:
 11707                           	callstack 18
 11708                           
 11709                           ;incstack = 0
 11710                           ;i2OLED_SetCursor@page stored from wreg
 11711   003636  6E05               	movwf	i2OLED_SetCursor@page^0,c
 11712   003638                     
 11713                           ;main.c: 256:     OLED_Command(0xB0 + page);
 11714   003638  5005               	movf	i2OLED_SetCursor@page^0,w,c
 11715   00363A  0FB0               	addlw	176
 11716   00363C  EC2B  F01B         	call	i2_OLED_Command
 11717                           
 11718                           ;main.c: 257:     OLED_Command(0x00 + (col & 0x0F));
 11719   003640  5004               	movf	i2OLED_SetCursor@col^0,w,c
 11720   003642  0B0F               	andlw	15
 11721   003644  EC2B  F01B         	call	i2_OLED_Command
 11722                           
 11723                           ;main.c: 258:     OLED_Command(0x10 + ((col >> 4) & 0x0F));
 11724   003648  3804               	swapf	i2OLED_SetCursor@col^0,w,c
 11725   00364A  0B0F               	andlw	15
 11726   00364C  0B0F               	andlw	15
 11727   00364E  0F10               	addlw	16
 11728   003650  EC2B  F01B         	call	i2_OLED_Command
 11729   003654  0012               	return		;funcret
 11730   003656                     __end_ofi2_OLED_SetCursor:
 11731                           	callstack 0
 11732                           
 11733 ;; *************** function i2_OLED_ClearArea *****************
 11734 ;; Defined at:
 11735 ;;		line 199 in file "main.c"
 11736 ;; Parameters:    Size  Location     Type
 11737 ;;  startPage       1    wreg     unsigned char 
 11738 ;;  endPage         1    3[COMRAM] unsigned char 
 11739 ;;  startCol        1    4[COMRAM] unsigned char 
 11740 ;;  endCol          1    5[COMRAM] unsigned char 
 11741 ;; Auto vars:     Size  Location     Type
 11742 ;;  startPage       1    6[COMRAM] unsigned char 
 11743 ;;  page            1    8[COMRAM] unsigned char 
 11744 ;;  col             1    7[COMRAM] unsigned char 
 11745 ;; Return value:  Size  Location     Type
 11746 ;;                  1    wreg      void 
 11747 ;; Registers used:
 11748 ;;		wreg, status,2, status,0, cstack
 11749 ;; Tracked objects:
 11750 ;;		On entry : 0/0
 11751 ;;		On exit  : 0/0
 11752 ;;		Unchanged: 0/0
 11753 ;; Data sizes:     COMRAM   BANK0   BANK1   BANK2   BANK3   BANK4   BANK5   BANK6   BANK7
 11754 ;;      Params:         3       0       0       0       0       0       0       0       0
 11755 ;;      Locals:         3       0       0       0       0       0       0       0       0
 11756 ;;      Temps:          0       0       0       0       0       0       0       0       0
 11757 ;;      Totals:         6       0       0       0       0       0       0       0       0
 11758 ;;Total ram usage:        6 bytes
 11759 ;; Hardware stack levels used: 1
 11760 ;; Hardware stack levels required when called: 3
 11761 ;; This function calls:
 11762 ;;		i2_I2C_Start
 11763 ;;		i2_I2C_Stop
 11764 ;;		i2_I2C_Write
 11765 ;;		i2_OLED_Command
 11766 ;; This function is called by:
 11767 ;;		_ISR
 11768 ;; This function uses a non-reentrant model
 11769 ;;
 11770                           
 11771                           	psect	text52
 11772   00318A                     __ptext52:
 11773                           	callstack 0
 11774   00318A                     i2_OLED_ClearArea:
 11775                           	callstack 20
 11776                           
 11777                           ;incstack = 0
 11778                           ;i2OLED_ClearArea@startPage stored from wreg
 11779   00318A  6E07               	movwf	i2OLED_ClearArea@startPage^0,c
 11780   00318C                     
 11781                           ;main.c: 200:     for (uint8_t page = startPage; page <= endPage; page++) {
 11782   00318C  C007  F009         	movff	i2OLED_ClearArea@startPage,i2OLED_ClearArea@page
 11783   003190  EFF4  F018         	goto	i2l4285
 11784   003194                     i2l4271:
 11785                           
 11786                           ;main.c: 201:         OLED_Command(0xB0 + page);
 11787   003194  5009               	movf	i2OLED_ClearArea@page^0,w,c
 11788   003196  0FB0               	addlw	176
 11789   003198  EC2B  F01B         	call	i2_OLED_Command
 11790                           
 11791                           ;main.c: 202:         OLED_Command(0x00 + (startCol & 0x0F));
 11792   00319C  5005               	movf	i2OLED_ClearArea@startCol^0,w,c
 11793   00319E  0B0F               	andlw	15
 11794   0031A0  EC2B  F01B         	call	i2_OLED_Command
 11795                           
 11796                           ;main.c: 203:         OLED_Command(0x10 + ((startCol >> 4) & 0x0F));
 11797   0031A4  3805               	swapf	i2OLED_ClearArea@startCol^0,w,c
 11798   0031A6  0B0F               	andlw	15
 11799   0031A8  0B0F               	andlw	15
 11800   0031AA  0F10               	addlw	16
 11801   0031AC  EC2B  F01B         	call	i2_OLED_Command
 11802                           
 11803                           ;main.c: 204:         I2C_Start();
 11804   0031B0  EC8D  F01B         	call	i2_I2C_Start	;wreg free
 11805                           
 11806                           ;main.c: 205:         I2C_Write(0x3C << 1);
 11807   0031B4  0E78               	movlw	120
 11808   0031B6  EC48  F01B         	call	i2_I2C_Write
 11809                           
 11810                           ;main.c: 206:         I2C_Write(0x40);
 11811   0031BA  0E40               	movlw	64
 11812   0031BC  EC48  F01B         	call	i2_I2C_Write
 11813   0031C0                     
 11814                           ;main.c: 207:         for (uint8_t col = startCol; col <= endCol; col++) I2C_Write(0x00)
      +                          ;
 11815   0031C0  C005  F008         	movff	i2OLED_ClearArea@startCol,i2OLED_ClearArea@col
 11816   0031C4  EFE8  F018         	goto	i2l4279
 11817   0031C8                     i2l4275:
 11818   0031C8  0E00               	movlw	0
 11819   0031CA  EC48  F01B         	call	i2_I2C_Write
 11820   0031CE  2A08               	incf	i2OLED_ClearArea@col^0,f,c
 11821   0031D0                     i2l4279:
 11822   0031D0  5008               	movf	i2OLED_ClearArea@col^0,w,c
 11823   0031D2  5C06               	subwf	i2OLED_ClearArea@endCol^0,w,c
 11824   0031D4  B0D8               	btfsc	status,0,c
 11825   0031D6  EFEF  F018         	goto	i2u518_41
 11826   0031DA  EFF1  F018         	goto	i2u518_40
 11827   0031DE                     i2u518_41:
 11828   0031DE  EFE4  F018         	goto	i2l4275
 11829   0031E2                     i2u518_40:
 11830   0031E2                     
 11831                           ;main.c: 208:         I2C_Stop();
 11832   0031E2  EC82  F01B         	call	i2_I2C_Stop	;wreg free
 11833   0031E6                     
 11834                           ;main.c: 209:     }
 11835   0031E6  2A09               	incf	i2OLED_ClearArea@page^0,f,c
 11836   0031E8                     i2l4285:
 11837   0031E8  5009               	movf	i2OLED_ClearArea@page^0,w,c
 11838   0031EA  5C04               	subwf	i2OLED_ClearArea@endPage^0,w,c
 11839   0031EC  B0D8               	btfsc	status,0,c
 11840   0031EE  EFFB  F018         	goto	i2u519_41
 11841   0031F2  EFFD  F018         	goto	i2u519_40
 11842   0031F6                     i2u519_41:
 11843   0031F6  EFCA  F018         	goto	i2l4271
 11844   0031FA                     i2u519_40:
 11845   0031FA  0012               	return		;funcret
 11846   0031FC                     __end_ofi2_OLED_ClearArea:
 11847                           	callstack 0
 11848                           
 11849 ;; *************** function i2_OLED_Command *****************
 11850 ;; Defined at:
 11851 ;;		line 160 in file "main.c"
 11852 ;; Parameters:    Size  Location     Type
 11853 ;;  cmd             1    wreg     unsigned char 
 11854 ;; Auto vars:     Size  Location     Type
 11855 ;;  cmd             1    2[COMRAM] unsigned char 
 11856 ;; Return value:  Size  Location     Type
 11857 ;;                  1    wreg      void 
 11858 ;; Registers used:
 11859 ;;		wreg, status,2, status,0, cstack
 11860 ;; Tracked objects:
 11861 ;;		On entry : 0/0
 11862 ;;		On exit  : 0/0
 11863 ;;		Unchanged: 0/0
 11864 ;; Data sizes:     COMRAM   BANK0   BANK1   BANK2   BANK3   BANK4   BANK5   BANK6   BANK7
 11865 ;;      Params:         0       0       0       0       0       0       0       0       0
 11866 ;;      Locals:         1       0       0       0       0       0       0       0       0
 11867 ;;      Temps:          0       0       0       0       0       0       0       0       0
 11868 ;;      Totals:         1       0       0       0       0       0       0       0       0
 11869 ;;Total ram usage:        1 bytes
 11870 ;; Hardware stack levels used: 1
 11871 ;; Hardware stack levels required when called: 2
 11872 ;; This function calls:
 11873 ;;		i2_I2C_Start
 11874 ;;		i2_I2C_Stop
 11875 ;;		i2_I2C_Write
 11876 ;; This function is called by:
 11877 ;;		i2_OLED_ClearArea
 11878 ;;		i2_OLED_SetCursor
 11879 ;; This function uses a non-reentrant model
 11880 ;;
 11881                           
 11882                           	psect	text53
 11883   003656                     __ptext53:
 11884                           	callstack 0
 11885   003656                     i2_OLED_Command:
 11886                           	callstack 18
 11887                           
 11888                           ;incstack = 0
 11889                           ;i2OLED_Command@cmd stored from wreg
 11890   003656  6E03               	movwf	i2OLED_Command@cmd^0,c
 11891   003658                     
 11892                           ;main.c: 161:     I2C_Start();
 11893   003658  EC8D  F01B         	call	i2_I2C_Start	;wreg free
 11894                           
 11895                           ;main.c: 162:     I2C_Write(0x3C << 1);
 11896   00365C  0E78               	movlw	120
 11897   00365E  EC48  F01B         	call	i2_I2C_Write
 11898                           
 11899                           ;main.c: 163:     I2C_Write(0x00);
 11900   003662  0E00               	movlw	0
 11901   003664  EC48  F01B         	call	i2_I2C_Write
 11902                           
 11903                           ;main.c: 164:     I2C_Write(cmd);
 11904   003668  5003               	movf	i2OLED_Command@cmd^0,w,c
 11905   00366A  EC48  F01B         	call	i2_I2C_Write
 11906                           
 11907                           ;main.c: 165:     I2C_Stop();
 11908   00366E  EC82  F01B         	call	i2_I2C_Stop	;wreg free
 11909   003672  0012               	return		;funcret
 11910   003674                     __end_ofi2_OLED_Command:
 11911                           	callstack 0
 11912                           
 11913 ;; *************** function i2_I2C_Write *****************
 11914 ;; Defined at:
 11915 ;;		line 151 in file "main.c"
 11916 ;; Parameters:    Size  Location     Type
 11917 ;;  data            1    wreg     unsigned char 
 11918 ;; Auto vars:     Size  Location     Type
 11919 ;;  data            1    1[COMRAM] unsigned char 
 11920 ;; Return value:  Size  Location     Type
 11921 ;;                  1    wreg      void 
 11922 ;; Registers used:
 11923 ;;		wreg, status,2, status,0, cstack
 11924 ;; Tracked objects:
 11925 ;;		On entry : 0/0
 11926 ;;		On exit  : 0/0
 11927 ;;		Unchanged: 0/0
 11928 ;; Data sizes:     COMRAM   BANK0   BANK1   BANK2   BANK3   BANK4   BANK5   BANK6   BANK7
 11929 ;;      Params:         0       0       0       0       0       0       0       0       0
 11930 ;;      Locals:         1       0       0       0       0       0       0       0       0
 11931 ;;      Temps:          0       0       0       0       0       0       0       0       0
 11932 ;;      Totals:         1       0       0       0       0       0       0       0       0
 11933 ;;Total ram usage:        1 bytes
 11934 ;; Hardware stack levels used: 1
 11935 ;; Hardware stack levels required when called: 1
 11936 ;; This function calls:
 11937 ;;		i2_I2C_Wait
 11938 ;; This function is called by:
 11939 ;;		i2_OLED_Command
 11940 ;;		i2_OLED_ClearArea
 11941 ;;		i2_OLED_DrawScaledChar
 11942 ;; This function uses a non-reentrant model
 11943 ;;
 11944                           
 11945                           	psect	text54
 11946   003690                     __ptext54:
 11947                           	callstack 0
 11948   003690                     i2_I2C_Write:
 11949                           	callstack 18
 11950                           
 11951                           ;incstack = 0
 11952                           ;i2I2C_Write@data stored from wreg
 11953   003690  6E02               	movwf	i2I2C_Write@data^0,c
 11954   003692                     
 11955                           ;main.c: 152:     I2C_Wait();
 11956   003692  ECF7  F01A         	call	i2_I2C_Wait	;wreg free
 11957   003696                     
 11958                           ;main.c: 153:     SSPBUF = data;
 11959   003696  C002  FFC9         	movff	i2I2C_Write@data,4041	;volatile
 11960   00369A                     i2l186:
 11961   00369A  B0C7               	btfsc	199,0,c	;volatile
 11962   00369C  EF52  F01B         	goto	i2u362_41
 11963   0036A0  EF54  F01B         	goto	i2u362_40
 11964   0036A4                     i2u362_41:
 11965   0036A4  EF4D  F01B         	goto	i2l186
 11966   0036A8                     i2u362_40:
 11967   0036A8  0012               	return		;funcret
 11968   0036AA                     __end_ofi2_I2C_Write:
 11969                           	callstack 0
 11970                           
 11971 ;; *************** function i2_I2C_Stop *****************
 11972 ;; Defined at:
 11973 ;;		line 144 in file "main.c"
 11974 ;; Parameters:    Size  Location     Type
 11975 ;;		None
 11976 ;; Auto vars:     Size  Location     Type
 11977 ;;		None
 11978 ;; Return value:  Size  Location     Type
 11979 ;;                  1    wreg      void 
 11980 ;; Registers used:
 11981 ;;		wreg, status,2, status,0, cstack
 11982 ;; Tracked objects:
 11983 ;;		On entry : 0/0
 11984 ;;		On exit  : 0/0
 11985 ;;		Unchanged: 0/0
 11986 ;; Data sizes:     COMRAM   BANK0   BANK1   BANK2   BANK3   BANK4   BANK5   BANK6   BANK7
 11987 ;;      Params:         0       0       0       0       0       0       0       0       0
 11988 ;;      Locals:         0       0       0       0       0       0       0       0       0
 11989 ;;      Temps:          0       0       0       0       0       0       0       0       0
 11990 ;;      Totals:         0       0       0       0       0       0       0       0       0
 11991 ;;Total ram usage:        0 bytes
 11992 ;; Hardware stack levels used: 1
 11993 ;; Hardware stack levels required when called: 1
 11994 ;; This function calls:
 11995 ;;		i2_I2C_Wait
 11996 ;; This function is called by:
 11997 ;;		i2_OLED_Command
 11998 ;;		i2_OLED_ClearArea
 11999 ;;		i2_OLED_DrawScaledChar
 12000 ;; This function uses a non-reentrant model
 12001 ;;
 12002                           
 12003                           	psect	text55
 12004   003704                     __ptext55:
 12005                           	callstack 0
 12006   003704                     i2_I2C_Stop:
 12007                           	callstack 18
 12008   003704                     
 12009                           ;main.c: 145:     I2C_Wait();
 12010   003704  ECF7  F01A         	call	i2_I2C_Wait	;wreg free
 12011   003708                     
 12012                           ;main.c: 146:     SSPCON2bits.PEN = 1;
 12013   003708  84C5               	bsf	197,2,c	;volatile
 12014   00370A                     i2l180:
 12015   00370A  B4C5               	btfsc	197,2,c	;volatile
 12016   00370C  EF8A  F01B         	goto	i2u361_41
 12017   003710  EF8C  F01B         	goto	i2u361_40
 12018   003714                     i2u361_41:
 12019   003714  EF85  F01B         	goto	i2l180
 12020   003718                     i2u361_40:
 12021   003718  0012               	return		;funcret
 12022   00371A                     __end_ofi2_I2C_Stop:
 12023                           	callstack 0
 12024                           
 12025 ;; *************** function i2_I2C_Start *****************
 12026 ;; Defined at:
 12027 ;;		line 137 in file "main.c"
 12028 ;; Parameters:    Size  Location     Type
 12029 ;;		None
 12030 ;; Auto vars:     Size  Location     Type
 12031 ;;		None
 12032 ;; Return value:  Size  Location     Type
 12033 ;;                  1    wreg      void 
 12034 ;; Registers used:
 12035 ;;		wreg, status,2, status,0, cstack
 12036 ;; Tracked objects:
 12037 ;;		On entry : 0/0
 12038 ;;		On exit  : 0/0
 12039 ;;		Unchanged: 0/0
 12040 ;; Data sizes:     COMRAM   BANK0   BANK1   BANK2   BANK3   BANK4   BANK5   BANK6   BANK7
 12041 ;;      Params:         0       0       0       0       0       0       0       0       0
 12042 ;;      Locals:         0       0       0       0       0       0       0       0       0
 12043 ;;      Temps:          0       0       0       0       0       0       0       0       0
 12044 ;;      Totals:         0       0       0       0       0       0       0       0       0
 12045 ;;Total ram usage:        0 bytes
 12046 ;; Hardware stack levels used: 1
 12047 ;; Hardware stack levels required when called: 1
 12048 ;; This function calls:
 12049 ;;		i2_I2C_Wait
 12050 ;; This function is called by:
 12051 ;;		i2_OLED_Command
 12052 ;;		i2_OLED_ClearArea
 12053 ;;		i2_OLED_DrawScaledChar
 12054 ;; This function uses a non-reentrant model
 12055 ;;
 12056                           
 12057                           	psect	text56
 12058   00371A                     __ptext56:
 12059                           	callstack 0
 12060   00371A                     i2_I2C_Start:
 12061                           	callstack 18
 12062   00371A                     
 12063                           ;main.c: 138:     I2C_Wait();
 12064   00371A  ECF7  F01A         	call	i2_I2C_Wait	;wreg free
 12065   00371E                     
 12066                           ;main.c: 139:     SSPCON2bits.SEN = 1;
 12067   00371E  80C5               	bsf	197,0,c	;volatile
 12068   003720                     i2l174:
 12069   003720  B0C5               	btfsc	197,0,c	;volatile
 12070   003722  EF95  F01B         	goto	i2u360_41
 12071   003726  EF97  F01B         	goto	i2u360_40
 12072   00372A                     i2u360_41:
 12073   00372A  EF90  F01B         	goto	i2l174
 12074   00372E                     i2u360_40:
 12075   00372E  0012               	return		;funcret
 12076   003730                     __end_ofi2_I2C_Start:
 12077                           	callstack 0
 12078                           
 12079 ;; *************** function i2_I2C_Wait *****************
 12080 ;; Defined at:
 12081 ;;		line 132 in file "main.c"
 12082 ;; Parameters:    Size  Location     Type
 12083 ;;		None
 12084 ;; Auto vars:     Size  Location     Type
 12085 ;;		None
 12086 ;; Return value:  Size  Location     Type
 12087 ;;                  1    wreg      void 
 12088 ;; Registers used:
 12089 ;;		wreg, status,2, status,0
 12090 ;; Tracked objects:
 12091 ;;		On entry : 0/0
 12092 ;;		On exit  : 0/0
 12093 ;;		Unchanged: 0/0
 12094 ;; Data sizes:     COMRAM   BANK0   BANK1   BANK2   BANK3   BANK4   BANK5   BANK6   BANK7
 12095 ;;      Params:         0       0       0       0       0       0       0       0       0
 12096 ;;      Locals:         0       0       0       0       0       0       0       0       0
 12097 ;;      Temps:          1       0       0       0       0       0       0       0       0
 12098 ;;      Totals:         1       0       0       0       0       0       0       0       0
 12099 ;;Total ram usage:        1 bytes
 12100 ;; Hardware stack levels used: 1
 12101 ;; This function calls:
 12102 ;;		Nothing
 12103 ;; This function is called by:
 12104 ;;		i2_I2C_Start
 12105 ;;		i2_I2C_Stop
 12106 ;;		i2_I2C_Write
 12107 ;; This function uses a non-reentrant model
 12108 ;;
 12109                           
 12110                           	psect	text57
 12111   0035EE                     __ptext57:
 12112                           	callstack 0
 12113   0035EE                     i2_I2C_Wait:
 12114                           	callstack 18
 12115   0035EE                     i2l2825:
 12116   0035EE  CFC5 F001          	movff	4037,??i2_I2C_Wait	;volatile
 12117   0035F2  0E1F               	movlw	31
 12118   0035F4  1601               	andwf	??i2_I2C_Wait^0,f,c
 12119   0035F6  A4D8               	btfss	status,2,c
 12120   0035F8  EF00  F01B         	goto	i2u274_41
 12121   0035FC  EF02  F01B         	goto	i2u274_40
 12122   003600                     i2u274_41:
 12123   003600  EFF7  F01A         	goto	i2l2825
 12124   003604                     i2u274_40:
 12125   003604  B4C7               	btfsc	199,2,c	;volatile
 12126   003606  EF07  F01B         	goto	i2u275_41
 12127   00360A  EF09  F01B         	goto	i2u275_40
 12128   00360E                     i2u275_41:
 12129   00360E  EFF7  F01A         	goto	i2l2825
 12130   003612                     i2u275_40:
 12131   003612  0012               	return		;funcret
 12132   003614                     __end_ofi2_I2C_Wait:
 12133                           	callstack 0
 12134                           
 12135                           	psect	rparam
 12136   000001                     ___rparam_used  equ	1
 12137   000000                     ___param_bank   equ	0
 12138   000000                     __Lparam        equ	__Lrparam
 12139   000000                     __Hparam        equ	__Hrparam
 12140                           
 12141                           	psect	temp
 12142   000056                     btemp:
 12143                           	callstack 0
 12144   000056                     	ds	1
 12145   000056                     int$flags       set	btemp
 12146   000057                     wtemp8          set	btemp+1
 12147   000057                     ttemp5          set	btemp+1
 12148   00005A                     ttemp6          set	btemp+4
 12149   00005E                     ttemp7          set	btemp+8
 12150                           
 12151                           	psect	config
 12152                           
 12153                           ;Config register CONFIG1L @ 0x300000
 12154                           ;	PLL Prescaler Selection bits
 12155                           ;	PLLDIV = 1, No prescale (4 MHz oscillator input drives PLL directly)
 12156                           ;	System Clock Postscaler Selection bits
 12157                           ;	CPUDIV = OSC1_PLL2, [Primary Oscillator Src: /1][96 MHz PLL Src: /2]
 12158                           ;	USB Clock Selection bit (used in Full-Speed USB mode only; UCFG:FSEN = 1)
 12159                           ;	USBDIV = 1, USB clock source comes directly from the primary oscillator block with no 
      +                          postscale
 12160   300000                     	org	3145728
 12161   300000  00                 	db	0
 12162                           
 12163                           ;Config register CONFIG1H @ 0x300001
 12164                           ;	Oscillator Selection bits
 12165                           ;	FOSC = HS, HS oscillator (HS)
 12166                           ;	Fail-Safe Clock Monitor Enable bit
 12167                           ;	FCMEN = OFF, Fail-Safe Clock Monitor disabled
 12168                           ;	Internal/External Oscillator Switchover bit
 12169                           ;	IESO = OFF, Oscillator Switchover mode disabled
 12170   300001                     	org	3145729
 12171   300001  0C                 	db	12
 12172                           
 12173                           ;Config register CONFIG2L @ 0x300002
 12174                           ;	Power-up Timer Enable bit
 12175                           ;	PWRT = OFF, PWRT disabled
 12176                           ;	Brown-out Reset Enable bits
 12177                           ;	BOR = OFF, Brown-out Reset disabled in hardware and software
 12178                           ;	Brown-out Reset Voltage bits
 12179                           ;	BORV = 3, Minimum setting 2.05V
 12180                           ;	USB Voltage Regulator Enable bit
 12181                           ;	VREGEN = OFF, USB voltage regulator disabled
 12182   300002                     	org	3145730
 12183   300002  19                 	db	25
 12184                           
 12185                           ;Config register CONFIG2H @ 0x300003
 12186                           ;	Watchdog Timer Enable bit
 12187                           ;	WDT = OFF, WDT disabled (control is placed on the SWDTEN bit)
 12188                           ;	Watchdog Timer Postscale Select bits
 12189                           ;	WDTPS = 32768, 1:32768
 12190   300003                     	org	3145731
 12191   300003  1E                 	db	30
 12192                           
 12193                           ; Padding undefined space
 12194   300004                     	org	3145732
 12195   300004  FF                 	db	255
 12196                           
 12197                           ;Config register CONFIG3H @ 0x300005
 12198                           ;	CCP2 MUX bit
 12199                           ;	CCP2MX = OFF, CCP2 input/output is multiplexed with RB3
 12200                           ;	PORTB A/D Enable bit
 12201                           ;	PBADEN = OFF, PORTB<4:0> pins are configured as digital I/O on Reset
 12202                           ;	Low-Power Timer 1 Oscillator Enable bit
 12203                           ;	LPT1OSC = OFF, Timer1 configured for higher power operation
 12204                           ;	MCLR Pin Enable bit
 12205                           ;	MCLRE = ON, MCLR pin enabled; RE3 input pin disabled
 12206   300005                     	org	3145733
 12207   300005  80                 	db	128
 12208                           
 12209                           ;Config register CONFIG4L @ 0x300006
 12210                           ;	Stack Full/Underflow Reset Enable bit
 12211                           ;	STVREN = OFF, Stack full/underflow will not cause Reset
 12212                           ;	Single-Supply ICSP Enable bit
 12213                           ;	LVP = OFF, Single-Supply ICSP disabled
 12214                           ;	Dedicated In-Circuit Debug/Programming Port (ICPORT) Enable bit
 12215                           ;	ICPRT = OFF, ICPORT disabled
 12216                           ;	Extended Instruction Set Enable bit
 12217                           ;	XINST = OFF, Instruction set extension and Indexed Addressing mode disabled (Legacy mo
      +                          de)
 12218                           ;	Background Debugger Enable bit
 12219                           ;	DEBUG = 0x1, unprogrammed default
 12220   300006                     	org	3145734
 12221   300006  80                 	db	128
 12222                           
 12223                           ; Padding undefined space
 12224   300007                     	org	3145735
 12225   300007  FF                 	db	255
 12226                           
 12227                           ;Config register CONFIG5L @ 0x300008
 12228                           ;	Code Protection bit
 12229                           ;	CP0 = OFF, Block 0 (000800-001FFFh) is not code-protected
 12230                           ;	Code Protection bit
 12231                           ;	CP1 = OFF, Block 1 (002000-003FFFh) is not code-protected
 12232                           ;	Code Protection bit
 12233                           ;	CP2 = OFF, Block 2 (004000-005FFFh) is not code-protected
 12234                           ;	Code Protection bit
 12235                           ;	CP3 = OFF, Block 3 (006000-007FFFh) is not code-protected
 12236   300008                     	org	3145736
 12237   300008  0F                 	db	15
 12238                           
 12239                           ;Config register CONFIG5H @ 0x300009
 12240                           ;	Boot Block Code Protection bit
 12241                           ;	CPB = OFF, Boot block (000000-0007FFh) is not code-protected
 12242                           ;	Data EEPROM Code Protection bit
 12243                           ;	CPD = OFF, Data EEPROM is not code-protected
 12244   300009                     	org	3145737
 12245   300009  C0                 	db	192
 12246                           
 12247                           ;Config register CONFIG6L @ 0x30000A
 12248                           ;	Write Protection bit
 12249                           ;	WRT0 = OFF, Block 0 (000800-001FFFh) is not write-protected
 12250                           ;	Write Protection bit
 12251                           ;	WRT1 = OFF, Block 1 (002000-003FFFh) is not write-protected
 12252                           ;	Write Protection bit
 12253                           ;	WRT2 = OFF, Block 2 (004000-005FFFh) is not write-protected
 12254                           ;	Write Protection bit
 12255                           ;	WRT3 = OFF, Block 3 (006000-007FFFh) is not write-protected
 12256   30000A                     	org	3145738
 12257   30000A  0F                 	db	15
 12258                           
 12259                           ;Config register CONFIG6H @ 0x30000B
 12260                           ;	Configuration Register Write Protection bit
 12261                           ;	WRTC = OFF, Configuration registers (300000-3000FFh) are not write-protected
 12262                           ;	Boot Block Write Protection bit
 12263                           ;	WRTB = OFF, Boot block (000000-0007FFh) is not write-protected
 12264                           ;	Data EEPROM Write Protection bit
 12265                           ;	WRTD = OFF, Data EEPROM is not write-protected
 12266   30000B                     	org	3145739
 12267   30000B  E0                 	db	224
 12268                           
 12269                           ;Config register CONFIG7L @ 0x30000C
 12270                           ;	Table Read Protection bit
 12271                           ;	EBTR0 = OFF, Block 0 (000800-001FFFh) is not protected from table reads executed in ot
      +                          her blocks
 12272                           ;	Table Read Protection bit
 12273                           ;	EBTR1 = OFF, Block 1 (002000-003FFFh) is not protected from table reads executed in ot
      +                          her blocks
 12274                           ;	Table Read Protection bit
 12275                           ;	EBTR2 = OFF, Block 2 (004000-005FFFh) is not protected from table reads executed in ot
      +                          her blocks
 12276                           ;	Table Read Protection bit
 12277                           ;	EBTR3 = OFF, Block 3 (006000-007FFFh) is not protected from table reads executed in ot
      +                          her blocks
 12278   30000C                     	org	3145740
 12279   30000C  0F                 	db	15
 12280                           
 12281                           ;Config register CONFIG7H @ 0x30000D
 12282                           ;	Boot Block Table Read Protection bit
 12283                           ;	EBTRB = OFF, Boot block (000000-0007FFh) is not protected from table reads executed in
      +                           other blocks
 12284   30000D                     	org	3145741
 12285   30000D  40                 	db	64
 12286                           tosu	equ	0xFFF
 12287                           tosh	equ	0xFFE
 12288                           tosl	equ	0xFFD
 12289                           stkptr	equ	0xFFC
 12290                           pclatu	equ	0xFFB
 12291                           pclath	equ	0xFFA
 12292                           pcl	equ	0xFF9
 12293                           tblptru	equ	0xFF8
 12294                           tblptrh	equ	0xFF7
 12295                           tblptrl	equ	0xFF6
 12296                           tablat	equ	0xFF5
 12297                           prodh	equ	0xFF4
 12298                           prodl	equ	0xFF3
 12299                           indf0	equ	0xFEF
 12300                           postinc0	equ	0xFEE
 12301                           postdec0	equ	0xFED
 12302                           preinc0	equ	0xFEC
 12303                           plusw0	equ	0xFEB
 12304                           fsr0h	equ	0xFEA
 12305                           fsr0l	equ	0xFE9
 12306                           wreg	equ	0xFE8
 12307                           indf1	equ	0xFE7
 12308                           postinc1	equ	0xFE6
 12309                           postdec1	equ	0xFE5
 12310                           preinc1	equ	0xFE4
 12311                           plusw1	equ	0xFE3
 12312                           fsr1h	equ	0xFE2
 12313                           fsr1l	equ	0xFE1
 12314                           bsr	equ	0xFE0
 12315                           indf2	equ	0xFDF
 12316                           postinc2	equ	0xFDE
 12317                           postdec2	equ	0xFDD
 12318                           preinc2	equ	0xFDC
 12319                           plusw2	equ	0xFDB
 12320                           fsr2h	equ	0xFDA
 12321                           fsr2l	equ	0xFD9
 12322                           status	equ	0xFD8

Data Sizes:
    Strings     177
    Constant    215
    Data        0
    BSS         108
    Persistent  0
    Stack       0

Auto Spaces:
    Space          Size  Autos    Used
    COMRAM           94     52      85
    BANK0           160    159     160
    BANK1           256     94     168
    BANK2           256      0       0
    BANK3           256      0       0
    BANK4           256      0       0
    BANK5           256      0       0
    BANK6           256      0       0
    BANK7           256      0       0

Pointer List with Targets:

    f$.$buffer	PTR unsigned char  size(2) Largest target is 30
		 -> main@angleStr(BANK1[20]), main@btMsg(BANK1[20]), main@buffer(BANK1[30]), 

    f$.$source	PTR const unsigned char  size(2) Largest target is 0

    fputc@fp	PTR struct _IO_FILE size(1) Largest target is 11
		 -> sprintf@f(BANK0[11]), 

    fputc@fp$.$buffer	PTR unsigned char  size(2) Largest target is 30
		 -> main@angleStr(BANK1[20]), main@btMsg(BANK1[20]), main@buffer(BANK1[30]), 

    fputc@fp$.$source	PTR const unsigned char  size(2) Largest target is 0

    OLED_DrawCentered2x_AtPage@str	PTR const unsigned char  size(2) Largest target is 20
		 -> main@angleStr(BANK1[20]), STR_2(CODE[10]), STR_3(CODE[5]), STR_5(CODE[10]), 
		 -> STR_6(CODE[8]), STR_7(CODE[6]), 

    OLED_DrawCentered2x_AtPage@tmp	PTR const unsigned char  size(2) Largest target is 20
		 -> main@angleStr(BANK1[20]), STR_2(CODE[10]), STR_3(CODE[5]), STR_5(CODE[10]), 
		 -> STR_6(CODE[8]), STR_7(CODE[6]), 

    OLED_Print@str	PTR const unsigned char  size(2) Largest target is 3
		 -> STR_14(CODE[3]), STR_16(CODE[2]), STR_17(CODE[2]), STR_18(CODE[2]), 
		 -> STR_19(CODE[2]), STR_20(CODE[2]), STR_21(CODE[2]), STR_9(CODE[2]), 

    S911$buffer	PTR unsigned char  size(2) Largest target is 30
		 -> main@angleStr(BANK1[20]), main@btMsg(BANK1[20]), main@buffer(BANK1[30]), 

    S911$source	PTR const unsigned char  size(2) Largest target is 0

    sp__strcpy	PTR unsigned char  size(2) Largest target is 20
		 -> lastAngle(BANK1[20]), lastBT(BANK1[20]), 

    sprintf@ap	PTR void [1] size(1) Largest target is 2
		 -> ?_sprintf(BANK0[2]), 

    sprintf@fmt	PTR const unsigned char  size(2) Largest target is 10
		 -> STR_11(CODE[8]), STR_12(CODE[10]), STR_13(CODE[1]), STR_15(CODE[5]), 

    sprintf@s	PTR unsigned char  size(2) Largest target is 30
		 -> main@angleStr(BANK1[20]), main@btMsg(BANK1[20]), main@buffer(BANK1[30]), 

    strcmp@l	PTR const unsigned char  size(2) Largest target is 20
		 -> main@angleStr(BANK1[20]), main@btMsg(BANK1[20]), 

    strcmp@r	PTR const unsigned char  size(2) Largest target is 20
		 -> lastAngle(BANK1[20]), lastBT(BANK1[20]), 

    strcpy@d	PTR unsigned char  size(2) Largest target is 20
		 -> lastAngle(BANK1[20]), lastBT(BANK1[20]), 

    strcpy@dest	PTR unsigned char  size(2) Largest target is 20
		 -> lastAngle(BANK1[20]), lastBT(BANK1[20]), 

    strcpy@src	PTR const unsigned char  size(2) Largest target is 20
		 -> main@angleStr(BANK1[20]), main@btMsg(BANK1[20]), 

    UART_WriteString@s	PTR const unsigned char  size(2) Largest target is 37
		 -> main@buffer(BANK1[30]), STR_1(CODE[37]), STR_10(CODE[17]), STR_4(CODE[29]), 
		 -> STR_8(CODE[17]), 

    vfpfcnvrt@ap	PTR PTR void  size(1) Largest target is 1
		 -> sprintf@ap(BANK0[1]), 

    vfpfcnvrt@cp	PTR unsigned char  size(2) Largest target is 10
		 -> STR_11(CODE[8]), STR_12(CODE[10]), STR_13(CODE[1]), STR_15(CODE[5]), 

    vfpfcnvrt@fmt	PTR PTR unsigned char  size(1) Largest target is 2
		 -> vfprintf@cfmt(BANK0[2]), 

    vfpfcnvrt@fp	PTR struct _IO_FILE size(1) Largest target is 11
		 -> sprintf@f(BANK0[11]), 

    vfprintf@ap	PTR PTR void  size(1) Largest target is 1
		 -> sprintf@ap(BANK0[1]), 

    vfprintf@cfmt	PTR unsigned char  size(2) Largest target is 10
		 -> STR_11(CODE[8]), STR_12(CODE[10]), STR_13(CODE[1]), STR_15(CODE[5]), 

    vfprintf@fmt	PTR const unsigned char  size(2) Largest target is 10
		 -> STR_11(CODE[8]), STR_12(CODE[10]), STR_13(CODE[1]), STR_15(CODE[5]), 

    vfprintf@fp	PTR struct _IO_FILE size(1) Largest target is 11
		 -> sprintf@f(BANK0[11]), 


Critical Paths under _main in COMRAM

    None.

Critical Paths under _ISR in COMRAM

    _ISR->i2_OLED_DrawCentered2x_AtPage
    i2_UART_WriteString->i2_UART_WriteChar
    i2_OLED_DrawCentered2x_AtPage->i2_OLED_DrawScaledChar
    i2_OLED_DrawScaledChar->i2___awdiv
    i2_OLED_SetCursor->i2_OLED_Command
    i2_OLED_ClearArea->i2_OLED_Command
    i2_OLED_Command->i2_I2C_Write
    i2_I2C_Write->i2_I2C_Wait
    i2_I2C_Stop->i2_I2C_Wait
    i2_I2C_Start->i2_I2C_Wait

Critical Paths under _main in BANK0

    _main->_Demux_control
    _sprintf->_vfprintf
    _vfprintf->_vfpfcnvrt
    _vfpfcnvrt->_abs
    _abs->___awmod
    _UART_WriteString->_UART_WriteChar
    _OLED_Print->_OLED_DrawChar
    _OLED_DrawChar->_OLED_SetCursor
    _OLED_Init->_OLED_Command
    _OLED_DrawCentered2x_AtPage->_OLED_DrawScaledChar
    _OLED_DrawScaledChar->___awdiv
    _OLED_SetCursor->_OLED_Command
    _OLED_ClearArea->_OLED_Command
    _OLED_Command->_I2C_Write
    _I2C_Write->_I2C_Wait
    _I2C_Stop->_I2C_Wait
    _I2C_Start->_I2C_Wait
    _Joystick_ADC->___fladd
    _Demux_control->___fltol
    ___fltol->_GY_ADC
    _GY_ADC->_asinf
    _asinf->___flsub
    ___flsub->_R
    _R->___fldiv
    ___flmul->___xxtofl
    ___fldiv->___fladd
    ___fladd->___flmul

Critical Paths under _ISR in BANK0

    None.

Critical Paths under _main in BANK1

    _main->_GY_ADC
    _Demux_control->_GY_ADC
    ___fltol->_GY_ADC

Critical Paths under _ISR in BANK1

    None.

Critical Paths under _main in BANK2

    None.

Critical Paths under _ISR in BANK2

    None.

Critical Paths under _main in BANK3

    None.

Critical Paths under _ISR in BANK3

    None.

Critical Paths under _main in BANK4

    None.

Critical Paths under _ISR in BANK4

    None.

Critical Paths under _main in BANK5

    None.

Critical Paths under _ISR in BANK5

    None.

Critical Paths under _main in BANK6

    None.

Critical Paths under _ISR in BANK6

    None.

Critical Paths under _main in BANK7

    None.

Critical Paths under _ISR in BANK7

    None.

Call Graph Tables:

 ---------------------------------------------------------------------------------
 (Depth) Function   	        Calls       Base Space   Used Autos Params    Refs
 ---------------------------------------------------------------------------------
 (0) _main                                                76    76      0   44532
                                            157 BANK0      2     2      0
                                             20 BANK1     74    74      0
                         _Config_ADC
                      _Demux_control
                  _Enable_Interrupts
                             _GY_ADC
                           _I2C_Init
                         _Init_ports
                       _Joystick_ADC
                     _OLED_ClearArea
         _OLED_DrawCentered2x_AtPage
                          _OLED_Init
                         _OLED_Print
                          _UART_Init
                   _UART_WriteString
                            ___fltol
                            _sprintf
                             _strcmp
                             _strcpy
 ---------------------------------------------------------------------------------
 (1) _strcpy                                               6     2      4      77
                                              0 BANK0      6     2      4
 ---------------------------------------------------------------------------------
 (1) _strcmp                                               6     2      4     116
                                              0 BANK0      6     2      4
 ---------------------------------------------------------------------------------
 (1) _sprintf                                             22    14      8    1888
                                             29 BANK0     20    12      8
                           _vfprintf
 ---------------------------------------------------------------------------------
 (2) _vfprintf                                             6     2      4    1679
                                             23 BANK0      6     2      4
                          _vfpfcnvrt
 ---------------------------------------------------------------------------------
 (3) _vfpfcnvrt                                           13    10      3    1551
                                             10 BANK0     13    10      3
                            ___awdiv
                            ___awmod
                                _abs
                              _fputc
 ---------------------------------------------------------------------------------
 (4) _fputc                                                8     5      3     232
                                              0 BANK0      8     5      3
                              _putch
 ---------------------------------------------------------------------------------
 (5) _putch                                                1     1      0       0
 ---------------------------------------------------------------------------------
 (4) _abs                                                  4     2      2      67
                                              6 BANK0      4     2      2
                            ___awmod (ARG)
 ---------------------------------------------------------------------------------
 (4) ___awmod                                              6     2      4     298
                                              0 BANK0      6     2      4
 ---------------------------------------------------------------------------------
 (1) _UART_WriteString                                     2     0      2      77
                                              1 BANK0      2     0      2
                     _UART_WriteChar
 ---------------------------------------------------------------------------------
 (2) _UART_WriteChar                                       1     1      0      29
                                              0 BANK0      1     1      0
 ---------------------------------------------------------------------------------
 (1) _UART_Init                                            0     0      0       0
 ---------------------------------------------------------------------------------
 (1) _OLED_Print                                           4     0      4     768
                                             13 BANK0      4     0      4
                      _OLED_DrawChar
 ---------------------------------------------------------------------------------
 (2) _OLED_DrawChar                                        8     6      2     654
                                              5 BANK0      8     6      2
                          _I2C_Start
                           _I2C_Stop
                          _I2C_Write
                     _OLED_SetCursor
 ---------------------------------------------------------------------------------
 (1) _OLED_Init                                            2     2      0      58
                                              3 BANK0      2     2      0
                       _OLED_Command
 ---------------------------------------------------------------------------------
 (1) _OLED_DrawCentered2x_AtPage                          12     9      3    1980
                                             28 BANK0     12     9      3
                _OLED_DrawScaledChar
                            ___awdiv
 ---------------------------------------------------------------------------------
 (2) _OLED_DrawScaledChar                                 20    17      3    1374
                                              8 BANK0     20    17      3
                          _I2C_Start
                           _I2C_Stop
                          _I2C_Write
                     _OLED_SetCursor
                            ___awdiv
 ---------------------------------------------------------------------------------
 (4) ___awdiv                                              8     4      4     306
                                              0 BANK0      8     4      4
 ---------------------------------------------------------------------------------
 (3) _OLED_SetCursor                                       2     1      1     134
                                              3 BANK0      2     1      1
                       _OLED_Command
 ---------------------------------------------------------------------------------
 (1) _OLED_ClearArea                                       6     3      3     308
                                              3 BANK0      6     3      3
                          _I2C_Start
                           _I2C_Stop
                          _I2C_Write
                       _OLED_Command
 ---------------------------------------------------------------------------------
 (4) _OLED_Command                                         1     1      0      58
                                              2 BANK0      1     1      0
                          _I2C_Start
                           _I2C_Stop
                          _I2C_Write
 ---------------------------------------------------------------------------------
 (5) _I2C_Write                                            1     1      0      29
                                              1 BANK0      1     1      0
                           _I2C_Wait
 ---------------------------------------------------------------------------------
 (5) _I2C_Stop                                             0     0      0       0
                           _I2C_Wait
 ---------------------------------------------------------------------------------
 (5) _I2C_Start                                            0     0      0       0
                           _I2C_Wait
 ---------------------------------------------------------------------------------
 (6) _I2C_Wait                                             1     1      0       0
                                              0 BANK0      1     1      0
 ---------------------------------------------------------------------------------
 (1) _Joystick_ADC                                         8     4      4    3861
                                             55 BANK0      8     4      4
                            ___fladd
                            ___flmul
                           ___xxtofl
 ---------------------------------------------------------------------------------
 (1) _Init_ports                                           0     0      0       0
 ---------------------------------------------------------------------------------
 (1) _I2C_Init                                             0     0      0       0
 ---------------------------------------------------------------------------------
 (1) _Enable_Interrupts                                    0     0      0       0
 ---------------------------------------------------------------------------------
 (1) _Demux_control                                        2     2      0   17663
                                            155 BANK0      2     2      0
                             _GY_ADC
                            ___fltol
 ---------------------------------------------------------------------------------
 (1) ___fltol                                             10     6      4     232
                                            145 BANK0     10     6      4
                             _GY_ADC (ARG)
                       _Joystick_ADC (ARG)
 ---------------------------------------------------------------------------------
 (1) _GY_ADC                                              24    20      4   17100
                                            141 BANK0      4     0      4
                                              0 BANK1     20    20      0
                            ___fladd
                            ___fldiv
                             ___flge
                            ___flmul
                           ___xxtofl
                              _asinf
 ---------------------------------------------------------------------------------
 (2) _asinf                                               33    29      4   11788
                                            108 BANK0     33    29      4
                                  _R
                            ___fladd
                            ___flmul
                            ___flneg
                            ___flsub
                              _fabsf
                              _sqrtf
 ---------------------------------------------------------------------------------
 (3) _sqrtf                                               41    37      4     730
                                              0 BANK0     37    33      4
 ---------------------------------------------------------------------------------
 (3) _fabsf                                                8     4      4      48
                                              0 BANK0      8     4      4
 ---------------------------------------------------------------------------------
 (3) ___flsub                                              8     0      8    2053
                                            100 BANK0      8     0      8
                                  _R (ARG)
                            ___fladd
                            ___flmul (ARG)
                              _fabsf (ARG)
 ---------------------------------------------------------------------------------
 (3) ___flneg                                              4     0      4      46
                                              0 BANK0      4     0      4
 ---------------------------------------------------------------------------------
 (3) _R                                                   20    16      4    4807
                                             80 BANK0     20    16      4
                            ___fladd
                            ___fldiv
                            ___flmul
 ---------------------------------------------------------------------------------
 (2) ___flmul                                             25    17      8    1494
                                             14 BANK0     25    17      8
                           ___xxtofl (ARG)
                              _fabsf (ARG)
 ---------------------------------------------------------------------------------
 (4) ___fldiv                                             25    17      8    1127
                                             55 BANK0     25    17      8
                            ___fladd (ARG)
                            ___flmul (ARG)
 ---------------------------------------------------------------------------------
 (2) ___fladd                                             16     8      8    2004
                                             39 BANK0     16     8      8
                            ___flmul (ARG)
                           ___xxtofl (ARG)
 ---------------------------------------------------------------------------------
 (2) ___xxtofl                                            14    10      4     340
                                              0 BANK0     14    10      4
 ---------------------------------------------------------------------------------
 (2) ___flge                                              12     4      8     186
                                              0 BANK0     12     4      8
 ---------------------------------------------------------------------------------
 (1) _Config_ADC                                           2     2      0       0
                                              0 BANK0      2     2      0
 ---------------------------------------------------------------------------------
 Estimated maximum stack depth 6
 ---------------------------------------------------------------------------------
 (Depth) Function   	        Calls       Base Space   Used Autos Params    Refs
 ---------------------------------------------------------------------------------
 (7) _ISR                                                 12    12      0    2352
                                             40 COMRAM    12    12      0
                   i2_OLED_ClearArea
       i2_OLED_DrawCentered2x_AtPage
                 i2_UART_WriteString
 ---------------------------------------------------------------------------------
 (8) i2_UART_WriteString                                   2     0      2      76
                                              1 COMRAM     2     0      2
                   i2_UART_WriteChar
 ---------------------------------------------------------------------------------
 (9) i2_UART_WriteChar                                     1     1      0      29
                                              0 COMRAM     1     1      0
 ---------------------------------------------------------------------------------
 (8) i2_OLED_DrawCentered2x_AtPage                        12     9      3    1974
                                             28 COMRAM    12     9      3
              i2_OLED_DrawScaledChar
                          i2___awdiv
 ---------------------------------------------------------------------------------
 (9) i2_OLED_DrawScaledChar                               20    17      3    1370
                                              8 COMRAM    20    17      3
                        i2_I2C_Start
                         i2_I2C_Stop
                        i2_I2C_Write
                   i2_OLED_SetCursor
                          i2___awdiv
 ---------------------------------------------------------------------------------
 (9) i2___awdiv                                            8     4      4     304
                                              0 COMRAM     8     4      4
 ---------------------------------------------------------------------------------
 (10) i2_OLED_SetCursor                                    2     1      1     132
                                              3 COMRAM     2     1      1
                     i2_OLED_Command
 ---------------------------------------------------------------------------------
 (8) i2_OLED_ClearArea                                     6     3      3     302
                                              3 COMRAM     6     3      3
                        i2_I2C_Start
                         i2_I2C_Stop
                        i2_I2C_Write
                     i2_OLED_Command
 ---------------------------------------------------------------------------------
 (11) i2_OLED_Command                                      1     1      0      58
                                              2 COMRAM     1     1      0
                        i2_I2C_Start
                         i2_I2C_Stop
                        i2_I2C_Write
 ---------------------------------------------------------------------------------
 (12) i2_I2C_Write                                         1     1      0      29
                                              1 COMRAM     1     1      0
                         i2_I2C_Wait
 ---------------------------------------------------------------------------------
 (12) i2_I2C_Stop                                          0     0      0       0
                         i2_I2C_Wait
 ---------------------------------------------------------------------------------
 (12) i2_I2C_Start                                         0     0      0       0
                         i2_I2C_Wait
 ---------------------------------------------------------------------------------
 (13) i2_I2C_Wait                                          1     1      0       0
                                              0 COMRAM     1     1      0
 ---------------------------------------------------------------------------------
 Estimated maximum stack depth 13
 ---------------------------------------------------------------------------------

 Call Graph Graphs:

 _main (ROOT)
   _Config_ADC
   _Demux_control
     _GY_ADC
       ___fladd
         ___flmul (ARG)
           ___xxtofl (ARG)
           _fabsf (ARG)
         ___xxtofl (ARG)
       ___fldiv
         ___fladd (ARG)
         ___flmul (ARG)
       ___flge
       ___flmul
       ___xxtofl
       _asinf
         _R
           ___fladd
           ___fldiv
           ___flmul
         ___fladd
         ___flmul
         ___flneg
         ___flsub
           _R (ARG)
           ___fladd (ARG)
           ___flmul (ARG)
           _fabsf (ARG)
         _fabsf
         _sqrtf
     ___fltol
       _GY_ADC (ARG)
       _Joystick_ADC (ARG)
         ___fladd
         ___flmul
         ___xxtofl
   _Enable_Interrupts
   _GY_ADC
   _I2C_Init
   _Init_ports
   _Joystick_ADC
   _OLED_ClearArea
     _I2C_Start
       _I2C_Wait
     _I2C_Stop
       _I2C_Wait
     _I2C_Write
       _I2C_Wait
     _OLED_Command
       _I2C_Start
       _I2C_Stop
       _I2C_Write
   _OLED_DrawCentered2x_AtPage
     _OLED_DrawScaledChar
       _I2C_Start
       _I2C_Stop
       _I2C_Write
       _OLED_SetCursor
         _OLED_Command
       ___awdiv
     ___awdiv
   _OLED_Init
     _OLED_Command
   _OLED_Print
     _OLED_DrawChar
       _I2C_Start
       _I2C_Stop
       _I2C_Write
       _OLED_SetCursor
   _UART_Init
   _UART_WriteString
     _UART_WriteChar
   ___fltol
   _sprintf
     _vfprintf
       _vfpfcnvrt
         ___awdiv
         ___awmod
         _abs
           ___awmod (ARG)
         _fputc
           _putch
   _strcmp
   _strcpy

 _ISR (ROOT)
   i2_OLED_ClearArea
     i2_I2C_Start
       i2_I2C_Wait
     i2_I2C_Stop
       i2_I2C_Wait
     i2_I2C_Write
       i2_I2C_Wait
     i2_OLED_Command
       i2_I2C_Start
       i2_I2C_Stop
       i2_I2C_Write
   i2_OLED_DrawCentered2x_AtPage
     i2_OLED_DrawScaledChar
       i2_I2C_Start
       i2_I2C_Stop
       i2_I2C_Write
       i2_OLED_SetCursor
         i2_OLED_Command
       i2___awdiv
     i2___awdiv
   i2_UART_WriteString
     i2_UART_WriteChar

Address spaces:
Name               Size   Autos  Total    Usage
BIGRAM            2047      0       0      0.0%
BITBANK7           256      0       0      0.0%
BANK7              256      0       0      0.0%
BITBANK6           256      0       0      0.0%
BANK6              256      0       0      0.0%
BITBANK5           256      0       0      0.0%
BANK5              256      0       0      0.0%
BITBANK4           256      0       0      0.0%
BANK4              256      0       0      0.0%
BITBANK3           256      0       0      0.0%
BANK3              256      0       0      0.0%
BITBANK2           256      0       0      0.0%
BANK2              256      0       0      0.0%
BITBANK1           256      0       0      0.0%
BANK1              256     94     168     65.6%
BITBANK0           160      0       0      0.0%
BANK0              160    159     160    100.0%
BITCOMRAM           94      0       0      0.0%
COMRAM              94     52      85     90.4%
BITBIGSFRh          82      0       0      0.0%
BITBIGSFRlll        35      0       0      0.0%
BITBIGSFRlh         26      0       0      0.0%
BITBIGSFRllh        14      0       0      0.0%
STACK                0      0       0      0.0%
DATA                 0      0     413      0.0%


Microchip Technology PIC18 Macro Assembler V3.00 build 20241204225717 
Symbol Table                                                                                   Wed Jan 14 11:52:56 2026

                                     _R 264A                            ___fldiv@aexp 00AF  
                          ___fldiv@bexp 00AE                            ___fldiv@sign 00A7  
                                    ?_R 00B0                             _SSPSTATbits 0FC7  
                                    R@p 00B4                                      R@q 00B8  
                                    R@z 00B0                            ___awdiv@sign 0065  
                                   ??_R 00B4                                     l204 3188  
                                   l213 2146                                     l222 22A0  
                                   l150 373E                                     l321 1E9A  
                                   l305 1CE0                                     l209 35C4  
                                   l153 36AE                                     l234 2226  
                                   l162 32CA                                     l147 359C  
                                   l171 35EC                                     l251 2866  
                                   l180 36C8                                     l228 2220  
                                   l260 28F0                                     l156 36C0  
                                   l165 374C                                     l174 36DE  
                                   l271 3548                                     l319 1E94  
                                   l183 36D6                                     l247 2BE0  
                                   l280 1802                                     l192 3634  
                                   l177 36EC                                     l274 306E  
                                   l186 3680                                     l611 2AB8  
                                   l195 305A                                     l620 3478  
                                   l268 343E                                     l285 1A3E  
                                   l277 3108                                     l189 368E  
                                   l616 2AFE                                     l288 3758  
                                   l643 29F8                                     l900 03E4  
                                   l901 03D2                                     l590 2FAA  
                                   l577 2D7C                                     l930 165C  
                                   l907 048C                                     l940 16C0  
                                   l916 3370                                     l941 1718  
                                   l933 1620                                     l942 1706  
                                   l928 17F8                                     l960 0590  
                                   l874 01FC                                     l970 07EA  
                                   l891 0316                                     l883 04C8  
                                   l875 01EA                                     l939 16A2  
                                   l876 01B0                                     l964 08F0  
                                   l967 0786                                     l888 03A4  
                                   l968 07A4                                     l977 08B2  
                                   l969 07FC                                     _GIE 7F97  
                                   _RD0 7C18                                     _RD1 7C19  
                                   _RD2 7C1A                                     _RD4 7C1C  
                                   _RD5 7C1D                                     _RD6 7C1E  
                                   _RD7 7C1F                                     _ISR 0008  
                                   _pS0 7F46                                     _pS1 7F42  
                                   _pS2 7F3E                                     _qS1 7F3A  
                                   _abs 34B2                        ??_OLED_SetCursor 0064  
                          ___awmod@sign 0065                             ?i2_I2C_Wait 0001  
                           ?i2_I2C_Stop 0001                                     prod 0FF3  
                                   wreg 0FE8                            ___flmul@aexp 007F  
                          ___flmul@bexp 0080                            ___flmul@sign 007A  
                          ___flmul@temp 0085                            ___flmul@prod 0081  
                                  ?_ISR 0001                            ___fltol@exp1 00FA  
                                  l1001 24EC                                    l1004 2648  
                                  l1110 34E6                                    l1015 25E0  
                                  l1103 33B6                                    l1008 2584  
                                  l1041 1466                                    l1122 2EFA  
                                  l1051 351C                                    l1107 34CE  
                                  ?_abs 0066                                    l1036 27C2  
                                  l1133 375A                                    l1150 0F2A  
                                  l1142 10C4                                    l3001 03CA  
                                  l1153 0FEE                                    l1146 0ECC  
                                  l1058 33FA                                    l3011 0448  
                                  l1155 105C                                    l1163 326A  
                                  l3021 049A                                    l3005 03F4  
                                  l3013 044A                                    l3101 15E6  
                                  l1086 1C7C                                    l3031 04B8  
                                  l3023 04A0                                    l3015 045A  
                                  l3007 0400                                    l3111 162A  
                                  l3103 15EC                                    l3025 04A2  
                                  l3017 046A                                    l3009 040E  
                                  l3121 1682                                    l3113 1648  
                                  l3105 15FC                                    l3041 1486  
                                  l3201 057A                                    l1169 34B0  
                                  l3027 04A8                                    l3019 048A  
                                  l3131 16D0                                    l3123 1688  
                                  l3115 164A                                    l3107 1610  
                                  l3043 1496                                    l3051 14BE  
                                  l3035 1468                                    l3211 05C4  
                                  l3203 0580                                    l3029 04B6  
                                  l3141 1742                                    l3133 16FE  
                                  l3125 1692                                    l3117 165A  
                                  l3109 161E                                    l3061 14EA  
                                  l3053 14CE                                    l3045 14A6  
                                  l3037 1476                                    l3221 0614  
                                  l3213 05D0                                    l3205 05A0  
                                  l4101 3030                                    l3151 17BA  
                                  l3143 176C                                    l3127 16A0  
                                  l3119 166C                                    l3063 14FA  
                                  l3071 1522                                    l3055 14D4  
                                  l3047 14B6                                    l3039 1484  
                                  l3231 0656                                    l3223 0620  
                                  l3215 05DA                                    l3207 05B0  
                                  l3311 3618                                    l4111 304E  
                                  l4103 3036                                    l3161 17EC  
                                  l3153 17D2                                    l3137 1728  
                                  l3145 1770                                    l3129 16B2  
                                  l3081 1564                                    l3073 1532  
                                  l3065 150A                                    l3057 14DA  
                                  l3049 14B8                                    l3241 06B8  
                                  l3233 0662                                    l3225 062C  
                                  l3217 05F0                                    l3401 3458  
                                  l3313 332A                                    l4201 1D40  
                                  l4121 314E                                    l3321 2CBE  
                                  l4113 3054                                    l4105 303C  
                                  l4041 3736                                    l3163 17EE  
                                  l3155 17D4                                    l3147 178A  
                                  l3139 1734                                    l3075 1548  
                                  l3067 151A                                    l3059 14E8  
                                  l3251 074E                                    l3243 06C4  
                                  l3235 0672                                    l3227 063A  
                                  l3219 05FC                                    l3171 04CA  
                                  l3403 3468                                    l3315 333C  
                                  l4211 1DA8                                    l4203 1D4A  
                                  l4035 3574                                    l4123 3154  
                                  l4131 3174                                    l4115 310E  
                                  l3331 2CEE                                    l3323 2CCC  
                                  l4107 3042                                    l4043 3738  
                                  l4051 3270                                    l3157 17D8  
                                  l3149 17A0                                    l3093 159C  
                                  l3077 1558                                    l3085 1578  
                                  l3069 151C                                    l3261 07B4  
                                  l3253 076C                                    l3245 06E0  
                                  l3237 068C                                    l3229 0646  
                                  l3181 0508                                    l3173 04D8  
                                  l3413 34E8                                    l3421 0CE6  
                                  l4221 1E10                                    l4213 1DC4  
                                  l4205 1D66                                    l4061 374A  
                                  l4125 3158                                    l4117 3116  
                                  l3341 2D1C                                    l3333 2CF2  
                                  l3325 2CD4                                    l4141 2B50  
                                  l4133 2B00                                    l4109 3048  
                                  l4045 373A                                    l4037 3730  
                                  l4053 3294                                    l3501 34B2  
                                  l3159 17E6                                    l3095 15B6  
                                  l3087 1588                                    l3079 1560  
                                  l3271 0826                                    l3263 07E2  
                                  l3255 0776                                    l3247 070A  
                                  l3239 069C                                    l3191 053A  
                                  l3183 0518                                    l3175 04E6  
                                  l3407 264A                                    l3415 3508  
                                  l3431 0D78                                    l3423 0CF6  
                                  l3511 10D6                                    l4231 1E8A  
                                  l4223 1E2C                                    l4215 1DCE  
                                  l4207 1D82                                    l4127 316C  
                                  l4119 3146                                    l3351 2D50  
                                  l3343 2D2A                                    l3335 2CFA  
                                  l3327 2CD8                                    l3319 2CBA  
                                  l4151 2BCA                                    l4143 2B56  
                                  l4135 2B04                                    l4071 2FD6  
                                  l4063 2FAC                                    l4047 373C  
                                  l4039 3734                                    l4055 329A  
                                  l3503 34C2                                    l3601 257A  
                                  l3097 15C6                                    l3089 1588  
                                  l3281 089C                                    l3273 0850  
                                  l3257 0784                                    l3249 0740  
                                  l3193 0548                                    l3185 051E  
                                  l3177 04E8                                    l3409 278E  
                                  l3417 350C                                    l3425 0D2C  
                                  l3513 10EC                                    l4225 1E48  
                                  l4217 1DEA                                    l4209 1D8C  
                                  l4057 3740                                    l4129 3170  
                                  l3353 2D56                                    l3345 2D30  
                                  l3337 2D0C                                    l3329 2CE6  
                                  l4153 2BCE                                    l4145 2B5E  
                                  l4137 2B10                                    l4081 2FF4  
                                  l4073 2FDC                                    l4065 2FC4  
                                  l4161 341E                                    l4049 326C  
                                  l4241 33EA                                    l4233 33B8  
                                  l4401 09E0                                    l3611 25F0  
                                  l3603 25B6                                    l3099 15D6  
                                  l3291 08D6                                    l3283 08AC  
                                  l3267 080C                                    l3275 0854  
                                  l3259 0796                                    l3195 054A  
                                  l3187 052E                                    l3179 04F8  
                                  l3443 0DEC                                    l3451 0E16  
                                  l3427 0D5A                                    l3435 0D8C  
                                  l3531 11D2                                    l3523 1194  
                                  l3515 1104                                    l4227 1E52  
                                  l4219 1E06                                    l4059 3744  
                                  l4171 3064                                    l3507 35A2  
                                  l3347 2D46                                    l3339 2D14  
                                  l3355 2D5C                                    l4147 2B80  
                                  l4139 2B14                                    l4091 3012  
                                  l4083 2FFA                                    l4075 2FE2  
                                  l4067 2FCA                                    l4163 3422  
                                  l4155 33FC                                    l3371 2F1A  
                                  l3363 2EFC                                    l4235 33C6  
                                  l4251 322C                                    l4411 0A70  
                                  l4403 09EE                                    l4165 351E  
                                  l3621 2638                                    l3613 25F4  
                                  l3605 25C2                                    l2901 012C  
                                  l3285 08B6                                    l3293 08DC  
                                  l3277 086E                                    l3269 0818  
                                  l3197 055A                                    l3189 0534  
                                  l3461 0EA4                                    l3453 0E6C  
                                  l3445 0DFA                                    l3437 0DAA  
                                  l3429 0D68                                    l3533 11E8  
                                  l3541 12C6                                    l3525 11AC  
                                  l3517 111A                                    l3509 10C6  
                                  l4229 1E6E                                    l4181 374E  
                                  l4173 306C                                    l2821 35DE  
                                  l3357 2D6C                                    l3349 2D4E  
                                  l4149 2B86                                    l4093 3018  
                                  l4085 3000                                    l4077 2FE8  
                                  l4069 2FD0                                    l4157 3400  
                                  l3381 2F52                                    l3373 2F28  
                                  l3365 2F00                                    l4237 33CE  
                                  l4253 3244                                    l4245 31FC  
                                  l4421 0AE6                                    l4413 0A7E  
                                  l4405 0A02                                    l4167 3530  
                                  l3615 2618                                    l3607 25D0  
                                  l2911 0140                                    l2903 0130  
                                  l3295 08E0                                    l3287 08C6  
                                  l3279 0882                                    l3199 056A  
                                  l3471 0F78                                    l3463 0F0C  
                                  l3455 0E80                                    l3439 0DD8  
                                  l3551 1430                                    l3543 1336  
                                  l3535 11FE                                    l3519 1136  
                                  l4191 1CDA                                    l4183 1C7E  
                                  l4175 307C                                    l2831 36DC  
                                  l3359 2D74                                    l4095 301E  
                                  l4087 3006                                    l4079 2FEE  
                                  l4159 3418                                    l3383 2F60  
                                  l3391 2F8A                                    l3375 2F30  
                                  l3367 2F0E                                    l3631 1A7C  
                                  l4239 33D6                                    l4247 3200  
                                  l4431 0B58                                    l4423 0AFA  
                                  l4415 0A8C                                    l4407 0A06  
                                  l3561 2A3A                                    l3617 2628  
                                  l3609 25EE                                    l2921 017C  
                                  l2913 0144                                    l2905 0134  
                                  l2841 0012                                    l3289 08D4  
                                  l3481 1034                                    l3473 0FB6  
                                  l3465 0F1A                                    l3457 0E8A  
                                  l3553 1442                                    l3545 135A  
                                  l3537 1212                                    l3529 11C0  
                                  l4193 1CE2                                    l4185 1C9E  
                                  l4177 30F8                                    l4169 305C  
                                  l2817 35C6                                    l2833 36C2  
                                  l3801 2244                                    l4097 3024  
                                  l4089 300C                                    l3393 2F9A  
                                  l3385 2F76                                    l3377 2F42  
                                  l3369 2F16                                    l3633 1A80  
                                  l3625 1A40                                    l4249 320A  
                                  l4257 347A                                    l4441 0BDA  
                                  l4433 0B82                                    l4425 0B0E  
                                  l4417 0AA6                                    l4409 0A4A  
                                  l3571 2AA6                                    l3563 2A68  
                                  l3619 2636                                    l2931 01CE  
                                  l2923 0198                                    l2915 0148  
                                  l2907 0138                                    l2851 0050  
                                  l2843 0020                                    l3475 0FFE  
                                  l3467 0F44                                    l3459 0E96  
                                  l3547 137E                                    l4195 1CFE  
                                  l4187 1CA0                                    l2819 35C6  
                                  l2835 36C6                                    l3803 224A  
                                  l3811 2268                                    l4099 302A  
                                  l3731 36AE                                    l3395 2FA2  
                                  l3387 2F7E                                    l3379 2F4A  
                                  l3491 2E62                                    l3651 1B32  
                                  l3635 1AA2                                    l3643 1AD4  
                                  l3627 1A64                                    l4259 3482  
                                  l4451 0C5E                                    l4443 0BF4  
                                  l4435 0B96                                    l4427 0B1C  
                                  l4419 0ABC                                    l4371 08FA  
                                  l3573 2AF6                                    l3565 2A78  
                                  l3557 29FA                                    l3581 24A8  
                                  l2941 021A                                    l2933 01DC  
                                  l2925 01A8                                    l2917 014C  
                                  l2909 013C                                    l2861 007E  
                                  l2853 0060                                    l2845 002E  
                                  l3477 1008                                    l3469 0F64  
                                  l3549 13D6                                    l3901 294A  
                                  l4197 1D08                                    l4189 1CBE  
                                  l2829 36D8                                    l2837 3678  
                                  l3813 227A                                    l3805 2250  
                                  l3741 20D4                                    l3821 27C8  
                                  l3733 36BC                                    l3389 2F84  
                                  l3493 2E6C                                    l3661 1BCA  
                                  l3653 1B4C                                    l3645 1AE2  
                                  l3637 1AAE                                    l3629 1A70  
                                  l4453 0C78                                    l4445 0C10  
                                  l4437 0BAA                                    l4429 0B32  
                                  l4381 091E                                    l4373 08FE  
                                  l3575 2AFC                                    l3567 2A86  
                                  l3559 2A2A                                    l3591 2526  
                                  l3583 24B6                                    l2951 025A  
                                  l2935 01DE                                    l2927 01BE  
                                  l2919 0150                                    l2871 00A8  
                                  l2863 0090                                    l2855 0062  
                                  l2847 0030                                    l3399 3440  
                                  l3479 101E                                    l3903 295A  
                                  l4199 1D24                                    l2839 367C  
                                  l3807 2260                                    l3815 227C  
                                  l3751 2118                                    l3743 20E4  
                                  l3735 20A8                                    l3831 2814  
                                  l3823 27DA                                    l3495 2E88  
                                  l3487 2E40                                    l3671 1C2E  
                                  l3663 1BDA                                    l3655 1B64  
                                  l3647 1AFE                                    l3639 1AC2  
                                  l4455 0C94                                    l4447 0C2A  
                                  l4439 0BBC                                    l4391 0982  
                                  l4383 0936                                    l4375 0902  
                                  l4367 08F2                                    l3569 2A98  
                                  l3593 252E                                    l3585 24FC  
                                  l2961 0284                                    l2953 0266  
                                  l2945 022E                                    l2937 01E8  
                                  l2929 01CA                                    l2873 00B8  
                                  l2881 00E0                                    l2865 0092  
                                  l2849 0040                                    l2857 0068  
                                  l3913 2984                                    l3905 295E  
                                  l3817 228E                                    l3809 2264  
                                  l3753 212A                                    l3745 20F4  
                                  l3737 20BA                                    l3841 2852  
                                  l3833 281E                                    l3825 27EA  
                                  l3497 2EBA                                    l3489 2E52  
                                  l3665 1BEA                                    l3673 1C32  
                                  l3657 1B9A                                    l3649 1B1A  
                                  l4457 0CAE                                    l4449 0C40  
                                  l4393 099A                                    l4385 0948  
                                  l4377 0906                                    l4369 08F6  
                                  l3595 253A                                    l3587 2512  
                                  l3579 2496                                    l2971 02F6  
                                  l2955 026A                                    l2947 023E  
                                  l2939 020A                                    l2963 028A  
                                  l2891 0118                                    l2883 00F0  
                                  l2875 00C8                                    l2867 0098  
                                  l2859 0078                                    l3931 29E8  
                                  l3923 29AC                                    l3915 298E  
                                  l3907 296C                                    l3819 2290  
                                  l3763 2148                                    l3755 2132  
                                  l3747 20FE                                    l3739 20CA  
                                  l3851 288E                                    l3843 2864  
                                  l3835 2830                                    l3827 27F4  
                                  l3667 1BFA                                    l3659 1BB6  
                                  l3675 1C48                                    l4459 0CC4  
                                  l4395 09AE                                    l4387 0962  
                                  l4379 090A                                    l3597 256C  
                                  l2981 0350                                    l2965 02B0  
                                  l2973 0306                                    l2957 0278  
                                  l2949 024C                                    l2893 011C  
                                  l2885 0102                                    l2877 00D8  
                                  l2869 00A6                                    l3925 29B8  
                                  l3917 2998                                    l3781 21BC  
                                  l3765 216E                                    l3757 2144  
                                  l3749 2110                                    l3861 28B2  
                                  l3853 289A                                    l3837 2838  
                                  l3829 2804                                    l3669 1C10  
                                  l3941 33AC                                    l4397 09C4  
                                  l4389 0974                                    l3599 256E  
                                  l2991 0380                                    l2983 035A  
                                  l2975 032C                                    l2967 02E4  
                                  l2959 027A                                    l2895 0120  
                                  l2887 0110                                    l2879 00DA  
                                  l3871 1810                                    l3927 29C8  
                                  l3783 21C2                                    l3791 21FC  
                                  l3775 217E                                    l3767 217A  
                                  l3863 28B6                                    l3855 289E  
                                  l3839 284A                                    l3679 1C5A  
                                  l3935 3372                                    l4399 09D2  
                                  l2993 0384                                    l2985 0368  
                                  l2977 033C                                    l2969 02E6  
                                  l2897 0124                                    l2889 0114  
                                  l3881 19C2                                    l3873 18E8  
                                  l3929 29D8                                    l3793 220E  
                                  l3785 21D2                                    l3777 219E  
                                  l3769 217C                                    l3865 28BA  
                                  l3857 28A4                                    l3849 2868  
                                  l3937 337E                                    l2995 0394  
                                  l2987 036A                                    l2899 0128  
                                  l3883 19D4                                    l3875 1944  
                                  l3891 28F2                                    l3795 2210  
                                  l3787 21F8                                    l3779 21A4  
                                  l3867 28CA                                    l3859 28AA  
                                  l3939 3390                                    l2989 0378  
                                  l2997 0396                                    l3885 19F8  
                                  l3877 197A                                    l3869 17FA  
                                  l3893 290A                                    l3797 222C  
                                  l3789 21FA                                    l2999 03B4  
                                  l3887 1A2E                                    l3879 198C  
                                  l3799 2240                                    l3897 291E  
                                  _ADFM 7E07                                    l3899 2948  
                                  _ADON 7E10                                    _CHS0 7E12  
                                  _CHS1 7E13                                    _CHS2 7E14  
                                  _CHS3 7E15                                    STR_1 7F4E  
                                  STR_2 7FC6                                    STR_3 7FE6  
                                  STR_4 7F73                                    STR_5 7FBC  
                                  STR_6 7FD8                                    STR_7 7FE0  
                                  STR_8 7F90                                    STR_9 7FF3  
                                  _BRGH 7D62                                    _CREN 7D5C  
                                  u3000 02F6                                    u3001 02F2  
                                  u3010 032C                                    u3011 0328  
                                  u3100 03F4                                    u3020 033C  
                                  u3101 03F0                                    u3021 0338  
                                  u3110 040E                                    u3030 0368  
                                  u3111 040A                                    u3031 0364  
                                  u3120 0448                                    u3040 0378  
                                  u3200 14A6                                    u4000 11E8  
                                  u3121 0444                                    u3041 0374  
                                  u3201 14A2                                    u4001 11E4  
                                  u3130 045A                                    u3050 0394  
                                  u3210 14E8                                    u4010 11FE  
                                  u3131 0456                                    u3051 0390  
                                  u3211 14E4                                    u4011 11FA  
                                  u4100 2512                                    u3140 046A  
                                  u3060 03A4                                    u3300 1682  
                                  u3220 14FA                                    u4020 1442  
                                  u4101 250E                                    u3141 0466  
                                  u3061 03A0                                    u3301 167E  
                                  u3221 14F6                                    u4021 143E  
                                  u4030 2A2A                                    u4110 2568  
                                  u3150 048A                                    u3070 03B4  
                                  u3310 16A0                                    u3230 150A  
                                  u4031 2A26                                    u4111 2564  
                                  u3151 0486                                    u3071 03B0  
                                  u3311 169C                                    u3231 1506  
                                  u4040 2A68                                    u4120 25B2  
                                  u3160 049A                                    u3080 03CA  
                                  u3400 17E6                                    u3320 16C0  
                                  u3240 1548                                    u5000 1D24  
                                  u4200 1AFE                                    u4041 2A64  
                                  u4121 25AE                                    u3161 0496  
                                  u3081 03C6                                    u3401 17E2  
                                  u3321 16BC                                    u3241 1544  
                                  u5001 1D20                                    u4201 1AFA  
                                  u4050 2A86                                    u4130 25D0  
                                  u3170 04B6                                    u3090 03E0  
                                  u3330 16D0                                    u3250 1588  
                                  u3410 04E6                                    u5010 1D40  
                                  u4210 1B1A                                    u4051 2A82  
                                  u4131 25CC                                    u3171 04B2  
                                  u3091 03DC                                    u3331 16CC  
                                  u3251 1584                                    u3411 04E2  
                                  u5011 1D3C                                    u4211 1B16  
                                  u4060 2AA6                                    u4140 25E0  
                                  u3340 16FE                                    u3260 15FC  
                                  u3180 1484                                    u3500 0784  
                                  u3420 04F8                                    u5100 1E6E  
                                  u5020 1D66                                    u4220 1B60  
                                  u4061 2AA2                                    u4141 25DC  
                                  u3341 16FA                                    u3261 15F8  
                                  u3181 1480                                    u3501 0780  
                                  u3421 04F4                                    u5101 1E6A  
                                  u5021 1D62                                    u4221 1B5A  
                                  u4070 2AF6                                    u4150 25EE  
                                  u3350 1714                                    u3270 161E  
                                  u3190 1496                                    u3510 07A4  
                                  u3430 0508                                    u5110 1E8A  
                                  u5030 1D82                                    u4230 1B62  
                                  u4071 2AF2                                    u4151 25EA  
                                  u3351 1710                                    u3271 161A  
                                  u3191 1492                                    u3511 07A0  
                                  u3431 0504                                    u5111 1E86  
                                  u5031 1D7E                                    u4160 2628  
                                  u4080 24A8                                    u2800 0040  
                                  u3360 1728                                    u3280 1648  
                                  u3520 07B4                                    u3440 0548  
                                  u5040 1DA8                                    u2720 35DE  
                                  u4400 2110                                    u4240 1BCA  
                                  u5120 322C                                    u4161 2624  
                                  u4081 24A4                                    u2801 003C  
                                  u3361 1724                                    u3281 1644  
                                  u3521 07B0                                    u3441 0544  
                                  u5041 1DA4                                    u2721 35DA  
                                  u4401 210C                                    u4241 1BC6  
                                  u5121 3228                                    u4170 2636  
                                  u4090 24B6                                    u2810 0050  
                                  u3370 1742                                    u3290 166C  
                                  u3530 07E2                                    u3450 055A  
                                  u5050 1DC4                                    u2730 35EC  
                                  u4410 212A                                    u4250 1BDA  
                                  u5130 3244                                    u4171 2632  
                                  u4091 24B2                                    u2811 004C  
                                  u3371 173E                                    u3291 1668  
                                  u3531 07DE                                    u3451 0556  
                                  u5051 1DC0                                    u2731 35E8  
                                  u4411 2126                                    u4251 1BD6  
                                  u5131 3240                                    u2900 0196  
                                  u2820 0090                                    u3380 178A  
                                  u3540 07F8                                    u3460 056A  
                                  u5060 1DEA                                    u4500 22A0  
                                  u4420 2144                                    u3700 2F28  
                                  u4260 1BEA                                    u4180 1A64  
                                  u5140 34B0                                    u2821 008C  
                                  u3381 1786                                    u3541 07F4  
                                  u3461 0566                                    u5061 1DE6  
                                  u4501 229C                                    u4421 2140  
                                  u3701 2F24                                    u4261 1BE6  
                                  u4181 1A60                                    u5141 34AC  
                                  u2910 01BE                                    u2830 00A6  
                                  u3390 17BA                                    u3550 080C  
                                  u3470 05A0                                    u5070 1E06  
                                  u3630 2CCC                                    u4510 27DA  
                                  u4350 36BC                                    u3710 2F42  
                                  u4270 1BFA                                    u4190 1AA2  
                                  u2911 01BA                                    u2831 00A2  
                                  u3391 17B6                                    u3551 0808  
                                  u3471 059C                                    u5071 1E02  
                                  u3631 2CC8                                    u4511 27D6  
                                  u4351 36B8                                    u3711 2F3E  
                                  u4271 1BF6                                    u4191 1A9E  
                                  u2920 01DC                                    u2840 00B8  
                                  u3560 0826                                    u3480 05B0  
                                  u3800 0DD8                                    u4600 197A  
                                  u5080 1E2C                                    u2760 36EC  
                                  u3640 2CE6                                    u4440 21D2  
                                  u4360 20BA                                    u4520 27EA  
                                  u3720 2F60                                    u4280 1C44  
                                  u5400 0C10                                    u5320 09E0  
                                  u2921 01D8                                    u2841 00B4  
                                  u3561 0822                                    u3481 05AC  
                                  u3801 0DD4                                    u4601 1976  
                                  u5081 1E28                                    u2761 36E8  
                                  u3641 2CE2                                    u4441 21CE  
                                  u4361 20B6                                    u4521 27E6  
                                  u3721 2F5C                                    u4281 1C40  
                                  u5401 0C0C                                    u5321 09DC  
                                  u2930 01FC                                    u2850 00C8  
                                  u3570 086E                                    u3490 072A  
                                  u3810 0DFA                                    u4610 19C2  
                                  u5090 1E48                                    u2770 36D6  
                                  u3650 2D0C                                    u4434 2190  
                                  u4370 20CA                                    u4530 2804  
                                  u3730 2F76                                    u5410 0C5E  
                                  u5330 09EE                                    u2931 01F8  
                                  u2851 00C4                                    u3571 086A  
                                  u3811 0DF6                                    u4611 19BE  
                                  u5091 1E44                                    u2771 36D2  
                                  u3651 2D08                                    u4435 218C  
                                  u4371 20C6                                    u4531 2800  
                                  u3731 2F72                                    u5411 0C5A  
                                  u5331 09EA                                    u2940 020A  
                                  u2860 0102                                    u3580 089C  
                                  u4620 290A                                    u2780 368E  
                                  u3660 2D2A                                    u4460 220E  
                                  u4380 20E4                                    u4540 2814  
                                  u3740 2F9A                                    u3900 2E52  
                                  u5420 0C94                                    u5340 0A02  
                                  u2941 0206                                    u2861 00FE  
                                  u3581 0898                                    u4621 2906  
                                  u2781 368A                                    u3661 2D26  
                                  u4461 220A                                    u4381 20E0  
                                  u4541 2810                                    u3741 2F96  
                                  u3901 2E4E                                    u5421 0C90  
                                  u5341 09FE                                    u2950 021A  
                                  u2870 0110                                    u2790 002E  
                                  u3590 08D4                                    u3750 3458  
                                  u3830 0E6C                                    u4630 293E  
                                  u3670 2D46                                    u4470 2220  
                                  u4454 21E4                                    u4390 20F4  
                                  u4550 2830                                    u3910 2E62  
                                  u5350 0A8C                                    u2951 0216  
                                  u2871 010C                                    u2791 002A  
                                  u3591 08D0                                    u3495 0720  
                                  u3751 3454                                    u3831 0E68  
                                  u3671 2D42                                    u4471 221C  
                                  u4455 21E0                                    u4391 20F0  
                                  u4551 282C                                    u3911 2E5E  
                                  u5351 0A88                                    u2960 024C  
                                  u2880 017C                                    u3840 0EA4  
                                  u3760 0D2C                                    u4640 296C  
                                  u3680 2D6C                                    u4480 227A  
                                  u4560 284A                                    u3920 2E88  
                                  u5360 0AE6                                    u2961 0248  
                                  u2881 0178                                    u3841 0EA0  
                                  u3825 0E2A                                    u3761 0D28  
                                  u4641 2968                                    u3681 2D68  
                                  u4481 2276                                    u4561 2846  
                                  u3921 2E84                                    u5361 0AE2  
                                  u2970 025A                                    u2890 0194  
                                  u3850 0F1A                                    u3826 0E34  
                                  u3770 0D5A                                    u4650 2980  
                                  u4490 228E                                    u4570 2864  
                                  u3690 2F0E                                    u3930 2EBA  
                                  u5370 0B1C                                    u2971 0256  
                                  u2891 018E                                    u3851 0F16  
                                  u3827 0E44                                    u3771 0D56  
                                  u4651 297C                                    u4635 2934  
                                  u4491 228A                                    u4571 2860  
                                  u3691 2F0A                                    u3931 2EB6  
                                  u5371 0B18                                    u2980 0278  
                                  u3860 0FB6                                    u3780 0D68  
                                  u4660 29A8                                    u4900 3188  
                                  u4580 28CA                                    u3940 34C2  
                                  u5380 0B82                                    u2981 0274  
                                  u3861 0FB2                                    u3781 0D64  
                                  u4661 29A4                                    u4901 3184  
                                  u4581 28C6                                    u3941 34BE  
                                  u5381 0B7E                                    u5437 092A  
                                  u2990 02B0                                    u3870 101E  
                                  u3790 0DAA                                    u3950 10E8  
                                  u4590 1810                                    u4670 29C8  
                                  u4910 2B40                                    u5390 0BDA  
                                  u2991 02AC                                    u3871 101A  
                                  u3791 0DA6                                    u3951 10E2  
                                  u4591 180C                                    u4671 29C4  
                                  u5391 0BD6                                    u5447 0954  
                                  u3880 1034                                    u3960 10EA  
                                  u4680 29D8                                    u4920 2B50  
                                  u3881 1030                                    u4681 29D4  
                                  u4921 2B4C                                    u5457 098E  
                                  u3970 111A                                    u4930 2BC6  
                                  u4690 33AC                                    u3971 1116  
                                  u4691 33A8                                    u5467 0CD0  
                                  u3980 1136                                    u4940 2BE0  
                                  u4860 3290                                    u3981 1132  
                                  u4941 2BDC                                    u4917 2B36  
                                  u5477 2FB8                                    u3990 11D2  
                                  u4950 343E                                    u4870 32BA  
                                  u3895 10A0                                    u3991 11CE  
                                  u5487 3066                                    u4951 343A  
                                  u4960 307C                                    u4880 32CA  
                                  u5497 353C                                    u4961 3078  
                                  u4937 2BBC                                    u4881 32C6  
                                  u4970 1CBE                                    u4890 316C  
                                  u4971 1CBA                                    u4891 3168  
                                  u4867 3286                                    u4980 1CDA  
                                  u4981 1CD6                                    u4877 32B0  
                                  u4990 1CFE                                    u4991 1CFA  
                                  _SPEN 7D5F                                    _TRMT 7D61  
                                  _TXEN 7D65                                    _SYNC 7D64  
                           ?_OLED_Print 006D                                    abs@a 0066  
                                  _dbuf 015E                                    _main 08F2  
                                  _pio2 7F4A                                    _prec 0052  
                      __end_of_I2C_Init 374E                                    fsr1h 0FE2  
                                  fsr2h 0FDA                                    indf1 0FE7  
                                  indf2 0FDF                                    fsr1l 0FE1  
                                  fsr2l 0FD9                                    btemp 0056  
                      __end_of_I2C_Wait 35EE                        __end_of_I2C_Stop 36D8  
                          ?i2_I2C_Start 0001                                    prodh 0FF4  
                                  prodl 0FF3                            ?i2_I2C_Write 0001  
                                  start 000E                         ___fldiv@new_exp 00A8  
                          ___param_bank 0000                                   ??_ISR 0029  
                          main@angleStr 0146                                   ??_abs 0068  
                         ___fltol@sign1 00F9    i2OLED_DrawCentered2x_AtPage@startCol 0025  
    OLED_DrawCentered2x_AtPage@startCol 0084                                   _ADCS0 7E00  
                                 _ADCS1 7E01                                   _ADCS2 7E02  
                       __end_of___fladd 04CA                                   ?_main 0001  
                       __end_of___fldiv 17FA                         __end_of___awdiv 2D7E  
                       __end_of___flneg 347A                                   STR_10 7FA1  
                                 STR_11 7FD0                                   STR_20 7FF9  
                                 STR_12 7FB2                                   STR_13 7F72  
                                 STR_21 7FFD                                   STR_14 7FF0  
                                 STR_15 7FEB                                   STR_16 7FF7  
                                 STR_17 7FF5                                   STR_18 7FFD  
                                 STR_19 7FFB                         __end_of___awmod 2FAC  
                       __end_of___flmul 08F2                         __end_of___flsub 3372  
                       __end_of___fltol 29FA                         ___awdiv@divisor 0062  
                                 _PCFG0 7E08                                   _PCFG1 7E09  
                                 _PCFG2 7E0A                                   _PCFG3 7E0B  
                            _Config_ADC 351E                                   i2l204 31FA  
                                 i2l213 2340                                   i2l222 2490  
                                 i2l302 2078                                   i2l209 3654  
                                 i2l153 36F0                                   i2l234 241A  
                                 i2l162 3328                                   i2l171 3612  
                                 i2l180 370A                                   i2l228 2414  
                                 i2l156 3702                                   i2l174 3720  
                                 i2l183 3718                                   i2l247 2CB8  
                                 i2l192 3672                                   i2l177 372E  
                                 i2l186 369A                                   i2l189 36A8  
                                 i2l297 1FAC                                   i2l577 2E3E  
                       ___awdiv@counter 0064                            vfpfcnvrt@fmt 006B  
                                 _SPBRG 0FAF                                   _TXREG 0FAD  
          OLED_DrawScaledChar@start_col 006A                         __end_of_font5x7 7F3A  
                                 _fabsf 34E8                                   _flags 00FF  
                                 _asinf 10C6                                   _errno 0054  
                                 _fputc 2E40                            main@joystick 015A  
                                 _width 0050                                   _putch 375A  
                                 _sqrtf 0CE6          ??i2_OLED_DrawCentered2x_AtPage 0020  
                     __end_of_I2C_Start 36EE                       __end_of_I2C_Write 3690  
                                 tablat 0FF5                                   ttemp5 0057  
                                 ttemp6 005A                                   ttemp7 005E  
                                 status 0FD8                                   wtemp8 0057  
                       __end_of_sprintf 33FC                         __initialization 354A  
                          __end_of_main 0CE6                            __end_of_pio2 7F4E  
                            _Init_ports 3574                __end_of_UART_WriteString 32CC  
                                ??_main 00FD              i2OLED_DrawScaledChar@scale 0009  
            i2OLED_DrawScaledChar@pixel 0012                           __activetblptr 0002  
           Demux_control@angleCondition 00FB                                  _R$1292 00BC  
                                _R$1293 00C0                                  ?_fabsf 0060  
                                ?_asinf 00CC                                  ?_fputc 0060  
                                _ADRESH 0FC4                                  _ADRESL 0FC3  
                      ___awdiv@dividend 0060                                  ?_putch 0001  
                                ?_sqrtf 0060                       __end_of_OLED_Init 305C  
                                _INT1IE 7F83                                  _INT1IF 7F80  
                                _INT2IE 7F84                                  _INT2IF 7F81  
                                i2l4001 23EC                                  i2l4011 2420  
                                i2l4003 23EE                                  i2l3301 371E  
                                i2l4021 2452                                  i2l4013 2434  
                                i2l4005 23F0                                  i2l3303 3704  
                                i2l4031 247E                                  i2l4023 2456  
                                i2l4015 2438                                  i2l4007 2402  
                                i2l3305 3708                                  i2l4033 2480  
                                i2l4017 243E                                  i2l4025 2458  
                                i2l4009 2404                                  i2l3307 3692  
                                i2l4027 246A                                  i2l4019 2444  
                                i2l3309 3696                                  i2l4029 246C  
                                i2l4301 2C5A                                  i2l4303 2C60  
                                i2l4311 1ED4                                  i2l3505 3658  
                                i2l4305 2CA4                                  i2l4321 1EF2  
                                i2l4313 1EE2                                  i2l4307 2CA6  
                                i2l4331 1F42                                  i2l4323 1EF4  
                                i2l4315 1EEC                                  i2l3701 2DB4  
                                i2l4261 32CC                                  i2l4341 1F82  
                                i2l4333 1F52                                  i2l4325 1F00  
                                i2l4317 1EEE                                  i2l4309 1EC6  
                                i2l2823 35EE                                  i2l4271 3194  
                                i2l3711 2DEC                                  i2l3703 2DBC  
                                i2l4263 32D0                                  i2l4351 1FE0  
                                i2l4343 1F90                                  i2l4335 1F6A  
                                i2l4327 1F18                                  i2l4319 1EF0  
                                i2l2825 35EE                                  i2l4281 31E2  
                                i2l4273 31C0                                  i2l3721 2E18  
                                i2l3713 2DF2                                  i2l3705 2DCE  
                                i2l4265 32F4                                  i2l4361 2032  
                                i2l4353 1FEE                                  i2l4345 1F9E  
                                i2l4337 1F7A                                  i2l4329 1F2A  
                                i2l2827 3604                                  i2l3299 371A  
                                i2l4283 31E6                                  i2l4275 31C8  
                                i2l3715 2E08                                  i2l3707 2DD6  
                                i2l3723 2E1E                                  i2l4291 2BF0  
                                i2l4267 32F8                                  i2l4363 2042  
                                i2l4355 1FFC                                  i2l4347 1FBA  
                                i2l4339 1F7C                                  i2l4277 31CE  
                                i2l4285 31E8                                  i2l4269 318C  
                                i2l3725 2E2E                                  i2l3717 2E10  
                                i2l3709 2DDE                                  i2l4293 2BF2  
                                i2l4357 2008                                  i2l4349 1FC8  
                                i2l4365 205C                                  i2l4279 31D0  
                                i2l3727 2E36                                  i2l3719 2E12  
                                i2l4295 2C2E                                  i2l4287 2BE2  
                                i2l4359 201A                                  i2l4297 2C32  
                                i2l4289 2BE4                                  i2l3691 2D8E  
                                i2l4299 2C3A                                  i2l3685 3638  
                                i2l3693 2D96                                  i2l3695 2D9A  
                                i2l3687 2D7E                                  i2l3951 22B4  
                                i2l3697 2DA8                                  i2l3689 2D80  
                                i2l3961 22F8                                  i2l3953 22C4  
                                i2l3945 36F0                                  i2l3699 2DB0  
                                i2l3971 233E                                  i2l3963 230A  
                                i2l3955 22CE                                  i2l3947 36FE  
                                i2l3981 2374                                  i2l3965 2312  
                                i2l3957 22DE                                  i2l3949 22A4  
                                i2l3991 2396                                  i2l3983 2376  
                                i2l3967 2324                                  i2l3959 22EE  
                                i2l3993 239C                                  i2l3977 2342  
                                i2l3969 232C                                  i2l3995 23B2  
                                i2l3979 2368                                  i2l3997 23B8  
                                i2l3989 2378                                  i2l3999 23C8  
                                _GY_ADC 17FA                           vfpfcnvrt@done 006F  
                         ?_OLED_Command 0001                   __end_of_Demux_control 1E9C  
                                _SSPADD 0FC8                                  _TRISA0 7C90  
                                _TRISA1 7C91                                  _TRISB0 7C98  
                                _TRISA2 7C92                                  _TRISB1 7C99  
                                _TRISA3 7C93                                  _TRISB2 7C9A  
                                _TRISB3 7C9B                                  _TRISB4 7C9C  
                                _TRISD0 7CA8                                  _TRISB5 7C9D  
                                _TRISD1 7CA9                                  _TRISC6 7CA6  
                                _TRISD4 7CAC                                  _TRISC7 7CA7  
                                _TRISD5 7CAD                                  _TRISD6 7CAE  
                                _TRISD7 7CAF                                  _SSPBUF 0FC9  
                      __end_of___xxtofl 264A                       i2OLED_Command@cmd 0003  
                         GY_ADC@voltage 0104                            vfprintf@cfmt 007B  
                     __end_of_UART_Init 3740                                  ___flge 29FA  
                             ??___fladd 008F                               ??___fldiv 009F  
                             ??___awdiv 0064                               ??___flneg 0064  
                             ??___awmod 0064                               ??___flmul 0076  
                             ??___flsub 00CC                               ??___fltol 00F5  
                                _lastBT 0194                                  fabsf@u 0064  
                                fabsf@x 0060                                  clear_0 3550  
                                clear_1 3560                        ___awdiv@quotient 0066  
                       ___awmod@divisor 0062                                  isa$std 0001  
                       ___awmod@counter 0064                                  asinf@s 00E1  
                                asinf@x 00CC                                  asinf@z 00E5  
                                _strcmp 31FC                                  _strcpy 347A  
                        i2___awdiv@sign 0006                             ?_Config_ADC 0001  
                                fputc@c 0060                         i2I2C_Write@data 0002  
                             ?_I2C_Init 0001                       __end_ofi2___awdiv 2E40  
                             ?_I2C_Wait 0001                               ?_I2C_Stop 0001  
             i2OLED_ClearArea@startPage 0007                            __mediumconst 7E76  
           ?_OLED_DrawCentered2x_AtPage 007C                                  tblptrh 0FF7  
                                tblptrl 0FF6                                  tblptru 0FF8  
                                putch@c 0001                        __end_of_vfprintf 33B8  
                                sqrtf@i 006D                                  sqrtf@m 0079  
                                sqrtf@q 0071                                  sqrtf@r 007D  
                                sqrtf@s 0069                                  sqrtf@t 0075  
                                sqrtf@x 0060                        ??i2_OLED_Command 0003  
                             ??_sprintf 0085                              ___flge@ff1 0060  
                            ___flge@ff2 0064                          ??_OLED_Command 0062  
                          ___xxtofl@arg 006A                            ___xxtofl@exp 0069  
                          ___xxtofl@val 0060                              __accesstop 0060  
               __end_of__initialization 3566                              ___flneg@f1 0060  
                 i2_OLED_DrawScaledChar 22A2                           ___rparam_used 0001  
                            ___fltol@f1 00F1                      i2_UART_WriteString 32CC  
                        __pcstackCOMRAM 0001                           __end_of_fabsf 351E  
                         __end_of_asinf 1468                   _emergency_stop_active 017E  
                         __end_of_fputc 2EFC                             ?_Init_ports 0001  
                   ?i2_UART_WriteString 0002                           __end_of_putch 375C  
                         __end_of_sqrtf 10C6                             GY_ADC@angle 0108  
                            ??_I2C_Init 0060                            ??i2_I2C_Wait 0001  
                            ??_I2C_Wait 0060                            ??i2_I2C_Stop 0002  
                            ??_I2C_Stop 0061                           _OLED_DrawChar 27C4  
                               ??_fabsf 0064                                 ??_asinf 00D0  
                               ??_fputc 0063                                 ??_putch 0060  
                               ??_sqrtf 0064                    ??i2_UART_WriteString 0004  
                            __pbssBANK0 00FF                              __pbssBANK1 015E  
                      i2_UART_WriteChar 36EE                            ??_OLED_Print 0071  
                               ?_GY_ADC 00ED                           ?_Joystick_ADC 0097  
                            _asinf$1294 00D0                              _asinf$1295 00D4  
                            _asinf$1296 00D8                              _asinf$1297 00DC  
                               ?___flge 0060                      __end_ofi2_I2C_Wait 3614  
                    __end_ofi2_I2C_Stop 371A                                 ?_strcmp 0060  
                               ?_strcpy 0060                      __end_of_OLED_Print 3440  
                               _INTEDG1 7F8D                                 _INTEDG2 7F8C  
                             ?___xxtofl 0060                                 _GO_DONE 7E11  
                        ?_OLED_DrawChar 0065                                 _SSPCON1 0FC6  
                               _SSPCON2 0FC5                                 _SSPSTAT 0FC7  
                        ??_Joystick_ADC 009B                  ?i2_OLED_DrawScaledChar 0009  
                             _I2C_Start 36D8                               _I2C_Write 3674  
                            _lastCycles 0035          i2OLED_DrawScaledChar@start_col 000B  
                               __Hparam 0000                OLED_DrawScaledChar@F4166 004D  
                               __Lparam 0000                    OLED_DrawScaledChar@c 007B  
                  OLED_DrawScaledChar@p 0079                    OLED_DrawScaledChar@v 0074  
                  OLED_DrawScaledChar@x 0077                     i2OLED_SetCursor@col 0004  
                               ___fladd 0012                                 ___fldiv 1468  
                               ___awdiv 2CBA                                 ___flneg 3440  
                               ___awmod 2EFC                                 ___flmul 04CA  
                               ___flsub 332A                                 ___fltol 28F2  
                    OLED_SetCursor@page 0064                               ?_vfprintf 0077  
                               __pcinit 354A                                 __ramtop 0800  
                  __end_of_OLED_Command 3636                       ?_UART_WriteString 0061  
                               __ptext0 08F2                                 __ptext1 347A  
                               __ptext2 31FC                                 __ptext3 33B8  
                               __ptext4 3372                                 __ptext5 1A40  
                               __ptext6 2E40                                 __ptext7 375A  
                               __ptext8 34B2                                 __ptext9 2EFC  
              OLED_DrawScaledChar@scale 0068                                 _font5x7 7E77  
              OLED_DrawScaledChar@pixel 0071                      ??_UART_WriteString 0063  
                      i2_OLED_ClearArea 318A                              ??___xxtofl 0064  
                      ___awmod@dividend 0060                     i2OLED_ClearArea@col 0008  
                OLED_ClearArea@startCol 0064               OLED_DrawScaledChar@outBit 0073  
                               asinf@ix 00E9               OLED_DrawScaledChar@rowOut 0076  
                               _sprintf 33B8                          __pintcode_body 1E9C  
                i2OLED_ClearArea@endCol 0006                    end_of_initialization 3566  
                               fputc@fp 0062                           __Lmediumconst 7E76  
                               int_func 1E9C                               _OLED_Init 2FAC  
                            ?_I2C_Start 0001                     _OLED_DrawScaledChar 20A4  
                            ?_I2C_Write 0001                      OLED_ClearArea@page 0068  
                     __end_of_vfpfcnvrt 1C7E                                 postdec2 0FDD  
                               postinc0 0FEE                                 postinc1 0FE6  
                               postinc2 0FDE                        vfpfcnvrt@convarg 0072  
                        _UART_WriteChar 36AA                              ??_vfprintf 007B  
               OLED_DrawChar@start_page 0065                                 sqrtf@ix 0081  
                               strcmp@l 0060                                 strcmp@r 0062  
                               strcpy@d 0064                               _UART_Init 3730  
                      i2_OLED_SetCursor 3636                            ??_Config_ADC 0060  
                  ?_OLED_DrawScaledChar 0068                         ??_OLED_DrawChar 0067  
                           ___fladd@grs 0096             OLED_DrawCentered2x_AtPage@i 0087  
                         ___xxtofl@sign 0068                             ___fldiv@grs 00AA  
                           ___fldiv@rem 00A3                               i2___awdiv 2D7E  
                       OLED_Command@cmd 0062                             ___flmul@grs 007B  
                            main@buffer 0114        i2OLED_DrawCentered2x_AtPage@page 001F  
        OLED_DrawCentered2x_AtPage@page 007E                          __end_of_GY_ADC 1A40  
                            ?_OLED_Init 0001                      i2___awdiv@dividend 0001  
                    __end_of_Config_ADC 354A  i2OLED_DrawCentered2x_AtPage@totalWidth 0024  
  OLED_DrawCentered2x_AtPage@totalWidth 0083                  __end_of_UART_WriteChar 36C2  
                        __end_of___flge 2B00                            ??_Init_ports 0060  
                           vfpfcnvrt@ap 006C                             vfpfcnvrt@cp 0070  
                           vfpfcnvrt@fp 006A                __end_ofi2_UART_WriteChar 3704  
                            ?_UART_Init 0001                    __end_of_Joystick_ADC 310A  
                 ??_OLED_DrawScaledChar 006B                          __end_of_strcmp 326C  
                        __end_of_strcpy 34B2                     start_initialization 354A  
                    i2___awdiv@quotient 0007                             __end_of_ISR 20A4  
                           __end_of_pS0 7F4A                             __end_of_pS1 7F46  
                           __end_of_pS2 7F42                             __end_of_qS1 7F3E  
                           __end_of_abs 34E8                              ?i2___awdiv 0001  
                              ??_GY_ADC 00F1                      __end_of_Init_ports 359E  
                        _OLED_ClearArea 310A                           ??i2_I2C_Start 0002  
                           ??_I2C_Start 0061                           ??i2_I2C_Write 0002  
                           ??_I2C_Write 0061                         ?_UART_WriteChar 0001  
                           vfprintf@fmt 0078                                ??___flge 0068  
                OLED_DrawScaledChar@bit 0078                  OLED_DrawScaledChar@col 007A  
                OLED_DrawScaledChar@idx 0075                       _Enable_Interrupts 374E  
                              ??_strcmp 0064                                ??_strcpy 0064  
                             ___fladd@a 008B                               ___fladd@b 0087  
                    ?_Enable_Interrupts 0001                               ___fldiv@a 009B  
                             ___fldiv@b 0097                               ___flmul@a 0072  
                             ___flmul@b 006E                             __pbssCOMRAM 0035  
                             ___flsub@a 00C8                               ___flsub@b 00C4  
                         __pcstackBANK0 0060                           __pcstackBANK1 0100  
               ??i2_OLED_DrawScaledChar 000C                     ??_Enable_Interrupts 0060  
                             __end_of_R 27C4                              GY_ADC@gAcc 0110  
                __end_of_OLED_ClearArea 318A                              GY_ADC@rawy 0100  
                        _OLED_SetCursor 359E                       Joystick_ADC@value 009B  
                          _OLED_Command 3614                       i2UART_WriteChar@c 0001  
                         _Demux_control 1C7E                             ??_OLED_Init 0063  
              __end_ofi2_OLED_ClearArea 31FC   i2OLED_DrawCentered2x_AtPage@charWidth 0026  
   OLED_DrawCentered2x_AtPage@charWidth 0085                               __pintcode 0008  
                         __pmediumconst 7E76                                ?___fladd 0087  
                              ?___fldiv 0097                                ?___awdiv 0060  
                              ?___flneg 0060                                ?___awmod 0060  
                              ?___flmul 006E                     i2UART_WriteString@s 0002  
                              ?___flsub 00C4                                ?___fltol 00F1  
                   __end_ofi2_I2C_Start 3730               __end_of_Enable_Interrupts 375A  
                   __end_ofi2_I2C_Write 36AA                             ??_UART_Init 0060  
                             fabsf@F465 0049                             __smallconst 7E76  
                              _I2C_Init 3740                   OLED_ClearArea@endPage 0063  
                             _lastAngle 0180                                _I2C_Wait 35C6  
                              _I2C_Stop 36C2         i2OLED_DrawScaledChar@scaled_col 000E  
         OLED_DrawScaledChar@scaled_col 006D                       OLED_SetCursor@col 0063  
                           ??i2___awdiv 0005                                ?_sprintf 007D  
                __end_of_OLED_SetCursor 35C6                         ?_OLED_ClearArea 0063  
                        ?_Demux_control 0001                __end_ofi2_OLED_SetCursor 3656  
                     OLED_ClearArea@col 0067                                i2u430_40 2DA8  
                              i2u430_41 2DA4                                i2u431_40 2DCE  
                              i2u431_41 2DCA                                i2u360_40 372E  
                              i2u432_40 2DEC                                i2u520_40 2C1E  
                              i2u360_41 372A                                i2u432_41 2DE8  
                              i2u520_47 2C14                                i2u361_40 3718  
                              i2u433_40 2E08                                i2u521_40 2C2E  
                              i2u361_41 3714                                i2u433_41 2E04  
                              i2u521_41 2C2A                                i2u274_40 3604  
                              i2u362_40 36A8                                i2u434_40 2E2E  
                              i2u522_40 2CA0                                i2u530_40 1FEE  
                              i2u274_41 3600                                i2u362_41 36A4  
                              i2u434_41 2E2A                                i2u530_41 1FEA  
                              i2u522_47 2C96                                i2u275_40 3612  
                              i2u523_40 2CB8                                i2u515_40 32F0  
                              i2u531_40 1FFC                                i2u275_41 360E  
                              i2u523_41 2CB4                                i2u531_41 1FF8  
                              i2u515_47 32E6                                i2u516_40 3318  
                              i2u524_40 1ED4                                i2u524_41 1ED0  
                              i2u516_47 330E                                i2u429_40 2D8E  
                              i2u517_40 3328                                i2u525_40 1EE2  
                              i2u429_41 2D8A                                i2u517_41 3324  
                              i2u525_41 1EDE                                i2u518_40 31E2  
                              i2u470_40 36FE                                i2u526_40 1F9E  
                              i2u518_41 31DE                                i2u470_41 36FA  
                              i2u526_41 1F9A                                i2u550_47 1F0A  
                              i2u519_40 31FA                                i2u471_40 22B4  
                              i2u527_40 1FAC                                i2u519_41 31F6  
                              i2u471_41 22B0                                i2u527_41 1FA8  
                              i2u551_47 1F34                                i2u472_40 22C4  
                              i2u528_40 1FBA                                i2u472_41 22C0  
                              i2u528_41 1FB6                                i2u480_44 23DA  
                              i2u480_45 23D6                                i2u552_47 1F5C  
                              i2u481_40 2402                                i2u473_40 22DE  
                              i2u529_40 1FC8                                i2u481_41 23FE  
                              i2u473_41 22DA                                i2u529_41 1FC4  
                              i2u553_47 1F88                                i2u482_40 2414  
                              i2u474_40 22EE                                i2u482_41 2410  
                              i2u474_41 22EA                                i2u554_47 1FD2  
                              i2u483_40 246A                                i2u475_40 230A  
                              i2u483_41 2466                                i2u475_41 2306  
                              i2u555_47 2024                                i2u484_40 247E  
                              i2u476_40 2324                                i2u484_41 247A  
                              i2u476_41 2320                                i2u556_47 204C  
                              i2u485_40 2490                                i2u477_40 233E  
                              i2u485_41 248C                                i2u477_41 233A  
                              i2u557_47 2066                                i2u478_44 238A  
                              i2u478_45 2386                                i2u479_40 23C8  
                              i2u479_41 23C4                  OLED_DrawChar@start_col 0066  
                             asinf@sign 00E0                               _vfpfcnvrt 1A40  
                        OLED_DrawChar@c 006C                               main@btMsg 0132  
                             main@angle 015C         i2OLED_DrawCentered2x_AtPage@len 0027  
         OLED_DrawCentered2x_AtPage@len 0086         i2OLED_DrawCentered2x_AtPage@tmp 0022  
         OLED_DrawCentered2x_AtPage@tmp 0081         i2OLED_DrawCentered2x_AtPage@str 001D  
         OLED_DrawCentered2x_AtPage@str 007C                       i2___awdiv@divisor 0003  
                     i2___awdiv@counter 0005            ??_OLED_DrawCentered2x_AtPage 007F  
                            vfpfcnvrt@c 0076                         ?_OLED_SetCursor 0063  
          i2OLED_DrawScaledChar@colData 0011                            _Joystick_ADC 305C  
       i2OLED_DrawScaledChar@start_page 000A           OLED_DrawScaledChar@start_page 0069  
                           i2_I2C_Start 371A                             i2_I2C_Write 3690  
                              __Hrparam 0000            i2OLED_DrawScaledChar@outPage 0013  
                            vfprintf@ap 007A                                __Lrparam 0000  
                            vfprintf@fp 0077                           I2C_Write@data 0061  
                  i2OLED_SetCursor@page 0005                              ?_vfpfcnvrt 006A  
                     ?i2_UART_WriteChar 0001                i2OLED_ClearArea@startCol 0005  
                    ??i2_UART_WriteChar 0001                              sprintf@fmt 007F  
                              ___xxtofl 2492                   __end_of_OLED_DrawChar 28F2  
                              __ptext10 326C                                __ptext11 36AA  
                              __ptext20 310A                                __ptext12 3730  
                              __ptext21 3614                                __ptext13 33FC  
                              __ptext30 1C7E                                __ptext22 3674  
                              __ptext14 27C4                                __ptext31 28F2  
                              __ptext23 36C2                                __ptext15 2FAC  
                              __ptext40 1468                                __ptext32 17FA  
                              __ptext24 36D8                                __ptext16 2B00  
                              __ptext41 0012                                __ptext33 10C6  
                              __ptext25 35C6                                __ptext17 20A4  
                              __ptext50 2D7E                                __ptext42 2492  
                              __ptext34 0CE6                                __ptext26 305C  
                              __ptext18 2CBA                                __ptext51 3636  
                              __ptext43 29FA                                __ptext35 34E8  
                              __ptext27 3574                                __ptext19 359E  
                              __ptext52 318A                                __ptext44 351E  
                              __ptext36 332A                                __ptext28 3740  
                              __ptext53 3656                                __ptext37 3440  
                              __ptext29 374E                                __ptext54 3690  
                              __ptext46 32CC                                __ptext38 264A  
                              __ptext55 3704                                __ptext47 36EE  
                              __ptext39 04CA                                __ptext56 371A  
                              __ptext48 2BE2                                __ptext57 35EE  
                              __ptext49 22A2                             _GY_ADC$1291 010C  
                       ??_Demux_control 00FB                    OLED_ClearArea@endCol 0065  
                            strcpy@dest 0060                        ??_UART_WriteChar 0060  
            OLED_DrawScaledChar@colData 0070                          i2_OLED_Command 3656  
                  i2OLED_ClearArea@page 0009                 OLED_ClearArea@startPage 0066  
                              isa$xinst 0000             __end_of_OLED_DrawScaledChar 22A2  
            OLED_DrawScaledChar@outPage 0072                                int$flags 0056  
                        OLED_Print@page 006F                                _vfprintf 3372  
               i2OLED_ClearArea@endPage 0004    __end_ofi2_OLED_DrawCentered2x_AtPage 2CBA  
          i2_OLED_DrawCentered2x_AtPage 2BE2                              i2_I2C_Wait 35EE  
                            i2_I2C_Stop 3704             i2OLED_DrawScaledChar@outBit 0014  
           i2OLED_DrawScaledChar@rowOut 0017                    OLED_DrawChar@colData 0069  
                              intlevel2 0000                               sprintf@ap 0085  
                      _UART_WriteString 326C           __end_ofi2_OLED_DrawScaledChar 2492  
                            _OLED_Print 33FC                  __end_ofi2_OLED_Command 3674  
                             strcpy@src 0062                       ?i2_OLED_ClearArea 0004  
                         OLED_Print@col 0070                      ??i2_OLED_ClearArea 0007  
                         OLED_Print@str 006D           i2OLED_DrawCentered2x_AtPage@i 0028  
                           ??_vfpfcnvrt 006D                                sprintf@f 0086  
                              sprintf@s 007D      __end_of_OLED_DrawCentered2x_AtPage 2BE2  
         ?i2_OLED_DrawCentered2x_AtPage 001D              _OLED_DrawCentered2x_AtPage 2B00  
                      ??_OLED_ClearArea 0066                             _SSPCON2bits 0FC5  
            __end_ofi2_UART_WriteString 332A                           ___fladd@signs 0093  
                     UART_WriteString@s 0061                         UART_WriteChar@c 0060  
                          ___fladd@aexp 0094                            ___fladd@bexp 0095  
                       ?i2_OLED_Command 0001                       ?i2_OLED_SetCursor 0004  
              i2OLED_DrawScaledChar@bit 0019                i2OLED_DrawScaledChar@col 001B  
              i2OLED_DrawScaledChar@idx 0016                        OLED_DrawChar@col 006B  
                      OLED_DrawChar@idx 006A                  i2OLED_DrawScaledChar@c 001C  
                i2OLED_DrawScaledChar@p 001A                  i2OLED_DrawScaledChar@v 0015  
                i2OLED_DrawScaledChar@x 0018                      ??i2_OLED_SetCursor 0005  
